
C:/VSD_Sqd_Project/Sentence_Boundary_Disambiguation/src/debug/hello.elf:     file format elf32-littleriscv
C:/VSD_Sqd_Project/Sentence_Boundary_Disambiguation/src/debug/hello.elf
architecture: riscv:rv32, flags 0x00000112:
EXEC_P, HAS_SYMS, D_PAGED
start address 0x20100000

Program Header:
0x70000003 off    0x00037e25 vaddr 0x00000000 paddr 0x00000000 align 2**0
         filesz 0x0000004d memsz 0x00000000 flags r--
    LOAD off    0x00001000 vaddr 0x20100000 paddr 0x20100000 align 2**12
         filesz 0x00000ed8 memsz 0x00000ed8 flags rwx
    LOAD off    0x00007000 vaddr 0x80000000 paddr 0x201059b8 align 2**12
         filesz 0x00000a34 memsz 0x00000a34 flags rw-
     TLS off    0x00000000 vaddr 0x00000000 paddr 0x00000000 align 2**2
         filesz 0x00000000 memsz 0x00000000 flags ---
    LOAD off    0x00000a38 vaddr 0x80000a38 paddr 0x80000a38 align 2**12
         filesz 0x00000000 memsz 0x00000ca8 flags rw-
    LOAD off    0x00000134 vaddr 0x00000000 paddr 0x00000000 align 2**12
         filesz 0x00000000 memsz 0x00000000 flags ---
    LOAD off    0x00001f00 vaddr 0x20100f00 paddr 0x20100f00 align 2**12
         filesz 0x00004ab4 memsz 0x00004ab4 flags r-x
    LOAD off    0x00000134 vaddr 0x00000000 paddr 0x00000000 align 2**12
         filesz 0x00000000 memsz 0x00000000 flags ---

Sections:
Idx Name              Size      VMA       LMA       File off  Algn  Flags
  0 .init             000002c4  20100000  20100000  00001000  2**4  CONTENTS, ALLOC, LOAD, READONLY, CODE
  1 .init_array       0000000c  201002c8  201002c8  000012c8  2**3  CONTENTS, ALLOC, LOAD, DATA
  2 .ctors            0000007a  201002d4  201002d4  000012d4  2**1  CONTENTS, ALLOC, LOAD, READONLY, CODE
  3 .rodata           00000b88  20100350  20100350  00001350  2**3  CONTENTS, ALLOC, LOAD, READONLY, DATA
  4 .text             00004ab4  20100f00  20100f00  00001f00  2**7  CONTENTS, ALLOC, LOAD, READONLY, CODE
  5 .data             00000a34  80000000  201059b8  00007000  2**3  CONTENTS, ALLOC, LOAD, DATA
  6 .bss              0000009c  80000a38  80000a38  00007a38  2**3  ALLOC
  7 .stack            00000400  80000ae0  80000ae0  00007a38  2**4  ALLOC
  8 .heap             00000800  80000ee0  80000ee0  00007a38  2**3  ALLOC
  9 .debug_info       0001d23d  00000000  00000000  00007a34  2**0  CONTENTS, READONLY, DEBUGGING, OCTETS
 10 .debug_abbrev     000026d3  00000000  00000000  00024c71  2**0  CONTENTS, READONLY, DEBUGGING, OCTETS
 11 .debug_aranges    00000a88  00000000  00000000  00027348  2**3  CONTENTS, READONLY, DEBUGGING, OCTETS
 12 .debug_ranges     00000918  00000000  00000000  00027dd0  2**3  CONTENTS, READONLY, DEBUGGING, OCTETS
 13 .debug_line       0000ab1d  00000000  00000000  000286e8  2**0  CONTENTS, READONLY, DEBUGGING, OCTETS
 14 .debug_str        00004bfb  00000000  00000000  00033205  2**0  CONTENTS, READONLY, DEBUGGING, OCTETS
 15 .comment          00000025  00000000  00000000  00037e00  2**0  CONTENTS, READONLY
 16 .riscv.attributes 0000004d  00000000  00000000  00037e25  2**0  CONTENTS, READONLY
 17 .debug_frame      00002c68  00000000  00000000  00037e74  2**2  CONTENTS, READONLY, DEBUGGING, OCTETS
SYMBOL TABLE:
20100000 l    d  .init	00000000 .init
201002c8 l    d  .init_array	00000000 .init_array
201002d4 l    d  .ctors	00000000 .ctors
20100350 l    d  .rodata	00000000 .rodata
20100f00 l    d  .text	00000000 .text
80000000 l    d  .data	00000000 .data
80000a38 l    d  .bss	00000000 .bss
80000ae0 l    d  .stack	00000000 .stack
80000ee0 l    d  .heap	00000000 .heap
00000000 l    d  .debug_info	00000000 .debug_info
00000000 l    d  .debug_abbrev	00000000 .debug_abbrev
00000000 l    d  .debug_aranges	00000000 .debug_aranges
00000000 l    d  .debug_ranges	00000000 .debug_ranges
00000000 l    d  .debug_line	00000000 .debug_line
00000000 l    d  .debug_str	00000000 .debug_str
00000000 l    d  .comment	00000000 .comment
00000000 l    d  .riscv.attributes	00000000 .riscv.attributes
00000000 l    d  .debug_frame	00000000 .debug_frame
00000000 l    df *ABS*	00000000 entry.o
00000000 l    df *ABS*	00000000 scrub.o
201000c0 l     F .init	00000000 __metal_memory_scrub
2010012e l       .init	00000000 skip_scrub
00000000 l    df *ABS*	00000000 trap.o
00000000 l    df *ABS*	00000000 synchronize_harts.c
00000000 l    df *ABS*	00000000 crt0.o
20100240 l       .init	00000000 _skip_init
20100368 l       .rodata	00000000 argv
2010036c l       .rodata	00000000 envp
20100370 l       .rodata	00000000 name
00000000 l    df *ABS*	00000000 sifive_fe310-g000_pll.c
20103f78 l     F .text	0000001a __metal_driver_sifive_fe310_g000_pll_pllsel0
20103f92 l     F .text	0000001a __metal_driver_sifive_fe310_g000_pll_pllref
20103fac l     F .text	00000016 __metal_driver_sifive_fe310_g000_pll_divider_base
20103fc2 l     F .text	00000014 __metal_driver_sifive_fe310_g000_pll_divider_offset
20103fd6 l     F .text	00000012 __metal_driver_sifive_fe310_g000_pll_config_base
20103fe8 l     F .text	00000010 __metal_driver_sifive_fe310_g000_pll_config_offset
20103ff8 l     F .text	00000016 __metal_driver_sifive_fe310_g000_pll_init_rate
2010400e l     F .text	00000012 __metal_driver_sifive_fe310_g000_prci_base
20104020 l     F .text	00000016 __metal_driver_sifive_fe310_g000_prci_vtable
2010056c l     O .rodata	00000880 pll_configs
20104036 l     F .text	0000004e get_pll_config_freq
20104298 l     F .text	000000a8 find_closest_config
20104340 l     F .text	000001b0 configure_pll
00000000 l    df *ABS*	00000000 tty.c
00000000 l    df *ABS*	00000000 hello.c
20100f00 l     F .text	000000b6 uart_init_115200_from_hfrosc_14p4mhz
20100fb6 l     F .text	0000002a uart_write_char
20100fe0 l     F .text	0000002e uart_read_char_nonblock
2010100e l     F .text	0000004a uart_write_str
00000000 l    df *ABS*	00000000 riscv_clint0.c
201013ae l     F .text	0000002a __metal_driver_sifive_clint0_control_base
201013d8 l     F .text	00000028 __metal_driver_sifive_clint0_num_interrupts
20101400 l     F .text	0000003c __metal_driver_sifive_clint0_interrupt_parents
2010143c l     F .text	00000030 __metal_driver_sifive_clint0_interrupt_lines
2010159c l     F .text	00000036 _get_cpu_intc
00000000 l    df *ABS*	00000000 riscv_cpu.c
20101ad4 l     F .text	00000028 __metal_driver_cpu_hartid
20101afc l     F .text	0000002e __metal_driver_cpu_timebase
20101b2a l     F .text	0000002e __metal_driver_cpu_interrupt_controller
20101b58 l     F .text	00000028 __metal_driver_cpu_buserror
00000000 l    df *ABS*	00000000 riscv_plic0.c
201034de l     F .text	0000002a __metal_driver_sifive_plic0_control_base
20103508 l     F .text	0000002a __metal_driver_sifive_plic0_num_interrupts
20103532 l     F .text	00000028 __metal_driver_sifive_plic0_max_priority
2010355a l     F .text	00000028 __metal_driver_sifive_plic0_interrupt_parents
20103582 l     F .text	00000022 __metal_driver_sifive_plic0_interrupt_lines
201035a4 l     F .text	0000001e __metal_driver_sifive_plic0_context_ids
00000000 l    df *ABS*	00000000 sifive_gpio0.c
201046ca l     F .text	00000026 __metal_driver_sifive_gpio0_base
201046f0 l     F .text	0000002a __metal_driver_sifive_gpio0_interrupt_parent
2010471a l     F .text	000001b4 __metal_driver_sifive_gpio0_interrupt_lines
00000000 l    df *ABS*	00000000 sifive_uart0.c
20104f72 l     F .text	0000002a __metal_driver_sifive_uart0_control_base
20104f9c l     F .text	0000002e __metal_driver_sifive_uart0_interrupt_parent
20104fca l     F .text	00000028 __metal_driver_sifive_uart0_interrupt_line
20104ff2 l     F .text	0000002e __metal_driver_sifive_uart0_clock
20105020 l     F .text	0000002a __metal_driver_sifive_uart0_pinmux
2010504a l     F .text	00000028 __metal_driver_sifive_uart0_pinmux_output_selector
20105072 l     F .text	0000002a __metal_driver_sifive_uart0_pinmux_source_selector
20105428 l     F .text	000000da pre_rate_change_callback_func
20105502 l     F .text	0000002e post_rate_change_callback_func
00000000 l    df *ABS*	00000000 sifive_fe310-g000_hfrosc.c
20103d88 l     F .text	0000001a __metal_driver_sifive_fe310_g000_hfrosc_ref
20103da2 l     F .text	00000016 __metal_driver_sifive_fe310_g000_hfrosc_config_base
20103db8 l     F .text	00000014 __metal_driver_sifive_fe310_g000_hfrosc_config_offset
20103dcc l     F .text	00000016 __metal_driver_sifive_fe310_g000_prci_vtable
00000000 l    df *ABS*	00000000 sifive_fe310-g000_hfxosc.c
20103e88 l     F .text	0000001a __metal_driver_sifive_fe310_g000_hfxosc_ref
20103ea2 l     F .text	00000016 __metal_driver_sifive_fe310_g000_hfxosc_config_base
20103eb8 l     F .text	00000014 __metal_driver_sifive_fe310_g000_hfxosc_config_offset
20103ecc l     F .text	00000016 __metal_driver_sifive_fe310_g000_prci_vtable
00000000 l    df *ABS*	00000000 sifive_fe310-g000_prci.c
20104652 l     F .text	00000012 __metal_driver_sifive_fe310_g000_prci_base
00000000 l    df *ABS*	00000000 fixed-clock.c
20105900 l     F .text	00000062 __metal_driver_fixed_clock_rate
00000000 l    df *ABS*	00000000 atexit.c
00000000 l    df *ABS*	00000000 exit.c
00000000 l    df *ABS*	00000000 init.c
00000000 l    df *ABS*	00000000 fini.c
00000000 l    df *ABS*	00000000 __atexit.c
00000000 l    df *ABS*	00000000 __call_atexit.c
00000000 l    df *ABS*	00000000 init.c
80000a40 l     O .bss	00000004 init_done.1
80000a44 l     O .bss	00000004 fini_done.0
00000000 l    df *ABS*	00000000 clock.c
00000000 l    df *ABS*	00000000 cpu.c
00000000 l    df *ABS*	00000000 shutdown.c
00000000 l    df *ABS*	00000000 uart.c
00000000 l    df *ABS*	00000000 vector.o
20105880 l       .text	00000000 IRQ_0
20105884 l       .text	00000000 IRQ_1
20105888 l       .text	00000000 IRQ_2
2010588c l       .text	00000000 IRQ_3
20105890 l       .text	00000000 IRQ_4
20105894 l       .text	00000000 IRQ_5
20105898 l       .text	00000000 IRQ_6
2010589c l       .text	00000000 IRQ_7
201058a0 l       .text	00000000 IRQ_8
201058a4 l       .text	00000000 IRQ_9
201058a8 l       .text	00000000 IRQ_10
201058ac l       .text	00000000 IRQ_11
201058b0 l       .text	00000000 IRQ_12
201058b4 l       .text	00000000 IRQ_13
201058b8 l       .text	00000000 IRQ_14
201058bc l       .text	00000000 IRQ_15
201058c0 l       .text	00000000 IRQ_LC0
201058c4 l       .text	00000000 IRQ_LC1
201058c8 l       .text	00000000 IRQ_LC2
201058cc l       .text	00000000 IRQ_LC3
201058d0 l       .text	00000000 IRQ_LC4
201058d4 l       .text	00000000 IRQ_LC5
201058d8 l       .text	00000000 IRQ_LC6
201058dc l       .text	00000000 IRQ_LC7
201058e0 l       .text	00000000 IRQ_LC8
201058e4 l       .text	00000000 IRQ_LC9
201058e8 l       .text	00000000 IRQ_LC10
201058ec l       .text	00000000 IRQ_LC11
201058f0 l       .text	00000000 IRQ_LC12
201058f4 l       .text	00000000 IRQ_LC13
201058f8 l       .text	00000000 IRQ_LC14
201058fc l       .text	00000000 IRQ_LC15
00000000 l    df *ABS*	00000000 sys_exit.c
00000000 l    df *ABS*	00000000 inline.c
201002d4 l       .init_array	00000000 metal_constructors_end
201002d8 l       .init_array	00000000 __fini_array_end
201002d8 l       .init_array	00000000 metal_destructors_end
201002d8 l       .init_array	00000000 metal_destructors_start
201002d8 l       .init_array	00000000 __fini_array_start
201002c8 l       .init_array	00000000 __init_array_end
201002c8 l       .init_array	00000000 __preinit_array_end
201002c8 l       .init_array	00000000 __init_array_start
201002c8 l       .init_array	00000000 metal_constructors_start
201002c8 l       .init_array	00000000 __preinit_array_start
20100e74 g     O .rodata	00000040 __metal_driver_vtable_sifive_uart0
201023cc  w    F .text	00000096 metal_lc4_interrupt_vector_handler
20105696 g     F .text	00000026 metal_clock_get_rate_hz
20105388 g     F .text	000000a0 __metal_driver_sifive_uart0_set_baud_rate
20101778 g     F .text	00000054 __metal_driver_riscv_clint0_set_vector_mode
201051e2 g     F .text	00000048 __metal_driver_sifive_uart0_set_tx_watermark
20102336  w    F .text	00000096 metal_lc3_interrupt_vector_handler
20102bde g     F .text	00000056 __metal_valid_interrupt_id
201002cc g     O .init_array	00000004 _use_hfxosc_ptr
20103054 g     F .text	0000001a __metal_driver_riscv_cpu_controller_get_vector_mode
80001218 g       .data	00000000 __global_pointer$
2010032a g     F .ctors	00000024 metal_tty_init
20105642 g     F .text	00000054 _metal_clock_append_to_callbacks
201035fe g     F .text	00000046 __metal_plic0_complete_interrupt
20102e20 g     F .text	000001e0 __metal_driver_riscv_cpu_controller_interrupt_register
201002c8 g     O .init_array	00000004 _metal_sifive_fe310_g000_pll_init_ptr
80000a38 g       .data	00000000 __tls_base
2010578a g     F .text	0000002e metal_cpu_get
800009d0 g     O .data	00000020 __metal_dt_serial_10013000
20104b4c g     F .text	0000004a __metal_driver_sifive_gpio0_disable_io
2010037c g     O .rodata	00000064 __metal_driver_vtable_riscv_clint0
80000ad4 g       .bss	00000000 metal_segment_bss_target_end
2010146c g     F .text	0000009a __metal_clint0_mtime_get
20103452 g     F .text	0000002e __metal_driver_cpu_get_instruction_length
00000001 g       *ABS*	00000000 __metal_chicken_bit
201052a2 g     F .text	00000030 __metal_driver_sifive_uart0_get_rx_watermark
2010490c g     F .text	00000044 __metal_driver_sifive_gpio0_disable_input
80000000 g       .rodata	00000000 metal_segment_itim_target_start
201051b4 g     F .text	0000002e __metal_driver_sifive_uart0_txready
20105146 g     F .text	00000038 __metal_driver_sifive_uart0_rx_interrupt_enable
80000a38 g     O .bss	00000004 __stdio_exit_handler
20100142 g     F .init	0000000e __metal_synchronize_harts
80000a38 g       .data	00000000 metal_segment_bss_target_start
20101506 g     F .text	00000096 __metal_driver_riscv_clint0_mtimecmp_set
20104d9c g     F .text	00000188 __metal_driver_sifive_gpio0_clear_int
20104128 g     F .text	00000170 __metal_driver_sifive_fe310_g000_pll_get_rate_hz
00000400 g       *ABS*	00000000 __stack_size
20105704 g     F .text	00000030 metal_clock_register_pre_rate_change_callback
201026ba  w    F .text	00000096 metal_lc9_interrupt_vector_handler
201000cc  w    F .init	00000000 __metal_before_start
20101386  w    F .text	00000014 metal_init_run
20100508 g     O .rodata	00000064 __metal_driver_vtable_riscv_plic0
201004c4 g     O .rodata	00000044 __metal_driver_vtable_cpu
2010580c g     F .text	0000002e metal_uart_set_baud_rate
20105530 g     F .text	000000d0 __metal_driver_sifive_uart0_init
00000000 g       *ABS*	00000000 __metal_eccscrub_bit
201030da g     F .text	00000070 __metal_driver_cpu_mcycle_get
20100dec g     O .rodata	0000000c __metal_driver_vtable_sifive_fe310_g000_pll
80000ee0 g       .heap	00000000 metal_segment_heap_target_start
80000a24 g     O .data	00000008 __metal_dt_cpu_0
20102624  w    F .text	00000096 metal_lc8_interrupt_vector_handler
201044f0 g     F .text	00000162 __metal_driver_sifive_fe310_g000_pll_set_rate_hz
20103cec g     F .text	00000074 __metal_driver_riscv_plic0_affinity_set_threshold
20102912  w    F .text	00000096 metal_lc13_interrupt_vector_handler
20101cee g     F .text	00000018 __metal_default_exception_handler
20101aa0 g     F .text	00000034 __metal_driver_riscv_clint0_set_interrupt
2010306e g     F .text	00000050 __metal_driver_riscv_cpu_controller_set_vector_mode
20101b80 g     F .text	00000030 __metal_driver_cpu_get
20100460 g     O .rodata	00000064 __metal_driver_vtable_riscv_cpu_intc
20101be2 g     F .text	00000018 __metal_interrupt_global_disable
20103d60 g     F .text	00000028 __metal_driver_riscv_plic0_affinity_get_threshold
2010258e  w    F .text	00000096 metal_lc7_interrupt_vector_handler
20102750  w    F .text	00000096 metal_lc10_interrupt_vector_handler
20103b10 g     F .text	0000004e __metal_driver_riscv_plic0_disable
20102cf0 g     F .text	0000004e __metal_exception_register
20101296 g     F .text	00000078 metal_init
2010326c g     F .text	0000001a __metal_driver_cpu_timer_controller_interrupt
201049e6 g     F .text	0000003e __metal_driver_sifive_gpio0_enable_output
80000000 g       .rodata	00000000 metal_segment_lim_target_end
20101dde g     F .text	00000068 __metal_default_sw_handler
20105734 g     F .text	00000030 metal_clock_register_post_rate_change_callback
8000000c g     O .data	0000000c __metal_dt_clock_2
2010509c g     F .text	0000001e __metal_driver_sifive_uart0_interrupt_controller
20104aaa g     F .text	00000040 __metal_driver_sifive_gpio0_output_toggle
201050d8 g     F .text	00000038 __metal_driver_sifive_uart0_tx_interrupt_enable
20100ed0 g     O .rodata	00000008 __metal_driver_vtable_fixed_clock
20101e46  w    F .text	00000092 metal_timer_interrupt_vector_handler
201010ba g     F .text	0000005e __libc_init_array
20104a24 g     F .text	00000040 __metal_driver_sifive_gpio0_output_set
201027e6  w    F .text	00000096 metal_lc11_interrupt_vector_handler
20103f56 g     F .text	00000022 __metal_driver_sifive_fe310_g000_hfxosc_set_rate_hz
20103000 g     F .text	0000002a __metal_driver_riscv_cpu_controller_interrupt_enable
201049a2 g     F .text	00000044 __metal_driver_sifive_gpio0_disable_output
20105600 g     F .text	00000042 _metal_clock_call_all_callbacks
201002a2 g     F .init	00000002 _init
20101c44 g     F .text	0000001a __metal_interrupt_timer_disable
20104b96 g     F .text	00000206 __metal_driver_sifive_gpio0_config_int
2010332a g     F .text	00000062 __metal_driver_cpu_clear_sw_ipi
20100e38 g     O .rodata	0000003c __metal_driver_vtable_sifive_gpio0
20105110 g     F .text	00000036 __metal_driver_sifive_uart0_tx_interrupt_disable
20104aea g     F .text	00000062 __metal_driver_sifive_gpio0_enable_io
20101118 g     F .text	00000036 __libc_fini_array
80000a08 g     O .data	0000000c __metal_dt_clock_4
20104f24 g     F .text	00000020 __metal_driver_gpio_interrupt_controller
2010130e g     F .text	00000078 metal_fini
201032b4 g     F .text	00000014 __metal_driver_cpu_get_sw_interrupt_id
201034be g     F .text	00000020 __metal_driver_cpu_get_buserror
80000000 g       .data	00000000 metal_segment_data_target_start
20101c96 g     F .text	0000002c __metal_interrupt_local_enable
20101a6c g     F .text	00000034 __metal_driver_riscv_clint0_clear_interrupt
201037fc g     F .text	00000018 __metal_plic0_default_handler
00000000 g       *ABS*	00000000 __tbss_size
80000000 g     O .data	0000000c __metal_dt_clock_0
00000800 g       *ABS*	00000000 __heap_size
20103b5e g     F .text	00000030 __metal_driver_riscv_plic0_set_threshold
20101ed8 g     F .text	00000016 __metal_default_beu_handler
20101c7a g     F .text	0000001c __metal_interrupt_external_disable
201050ba g     F .text	0000001e __metal_driver_sifive_uart0_get_interrupt_id
201030be g     F .text	0000001c __metal_driver_riscv_cpu_controller_command_request
20102d3e g     F .text	000000e2 __metal_driver_riscv_cpu_controller_interrupt_init
2010340c g     F .text	00000046 __metal_driver_cpu_exception_register
20101bfa g     F .text	00000018 __metal_interrupt_software_enable
2010220a  w    F .text	00000096 metal_lc1_interrupt_vector_handler
201036c4 g     F .text	00000062 __metal_driver_riscv_plic0_set_priority
20102ad4 g     F .text	00000058 __metal_controller_interrupt_vector_mode
201011ce g     F .text	000000c8 __call_exitprocs
80000a48 g     O .bss	0000008c __atexit0
80000ee0 g       .stack	00000000 _sp
201002d0 g     O .init_array	00000004 _metal_tty_init_ptr
20100150 g     F .init	00000000 _start
20103de2 g     F .text	00000084 __metal_driver_sifive_fe310_g000_hfrosc_get_rate_hz
201033ec g     F .text	00000020 __metal_driver_cpu_controller_interrupt
20103480 g     F .text	0000001e __metal_driver_cpu_get_exception_pc
20101c5e g     F .text	0000001c __metal_interrupt_external_enable
2010114e g     F .text	00000080 __register_exitproc
201052d2 g     F .text	00000040 __metal_driver_sifive_uart0_putc
201038b4 g     F .text	00000150 __metal_driver_riscv_plic0_init
20103ac2 g     F .text	0000004e __metal_driver_riscv_plic0_enable
20104978 g     F .text	0000002a __metal_driver_sifive_gpio0_output
201024f8  w    F .text	00000096 metal_lc6_interrupt_vector_handler
20101bb0 g     F .text	0000001a __metal_myhart_id
20104f44 g     F .text	0000002e __metal_driver_gpio_get_interrupt_id
20101d4c  w    F .text	00000092 metal_software_interrupt_vector_handler
2010302a g     F .text	0000002a __metal_driver_riscv_cpu_controller_interrupt_disable
20105368 g     F .text	00000020 __metal_driver_sifive_uart0_get_baud_rate
2010165a g     F .text	000000da __metal_driver_riscv_clint0_register
80000a1c g     O .data	00000008 __metal_dt_clint_2000000
80000a3c g     O .bss	00000004 __atexit
201056bc g     F .text	00000048 metal_clock_set_rate_hz
201048ce g     F .text	0000003e __metal_driver_sifive_gpio0_enable_input
201002a4  w    F .init	00000000 secondary_main
20101d1e  w    F .text	0000002e metal_interrupt_vector_handler
2010517e g     F .text	00000036 __metal_driver_sifive_uart0_rx_interrupt_disable
2010368a g     F .text	0000003a __metal_plic0_get_threshold
20104664 g     F .text	0000002e __metal_driver_sifive_fe310_g000_prci_get_reg
20102c34 g     F .text	000000bc __metal_local_interrupt_enable
20101930 g     F .text	0000013c __metal_driver_riscv_clint0_command_request
20102462  w    F .text	00000096 metal_lc5_interrupt_vector_handler
20101058 g     F .text	00000030 main
80000a38 g       .data	00000000 metal_segment_data_target_end
20105258 g     F .text	0000004a __metal_driver_sifive_uart0_set_rx_watermark
20100eb8 g     O .rodata	00000008 __metal_driver_vtable_sifive_fe310_g000_hfrosc
201032c8 g     F .text	00000062 __metal_driver_cpu_set_sw_ipi
2010338c g     F .text	00000060 __metal_driver_cpu_get_msip
201057d2 g     F .text	0000000e metal_shutdown
80000000 g       .rodata	00000000 metal_segment_itim_target_end
2010349e g     F .text	00000020 __metal_driver_cpu_set_exception_pc
201035c2 g     F .text	0000003c __metal_plic0_claim_interrupt
2010522a g     F .text	0000002e __metal_driver_sifive_uart0_get_tx_watermark
2010287c  w    F .text	00000096 metal_lc12_interrupt_vector_handler
2010008a g     F .init	00000000 metal_mem_scrub
2010175c g     F .text	0000001c __metal_driver_riscv_clint0_get_vector_mode
80000a30 g     O .data	00000004 __metal_dt_prci_10008000
2010314a g     F .text	00000046 __metal_driver_cpu_timebase_get
20103c50 g     F .text	0000009c __metal_driver_riscv_plic0_affinity_disable
20100000 g       .init	00000000 _enter
201057b8 g     F .text	0000001a metal_cpu_get_current_hartid
20103ee2 g     F .text	00000074 __metal_driver_sifive_fe310_g000_hfxosc_get_rate_hz
20105880 g       .text	00000000 __metal_vector_table
20100ed8 g       *ABS*	00000000 metal_segment_itim_source_start
80000a18  w    O .data	00000004 __metal_cpu_table
80000028 g     O .data	000003d0 __metal_dt_cpu_0_interrupt_controller
201002a2 g     F .init	00000002 _fini
80000000 g       .rodata	00000000 metal_segment_lim_target_start
20103726 g     F .text	00000034 __metal_driver_riscv_plic0_get_priority
20100300 g     F .ctors	0000002a use_hfxosc
20101bca g     F .text	00000018 __metal_interrupt_global_enable
20101088 g     F .text	0000000a atexit
20101c2a g     F .text	0000001a __metal_interrupt_timer_enable
20105312 g     F .text	00000056 __metal_driver_sifive_uart0_getc
2010187e g     F .text	000000b2 __metal_driver_riscv_clint0_disable
201031f6 g     F .text	00000076 __metal_driver_cpu_mtimecmp_set
20103b8e g     F .text	00000028 __metal_driver_riscv_plic0_get_threshold
20104084 g     F .text	000000a4 __metal_driver_sifive_fe310_g000_pll_init
80000018 g     O .data	0000000c __metal_dt_clock_5
20104692 g     F .text	00000038 __metal_driver_sifive_fe310_g000_prci_set_reg
20105962 g     F .text	0000001e __metal_driver_fixed_clock_get_rate_hz
201017cc g     F .text	000000b2 __metal_driver_riscv_clint0_enable
201059b8 g       *ABS*	00000000 metal_segment_data_source_start
20100134 g       .init	00000000 early_trap_vector
800016e0 g       .heap	00000000 metal_segment_heap_target_end
20102b2c g     F .text	000000b2 __metal_controller_interrupt_vector
800009fc g     O .data	0000000c __metal_dt_clock_1
800003f8 g     O .data	000005d8 __metal_dt_interrupt_controller_c000000
20104a64 g     F .text	00000046 __metal_driver_sifive_gpio0_output_clear
20101eee g     F .text	00000066 __metal_default_timer_handler
20103814 g     F .text	000000a0 __metal_plic0_handler
201022a0  w    F .text	00000096 metal_lc2_interrupt_vector_handler
20102a3e  w    F .text	00000096 metal_lc15_interrupt_vector_handler
20105764 g     F .text	00000026 metal_cpu_interrupt_controller
20101092 g     F .text	00000028 exit
20105980 g     F .text	00000022 __metal_driver_fixed_clock_set_rate_hz
20100ed8 g       *ABS*	00000000 metal_segment_lim_source_start
80000a2c g     O .data	00000004 __metal_dt_gpio_10012000
20101d06 g     F .text	00000018 __metal_default_interrupt_handler
2010139a  w    F .text	00000014 metal_fini_run
20104950 g     F .text	00000028 __metal_driver_sifive_gpio0_input
20101f80 g     F .text	0000017c __metal_exception_handler
20102176  w    F .text	00000094 metal_lc0_interrupt_vector_handler
201059a2 g     F .text	00000012 _exit
20103190 g     F .text	00000066 __metal_driver_cpu_mtime_get
20101734 g     F .text	00000028 __metal_driver_riscv_clint0_vector_register
201029a8  w    F .text	00000096 metal_lc14_interrupt_vector_handler
20100ec0 g     O .rodata	00000008 __metal_driver_vtable_sifive_fe310_g000_hfxosc
201015d2 g     F .text	00000088 __metal_driver_riscv_clint0_init
201002d4 g     F .ctors	0000002c metal_sifive_fe310_g000_pll_init
20103286 g     F .text	00000014 __metal_driver_cpu_get_timer_interrupt_id
2010375a g     F .text	000000a2 __metal_plic0_enable
20100088  w      .init	00000000 __register_frame_info
20103e66 g     F .text	00000022 __metal_driver_sifive_fe310_g000_hfrosc_set_rate_hz
2010329a g     F .text	0000001a __metal_driver_cpu_sw_controller_interrupt
20101cc2 g     F .text	0000002c __metal_interrupt_local_disable
20101c12 g     F .text	00000018 __metal_interrupt_software_disable
201057e0 g     F .text	0000002c metal_uart_init
800009f0 g     O .data	0000000c __metal_dt_clock_3
20103644 g     F .text	00000046 __metal_plic0_set_threshold
20103bb6 g     F .text	0000009a __metal_driver_riscv_plic0_affinity_enable
20100ec8 g     O .rodata	00000008 __metal_driver_vtable_sifive_fe310_g000_prci
00000000 g       *ABS*	00000000 __metal_boot_hart
20103a04 g     F .text	000000be __metal_driver_riscv_plic0_register



Disassembly of section .init:

20100000 <_enter>:
_enter():
C:/VSD/FreedomStudio-3-1-1-x86_64-w64-mingw32/FreedomStudio-3-1-1/SiFive/freedom-e-sdk-v21.11.00.00/freedom-metal/src/entry.S:31
    auipc a0, %pcrel_hi(__global_pointer__)
    addi a0, a0, %pcrel_lo(1b)
    ld   gp, 0(a0)
    add  gp, gp, a0
#else
    la gp, __global_pointer$
20100000:	5ff01197          	auipc	gp,0x5ff01
20100004:	21818193          	add	gp,gp,536 # 80001218 <__global_pointer$>
C:/VSD/FreedomStudio-3-1-1-x86_64-w64-mingw32/FreedomStudio-3-1-1/SiFive/freedom-e-sdk-v21.11.00.00/freedom-metal/src/entry.S:36
#endif
.option pop

    /* trap over the chicken bit register clearing, aloe & fe310 dont have it */
    la t0, 1f
20100008:	00000297          	auipc	t0,0x0
2010000c:	01828293          	add	t0,t0,24 # 20100020 <_enter+0x20>
C:/VSD/FreedomStudio-3-1-1-x86_64-w64-mingw32/FreedomStudio-3-1-1/SiFive/freedom-e-sdk-v21.11.00.00/freedom-metal/src/entry.S:37
    csrw mtvec, t0
20100010:	30529073          	csrw	mtvec,t0
C:/VSD/FreedomStudio-3-1-1-x86_64-w64-mingw32/FreedomStudio-3-1-1/SiFive/freedom-e-sdk-v21.11.00.00/freedom-metal/src/entry.S:39
    /* chicken bit is enable if core are sifive series. */
    la t0, __metal_chicken_bit
20100014:	00100293          	li	t0,1
C:/VSD/FreedomStudio-3-1-1-x86_64-w64-mingw32/FreedomStudio-3-1-1/SiFive/freedom-e-sdk-v21.11.00.00/freedom-metal/src/entry.S:40
    beqz t0, 1f
20100018:	00028463          	beqz	t0,20100020 <_enter+0x20>
C:/VSD/FreedomStudio-3-1-1-x86_64-w64-mingw32/FreedomStudio-3-1-1/SiFive/freedom-e-sdk-v21.11.00.00/freedom-metal/src/entry.S:42
    /* If set, always clear the feature disable register for all cores series */
    csrwi 0x7C1, 0
2010001c:	7c105073          	csrw	0x7c1,0
C:/VSD/FreedomStudio-3-1-1-x86_64-w64-mingw32/FreedomStudio-3-1-1/SiFive/freedom-e-sdk-v21.11.00.00/freedom-metal/src/entry.S:47
.align 4
1:
    /* Set up a simple trap vector to catch anything that goes wrong early in
     * the boot process. */
    la t0, early_trap_vector
20100020:	00000297          	auipc	t0,0x0
20100024:	11428293          	add	t0,t0,276 # 20100134 <early_trap_vector>
C:/VSD/FreedomStudio-3-1-1-x86_64-w64-mingw32/FreedomStudio-3-1-1/SiFive/freedom-e-sdk-v21.11.00.00/freedom-metal/src/entry.S:48
    csrw mtvec, t0
20100028:	30529073          	csrw	mtvec,t0
C:/VSD/FreedomStudio-3-1-1-x86_64-w64-mingw32/FreedomStudio-3-1-1/SiFive/freedom-e-sdk-v21.11.00.00/freedom-metal/src/entry.S:56
     * C, so here we set up a C environment. First we set up a stack pointer,
     * which is left as a weak reference in order to allow initialization
     * routines that do not need a stack to be set up to transparently be
     * called. */
    .weak __metal_stack_pointer
    la sp, __metal_stack_pointer
2010002c:	00000113          	li	sp,0
C:/VSD/FreedomStudio-3-1-1-x86_64-w64-mingw32/FreedomStudio-3-1-1/SiFive/freedom-e-sdk-v21.11.00.00/freedom-metal/src/entry.S:63
   /* The METAL is designed for a bare-metal environment and therefore is expected
    * to define its own stack pointer. We also align the stack pointer here
    * because the only RISC-V ABI that's currently defined, mandates 16-byte
    * stack alignment. */

    bne sp, zero, 1f
20100030:	00011463          	bnez	sp,20100038 <_enter+0x38>
C:/VSD/FreedomStudio-3-1-1-x86_64-w64-mingw32/FreedomStudio-3-1-1/SiFive/freedom-e-sdk-v21.11.00.00/freedom-metal/src/entry.S:67
#ifdef __riscv_cmodel_compact
    lla.gprel sp, _sp
#else
    la sp, _sp
20100034:	cc818113          	add	sp,gp,-824 # 80000ee0 <_sp>
C:/VSD/FreedomStudio-3-1-1-x86_64-w64-mingw32/FreedomStudio-3-1-1/SiFive/freedom-e-sdk-v21.11.00.00/freedom-metal/src/entry.S:71
#endif
1:
    /* Increment by hartid number of stack sizes */
    csrr a0, mhartid
20100038:	f1402573          	csrr	a0,mhartid
C:/VSD/FreedomStudio-3-1-1-x86_64-w64-mingw32/FreedomStudio-3-1-1/SiFive/freedom-e-sdk-v21.11.00.00/freedom-metal/src/entry.S:72
    li t0, 0
2010003c:	4281                	li	t0,0
C:/VSD/FreedomStudio-3-1-1-x86_64-w64-mingw32/FreedomStudio-3-1-1/SiFive/freedom-e-sdk-v21.11.00.00/freedom-metal/src/entry.S:73
    la t1, __stack_size
2010003e:	40000313          	li	t1,1024
C:/VSD/FreedomStudio-3-1-1-x86_64-w64-mingw32/FreedomStudio-3-1-1/SiFive/freedom-e-sdk-v21.11.00.00/freedom-metal/src/entry.S:75
1:
    andi sp, sp, -16
20100042:	ff017113          	and	sp,sp,-16
C:/VSD/FreedomStudio-3-1-1-x86_64-w64-mingw32/FreedomStudio-3-1-1/SiFive/freedom-e-sdk-v21.11.00.00/freedom-metal/src/entry.S:76
    beq t0, a0, 1f
20100046:	00a28563          	beq	t0,a0,20100050 <_enter+0x50>
C:/VSD/FreedomStudio-3-1-1-x86_64-w64-mingw32/FreedomStudio-3-1-1/SiFive/freedom-e-sdk-v21.11.00.00/freedom-metal/src/entry.S:77
    add sp, sp, t1
2010004a:	911a                	add	sp,sp,t1
C:/VSD/FreedomStudio-3-1-1-x86_64-w64-mingw32/FreedomStudio-3-1-1/SiFive/freedom-e-sdk-v21.11.00.00/freedom-metal/src/entry.S:78
    addi t0, t0, 1
2010004c:	0285                	add	t0,t0,1
C:/VSD/FreedomStudio-3-1-1-x86_64-w64-mingw32/FreedomStudio-3-1-1/SiFive/freedom-e-sdk-v21.11.00.00/freedom-metal/src/entry.S:79
    j 1b
2010004e:	bfd5                	j	20100042 <_enter+0x42>
C:/VSD/FreedomStudio-3-1-1-x86_64-w64-mingw32/FreedomStudio-3-1-1/SiFive/freedom-e-sdk-v21.11.00.00/freedom-metal/src/entry.S:88
     * just skip over the call entirely.   Note that __metal_initialize isn't
     * actually a full C function, as it doesn't end up with the .bss or .data
     * segments having been initialized.  This is done to avoid putting a
     * burden on systems that can be initialized without having a C environment
     * set up. */
    la ra, __metal_before_start
20100050:	00000097          	auipc	ra,0x0
20100054:	07c08093          	add	ra,ra,124 # 201000cc <__metal_before_start>
C:/VSD/FreedomStudio-3-1-1-x86_64-w64-mingw32/FreedomStudio-3-1-1/SiFive/freedom-e-sdk-v21.11.00.00/freedom-metal/src/entry.S:89
    beqz ra, 1f
20100058:	00008363          	beqz	ra,2010005e <_enter+0x5e>
C:/VSD/FreedomStudio-3-1-1-x86_64-w64-mingw32/FreedomStudio-3-1-1/SiFive/freedom-e-sdk-v21.11.00.00/freedom-metal/src/entry.S:90
    jalr ra
2010005c:	9082                	jalr	ra
C:/VSD/FreedomStudio-3-1-1-x86_64-w64-mingw32/FreedomStudio-3-1-1/SiFive/freedom-e-sdk-v21.11.00.00/freedom-metal/src/entry.S:96
1:

    /* At this point we can enter the C runtime's startup file.  The arguments
     * to this function are designed to match those provided to the SEE, just
     * so we don't have to write another ABI. */
    csrr a0, mhartid
2010005e:	f1402573          	csrr	a0,mhartid
C:/VSD/FreedomStudio-3-1-1-x86_64-w64-mingw32/FreedomStudio-3-1-1/SiFive/freedom-e-sdk-v21.11.00.00/freedom-metal/src/entry.S:97
    li a1, 0
20100062:	4581                	li	a1,0
C:/VSD/FreedomStudio-3-1-1-x86_64-w64-mingw32/FreedomStudio-3-1-1/SiFive/freedom-e-sdk-v21.11.00.00/freedom-metal/src/entry.S:98
    li a2, 0
20100064:	4601                	li	a2,0
C:/VSD/FreedomStudio-3-1-1-x86_64-w64-mingw32/FreedomStudio-3-1-1/SiFive/freedom-e-sdk-v21.11.00.00/freedom-metal/src/entry.S:99
    call _start
20100066:	20ed                	jal	20100150 <_start>
C:/VSD/FreedomStudio-3-1-1-x86_64-w64-mingw32/FreedomStudio-3-1-1/SiFive/freedom-e-sdk-v21.11.00.00/freedom-metal/src/entry.S:104

    /* If we've made it back here then there's probably something wrong.  We
     * allow the METAL to register a handler here. */
    .weak __metal_after_main
    la ra, __metal_after_main
20100068:	00000093          	li	ra,0
C:/VSD/FreedomStudio-3-1-1-x86_64-w64-mingw32/FreedomStudio-3-1-1/SiFive/freedom-e-sdk-v21.11.00.00/freedom-metal/src/entry.S:105
    beqz ra, 1f
2010006c:	00008363          	beqz	ra,20100072 <_enter+0x72>
C:/VSD/FreedomStudio-3-1-1-x86_64-w64-mingw32/FreedomStudio-3-1-1/SiFive/freedom-e-sdk-v21.11.00.00/freedom-metal/src/entry.S:106
    jalr ra
20100070:	9082                	jalr	ra
C:/VSD/FreedomStudio-3-1-1-x86_64-w64-mingw32/FreedomStudio-3-1-1/SiFive/freedom-e-sdk-v21.11.00.00/freedom-metal/src/entry.S:111
1:

    /* If that handler returns then there's not a whole lot we can do.  Just
     * try to make some noise. */
     la t0, 1f
20100072:	00000297          	auipc	t0,0x0
20100076:	00c28293          	add	t0,t0,12 # 2010007e <_enter+0x7e>
C:/VSD/FreedomStudio-3-1-1-x86_64-w64-mingw32/FreedomStudio-3-1-1/SiFive/freedom-e-sdk-v21.11.00.00/freedom-metal/src/entry.S:112
     csrw mtvec, t0
2010007a:	30529073          	csrw	mtvec,t0
C:/VSD/FreedomStudio-3-1-1-x86_64-w64-mingw32/FreedomStudio-3-1-1/SiFive/freedom-e-sdk-v21.11.00.00/freedom-metal/src/entry.S:114
1:
     lw t1, 0(x0)
2010007e:	00002303          	lw	t1,0(zero) # 0 <__metal_boot_hart>
C:/VSD/FreedomStudio-3-1-1-x86_64-w64-mingw32/FreedomStudio-3-1-1/SiFive/freedom-e-sdk-v21.11.00.00/freedom-metal/src/entry.S:115
     j 1b
20100082:	bff5                	j	2010007e <_enter+0x7e>
20100084:	0000                	unimp
	...

20100088 <__register_frame_info>:
__register_frame_info():
C:/VSD/FreedomStudio-3-1-1-x86_64-w64-mingw32/FreedomStudio-3-1-1/SiFive/freedom-e-sdk-v21.11.00.00/freedom-metal/src/entry.S:128
 * going to leave this in for now.  At least it's fairly cheap :) */
.weak __register_frame_info
.section .text.metal.init.__register_frame_info
__register_frame_info:
    .cfi_startproc
    ret
20100088:	8082                	ret

2010008a <metal_mem_scrub>:
metal_mem_scrub():
C:/VSD/FreedomStudio-3-1-1-x86_64-w64-mingw32/FreedomStudio-3-1-1/SiFive/freedom-e-sdk-v21.11.00.00/freedom-metal/src/scrub.S:24
.type metal_mem_scrub, @function
metal_mem_scrub:

    /* Disable machine interrupts,
    restore previous mstatus value at exit */
    li      a3, 8
2010008a:	46a1                	li	a3,8
C:/VSD/FreedomStudio-3-1-1-x86_64-w64-mingw32/FreedomStudio-3-1-1/SiFive/freedom-e-sdk-v21.11.00.00/freedom-metal/src/scrub.S:25
    csrrc   t1, mstatus, a3
2010008c:	3006b373          	csrrc	t1,mstatus,a3
C:/VSD/FreedomStudio-3-1-1-x86_64-w64-mingw32/FreedomStudio-3-1-1/SiFive/freedom-e-sdk-v21.11.00.00/freedom-metal/src/scrub.S:28

#if __riscv_xlen == 32
    addi    t0, x0, 4
20100090:	4291                	li	t0,4
C:/VSD/FreedomStudio-3-1-1-x86_64-w64-mingw32/FreedomStudio-3-1-1/SiFive/freedom-e-sdk-v21.11.00.00/freedom-metal/src/scrub.S:30
1:
    blt     a1, t0, 2f
20100092:	0055c563          	blt	a1,t0,2010009c <metal_mem_scrub+0x12>
C:/VSD/FreedomStudio-3-1-1-x86_64-w64-mingw32/FreedomStudio-3-1-1/SiFive/freedom-e-sdk-v21.11.00.00/freedom-metal/src/scrub.S:31
    andi    a2, a0, 3
20100096:	00357613          	and	a2,a0,3
C:/VSD/FreedomStudio-3-1-1-x86_64-w64-mingw32/FreedomStudio-3-1-1/SiFive/freedom-e-sdk-v21.11.00.00/freedom-metal/src/scrub.S:32
    beqz    a2, 3f
2010009a:	ca11                	beqz	a2,201000ae <metal_mem_scrub+0x24>
C:/VSD/FreedomStudio-3-1-1-x86_64-w64-mingw32/FreedomStudio-3-1-1/SiFive/freedom-e-sdk-v21.11.00.00/freedom-metal/src/scrub.S:34
2:
    sb      x0, 0(a0)
2010009c:	00050023          	sb	zero,0(a0)
C:/VSD/FreedomStudio-3-1-1-x86_64-w64-mingw32/FreedomStudio-3-1-1/SiFive/freedom-e-sdk-v21.11.00.00/freedom-metal/src/scrub.S:35
    addi    a0, a0, 1
201000a0:	0505                	add	a0,a0,1
C:/VSD/FreedomStudio-3-1-1-x86_64-w64-mingw32/FreedomStudio-3-1-1/SiFive/freedom-e-sdk-v21.11.00.00/freedom-metal/src/scrub.S:36
    addi    a1, a1, -1
201000a2:	15fd                	add	a1,a1,-1
C:/VSD/FreedomStudio-3-1-1-x86_64-w64-mingw32/FreedomStudio-3-1-1/SiFive/freedom-e-sdk-v21.11.00.00/freedom-metal/src/scrub.S:37
    bgtz    a1, 1b
201000a4:	feb047e3          	bgtz	a1,20100092 <metal_mem_scrub+0x8>
C:/VSD/FreedomStudio-3-1-1-x86_64-w64-mingw32/FreedomStudio-3-1-1/SiFive/freedom-e-sdk-v21.11.00.00/freedom-metal/src/scrub.S:38
    csrw    mstatus, t1
201000a8:	30031073          	csrw	mstatus,t1
C:/VSD/FreedomStudio-3-1-1-x86_64-w64-mingw32/FreedomStudio-3-1-1/SiFive/freedom-e-sdk-v21.11.00.00/freedom-metal/src/scrub.S:39
    ret
201000ac:	8082                	ret
C:/VSD/FreedomStudio-3-1-1-x86_64-w64-mingw32/FreedomStudio-3-1-1/SiFive/freedom-e-sdk-v21.11.00.00/freedom-metal/src/scrub.S:41
3:
    sw      x0, 0(a0)
201000ae:	00052023          	sw	zero,0(a0)
C:/VSD/FreedomStudio-3-1-1-x86_64-w64-mingw32/FreedomStudio-3-1-1/SiFive/freedom-e-sdk-v21.11.00.00/freedom-metal/src/scrub.S:42
    addi    a0, a0, 4
201000b2:	0511                	add	a0,a0,4
C:/VSD/FreedomStudio-3-1-1-x86_64-w64-mingw32/FreedomStudio-3-1-1/SiFive/freedom-e-sdk-v21.11.00.00/freedom-metal/src/scrub.S:43
    addi    a1, a1, -4
201000b4:	15f1                	add	a1,a1,-4
C:/VSD/FreedomStudio-3-1-1-x86_64-w64-mingw32/FreedomStudio-3-1-1/SiFive/freedom-e-sdk-v21.11.00.00/freedom-metal/src/scrub.S:44
    bgtz    a1, 1b
201000b6:	fcb04ee3          	bgtz	a1,20100092 <metal_mem_scrub+0x8>
C:/VSD/FreedomStudio-3-1-1-x86_64-w64-mingw32/FreedomStudio-3-1-1/SiFive/freedom-e-sdk-v21.11.00.00/freedom-metal/src/scrub.S:45
    csrw    mstatus, t1
201000ba:	30031073          	csrw	mstatus,t1
C:/VSD/FreedomStudio-3-1-1-x86_64-w64-mingw32/FreedomStudio-3-1-1/SiFive/freedom-e-sdk-v21.11.00.00/freedom-metal/src/scrub.S:46
    ret
201000be:	8082                	ret

201000c0 <__metal_memory_scrub>:
__metal_memory_scrub():
C:/VSD/FreedomStudio-3-1-1-x86_64-w64-mingw32/FreedomStudio-3-1-1/SiFive/freedom-e-sdk-v21.11.00.00/freedom-metal/src/scrub.S:74
.type __metal_memory_scrub, @function
__metal_memory_scrub:
/* Zero out specified memory regions */
1:
#if __riscv_xlen == 32
    sw      x0, 0(t1)
201000c0:	00032023          	sw	zero,0(t1)
C:/VSD/FreedomStudio-3-1-1-x86_64-w64-mingw32/FreedomStudio-3-1-1/SiFive/freedom-e-sdk-v21.11.00.00/freedom-metal/src/scrub.S:75
    addi    t1, t1, 4
201000c4:	0311                	add	t1,t1,4
C:/VSD/FreedomStudio-3-1-1-x86_64-w64-mingw32/FreedomStudio-3-1-1/SiFive/freedom-e-sdk-v21.11.00.00/freedom-metal/src/scrub.S:76
    blt     t1, t2, 1b
201000c6:	fe734de3          	blt	t1,t2,201000c0 <__metal_memory_scrub>
C:/VSD/FreedomStudio-3-1-1-x86_64-w64-mingw32/FreedomStudio-3-1-1/SiFive/freedom-e-sdk-v21.11.00.00/freedom-metal/src/scrub.S:82
#else
    sd      x0, 0(t1)
    addi    t1, t1, 8
    blt     t1, t2, 1b
#endif
    ret
201000ca:	8082                	ret

201000cc <__metal_before_start>:
__metal_before_start():
C:/VSD/FreedomStudio-3-1-1-x86_64-w64-mingw32/FreedomStudio-3-1-1/SiFive/freedom-e-sdk-v21.11.00.00/freedom-metal/src/scrub.S:93
.weak __metal_eccscrub_bit
.weak __metal_before_start
.type __metal_before_start, @function
__metal_before_start:
    /* Save caller ra */
    mv      s0, ra
201000cc:	8406                	mv	s0,ra
C:/VSD/FreedomStudio-3-1-1-x86_64-w64-mingw32/FreedomStudio-3-1-1/SiFive/freedom-e-sdk-v21.11.00.00/freedom-metal/src/scrub.S:95

    la      t0, __metal_eccscrub_bit
201000ce:	dff00297          	auipc	t0,0xdff00
201000d2:	f3228293          	add	t0,t0,-206 # 0 <__metal_boot_hart>
C:/VSD/FreedomStudio-3-1-1-x86_64-w64-mingw32/FreedomStudio-3-1-1/SiFive/freedom-e-sdk-v21.11.00.00/freedom-metal/src/scrub.S:96
    beqz    t0, skip_scrub
201000d6:	04028c63          	beqz	t0,2010012e <skip_scrub>
C:/VSD/FreedomStudio-3-1-1-x86_64-w64-mingw32/FreedomStudio-3-1-1/SiFive/freedom-e-sdk-v21.11.00.00/freedom-metal/src/scrub.S:98

    la      t0, __metal_boot_hart
201000da:	dff00297          	auipc	t0,0xdff00
201000de:	f2628293          	add	t0,t0,-218 # 0 <__metal_boot_hart>
C:/VSD/FreedomStudio-3-1-1-x86_64-w64-mingw32/FreedomStudio-3-1-1/SiFive/freedom-e-sdk-v21.11.00.00/freedom-metal/src/scrub.S:99
    csrr    a5, mhartid
201000e2:	f14027f3          	csrr	a5,mhartid
C:/VSD/FreedomStudio-3-1-1-x86_64-w64-mingw32/FreedomStudio-3-1-1/SiFive/freedom-e-sdk-v21.11.00.00/freedom-metal/src/scrub.S:102

    /* Disable machine interrupts to be safe */
    li      a3, 8
201000e6:	46a1                	li	a3,8
C:/VSD/FreedomStudio-3-1-1-x86_64-w64-mingw32/FreedomStudio-3-1-1/SiFive/freedom-e-sdk-v21.11.00.00/freedom-metal/src/scrub.S:103
    csrc    mstatus, a3
201000e8:	3006b073          	csrc	mstatus,a3
C:/VSD/FreedomStudio-3-1-1-x86_64-w64-mingw32/FreedomStudio-3-1-1/SiFive/freedom-e-sdk-v21.11.00.00/freedom-metal/src/scrub.S:106

    /* Zero out per hart stack */
    mv      t1, sp
201000ec:	830a                	mv	t1,sp
C:/VSD/FreedomStudio-3-1-1-x86_64-w64-mingw32/FreedomStudio-3-1-1/SiFive/freedom-e-sdk-v21.11.00.00/freedom-metal/src/scrub.S:107
    la      t2, __stack_size
201000ee:	dff00397          	auipc	t2,0xdff00
201000f2:	31238393          	add	t2,t2,786 # 400 <__stack_size>
C:/VSD/FreedomStudio-3-1-1-x86_64-w64-mingw32/FreedomStudio-3-1-1/SiFive/freedom-e-sdk-v21.11.00.00/freedom-metal/src/scrub.S:108
    add     t2, t2, sp
201000f6:	938a                	add	t2,t2,sp
C:/VSD/FreedomStudio-3-1-1-x86_64-w64-mingw32/FreedomStudio-3-1-1/SiFive/freedom-e-sdk-v21.11.00.00/freedom-metal/src/scrub.S:109
    beq     t1, t2, 1f
201000f8:	00730363          	beq	t1,t2,201000fe <__metal_before_start+0x32>
C:/VSD/FreedomStudio-3-1-1-x86_64-w64-mingw32/FreedomStudio-3-1-1/SiFive/freedom-e-sdk-v21.11.00.00/freedom-metal/src/scrub.S:110
    jal     __metal_memory_scrub
201000fc:	37d1                	jal	201000c0 <__metal_memory_scrub>
C:/VSD/FreedomStudio-3-1-1-x86_64-w64-mingw32/FreedomStudio-3-1-1/SiFive/freedom-e-sdk-v21.11.00.00/freedom-metal/src/scrub.S:112
1:
    bne     a5, t0, skip_scrub
201000fe:	02579863          	bne	a5,t0,2010012e <skip_scrub>
C:/VSD/FreedomStudio-3-1-1-x86_64-w64-mingw32/FreedomStudio-3-1-1/SiFive/freedom-e-sdk-v21.11.00.00/freedom-metal/src/scrub.S:119
    /* Zero out data segment */
#ifdef __riscv_cmodel_compact
    lla.gprel t1, metal_segment_data_target_start
    lla.gprel t2, metal_segment_data_target_end
#else
    la      t1, metal_segment_data_target_start
20100102:	5ff00317          	auipc	t1,0x5ff00
20100106:	efe30313          	add	t1,t1,-258 # 80000000 <__metal_dt_clock_0>
C:/VSD/FreedomStudio-3-1-1-x86_64-w64-mingw32/FreedomStudio-3-1-1/SiFive/freedom-e-sdk-v21.11.00.00/freedom-metal/src/scrub.S:120
    la      t2, metal_segment_data_target_end
2010010a:	5ff01397          	auipc	t2,0x5ff01
2010010e:	92e38393          	add	t2,t2,-1746 # 80000a38 <__stdio_exit_handler>
C:/VSD/FreedomStudio-3-1-1-x86_64-w64-mingw32/FreedomStudio-3-1-1/SiFive/freedom-e-sdk-v21.11.00.00/freedom-metal/src/scrub.S:122
#endif
    beq     t1, t2, 1f
20100112:	00730363          	beq	t1,t2,20100118 <__metal_before_start+0x4c>
C:/VSD/FreedomStudio-3-1-1-x86_64-w64-mingw32/FreedomStudio-3-1-1/SiFive/freedom-e-sdk-v21.11.00.00/freedom-metal/src/scrub.S:123
    jal     __metal_memory_scrub
20100116:	376d                	jal	201000c0 <__metal_memory_scrub>
C:/VSD/FreedomStudio-3-1-1-x86_64-w64-mingw32/FreedomStudio-3-1-1/SiFive/freedom-e-sdk-v21.11.00.00/freedom-metal/src/scrub.S:130
    /* Zero out itim memory */
#ifdef __riscv_cmodel_compact
    la.got.gprel t1, metal_segment_itim_target_start
    la.got.gprel t2, metal_segment_itim_target_end
#else
    la      t1, metal_segment_itim_target_start
20100118:	5ff00317          	auipc	t1,0x5ff00
2010011c:	ee830313          	add	t1,t1,-280 # 80000000 <__metal_dt_clock_0>
C:/VSD/FreedomStudio-3-1-1-x86_64-w64-mingw32/FreedomStudio-3-1-1/SiFive/freedom-e-sdk-v21.11.00.00/freedom-metal/src/scrub.S:131
    la      t2, metal_segment_itim_target_end
20100120:	5ff00397          	auipc	t2,0x5ff00
20100124:	ee038393          	add	t2,t2,-288 # 80000000 <__metal_dt_clock_0>
C:/VSD/FreedomStudio-3-1-1-x86_64-w64-mingw32/FreedomStudio-3-1-1/SiFive/freedom-e-sdk-v21.11.00.00/freedom-metal/src/scrub.S:133
#endif
    beq     t1, t2, skip_scrub
20100128:	00730363          	beq	t1,t2,2010012e <skip_scrub>
C:/VSD/FreedomStudio-3-1-1-x86_64-w64-mingw32/FreedomStudio-3-1-1/SiFive/freedom-e-sdk-v21.11.00.00/freedom-metal/src/scrub.S:134
    jal     __metal_memory_scrub
2010012c:	3f51                	jal	201000c0 <__metal_memory_scrub>

2010012e <skip_scrub>:
skip_scrub():
C:/VSD/FreedomStudio-3-1-1-x86_64-w64-mingw32/FreedomStudio-3-1-1/SiFive/freedom-e-sdk-v21.11.00.00/freedom-metal/src/scrub.S:138

skip_scrub:
    /* Restore caller ra */
    mv      ra, s0
2010012e:	80a2                	mv	ra,s0
C:/VSD/FreedomStudio-3-1-1-x86_64-w64-mingw32/FreedomStudio-3-1-1/SiFive/freedom-e-sdk-v21.11.00.00/freedom-metal/src/scrub.S:139
    ret
20100130:	8082                	ret
	...

20100134 <early_trap_vector>:
early_trap_vector():
C:/VSD/FreedomStudio-3-1-1-x86_64-w64-mingw32/FreedomStudio-3-1-1/SiFive/freedom-e-sdk-v21.11.00.00/freedom-metal/src/trap.S:64
.section .text.metal.init.trapvec
.global early_trap_vector
.align 2
early_trap_vector:
    .cfi_startproc
    csrr t0, mcause
20100134:	342022f3          	csrr	t0,mcause
C:/VSD/FreedomStudio-3-1-1-x86_64-w64-mingw32/FreedomStudio-3-1-1/SiFive/freedom-e-sdk-v21.11.00.00/freedom-metal/src/trap.S:65
    csrr t1, mepc
20100138:	34102373          	csrr	t1,mepc
C:/VSD/FreedomStudio-3-1-1-x86_64-w64-mingw32/FreedomStudio-3-1-1/SiFive/freedom-e-sdk-v21.11.00.00/freedom-metal/src/trap.S:66
    csrr t2, mtval
2010013c:	343023f3          	csrr	t2,mtval
C:/VSD/FreedomStudio-3-1-1-x86_64-w64-mingw32/FreedomStudio-3-1-1/SiFive/freedom-e-sdk-v21.11.00.00/freedom-metal/src/trap.S:67
    j early_trap_vector
20100140:	bfd5                	j	20100134 <early_trap_vector>

20100142 <__metal_synchronize_harts>:
__metal_synchronize_harts():
C:/VSD/FreedomStudio-3-1-1-x86_64-w64-mingw32/FreedomStudio-3-1-1/SiFive/freedom-e-sdk-v21.11.00.00/freedom-metal/src/synchronize_harts.c:19
/*
 * _synchronize_harts() is called by crt0.S to cause harts > 0 to wait for
 * hart 0 to finish copying the datat section, zeroing the BSS, and running
 * the libc contstructors.
 */
__attribute__((section(".init"))) void __metal_synchronize_harts() {
20100142:	1141                	add	sp,sp,-16
20100144:	c622                	sw	s0,12(sp)
20100146:	0800                	add	s0,sp,16
C:/VSD/FreedomStudio-3-1-1-x86_64-w64-mingw32/FreedomStudio-3-1-1/SiFive/freedom-e-sdk-v21.11.00.00/freedom-metal/src/synchronize_harts.c:66
        while (METAL_MSIP(msip_base, hart) == 1)
            ;
    }

#endif /* __METAL_DT_MAX_HARTS > 1 */
}
20100148:	0001                	nop
2010014a:	4432                	lw	s0,12(sp)
2010014c:	0141                	add	sp,sp,16
2010014e:	8082                	ret

20100150 <_start>:
_start():
C:/VSD/FreedomStudio-3-1-1-x86_64-w64-mingw32/FreedomStudio-3-1-1/SiFive/freedom-e-sdk-v21.11.00.00/freedom-metal/gloss/crt0.S:36
.cfi_startproc
.cfi_undefined ra

  /* This is a bit funky: it's not usually sane for _start to return, but in
   * this case we actually want to in order to signal an error to the METAL. */
  mv s0, ra
20100150:	8406                	mv	s0,ra
C:/VSD/FreedomStudio-3-1-1-x86_64-w64-mingw32/FreedomStudio-3-1-1/SiFive/freedom-e-sdk-v21.11.00.00/freedom-metal/gloss/crt0.S:51
  auipc a0, %pcrel_hi(__global_pointer__)
  addi a0, a0, %pcrel_lo(1b)
  ld   gp, 0(a0)
  add  gp, gp, a0
#else
  la gp, __global_pointer$
20100152:	5ff01197          	auipc	gp,0x5ff01
20100156:	0c618193          	add	gp,gp,198 # 80001218 <__global_pointer$>
C:/VSD/FreedomStudio-3-1-1-x86_64-w64-mingw32/FreedomStudio-3-1-1/SiFive/freedom-e-sdk-v21.11.00.00/freedom-metal/gloss/crt0.S:58
.option pop

  /* Stack pointer is expected to be initialized before _start */

  /* If we're not hart 0, skip the initialization work */
  la t0, __metal_boot_hart
2010015a:	00000293          	li	t0,0
C:/VSD/FreedomStudio-3-1-1-x86_64-w64-mingw32/FreedomStudio-3-1-1/SiFive/freedom-e-sdk-v21.11.00.00/freedom-metal/gloss/crt0.S:59
  bne a0, t0, _skip_init
2010015e:	0e551163          	bne	a0,t0,20100240 <_skip_init>
C:/VSD/FreedomStudio-3-1-1-x86_64-w64-mingw32/FreedomStudio-3-1-1/SiFive/freedom-e-sdk-v21.11.00.00/freedom-metal/gloss/crt0.S:73
#ifdef __riscv_cmodel_compact
  la.got.gprel t0, metal_segment_data_source_start
  lla.gprel t1, metal_segment_data_target_start
  lla.gprel t2, metal_segment_data_target_end
#else
  la t0, metal_segment_data_source_start
20100162:	00006297          	auipc	t0,0x6
20100166:	85628293          	add	t0,t0,-1962 # 201059b8 <metal_segment_data_source_start>
C:/VSD/FreedomStudio-3-1-1-x86_64-w64-mingw32/FreedomStudio-3-1-1/SiFive/freedom-e-sdk-v21.11.00.00/freedom-metal/gloss/crt0.S:74
  la t1, metal_segment_data_target_start
2010016a:	5ff00317          	auipc	t1,0x5ff00
2010016e:	e9630313          	add	t1,t1,-362 # 80000000 <__metal_dt_clock_0>
C:/VSD/FreedomStudio-3-1-1-x86_64-w64-mingw32/FreedomStudio-3-1-1/SiFive/freedom-e-sdk-v21.11.00.00/freedom-metal/gloss/crt0.S:75
  la t2, metal_segment_data_target_end
20100172:	5ff01397          	auipc	t2,0x5ff01
20100176:	8c638393          	add	t2,t2,-1850 # 80000a38 <__stdio_exit_handler>
C:/VSD/FreedomStudio-3-1-1-x86_64-w64-mingw32/FreedomStudio-3-1-1/SiFive/freedom-e-sdk-v21.11.00.00/freedom-metal/gloss/crt0.S:78
#endif

  beq t0, t1, 2f
2010017a:	00628c63          	beq	t0,t1,20100192 <_start+0x42>
C:/VSD/FreedomStudio-3-1-1-x86_64-w64-mingw32/FreedomStudio-3-1-1/SiFive/freedom-e-sdk-v21.11.00.00/freedom-metal/gloss/crt0.S:79
  bge t1, t2, 2f
2010017e:	00735a63          	bge	t1,t2,20100192 <_start+0x42>
C:/VSD/FreedomStudio-3-1-1-x86_64-w64-mingw32/FreedomStudio-3-1-1/SiFive/freedom-e-sdk-v21.11.00.00/freedom-metal/gloss/crt0.S:83

1:
#if __riscv_xlen == 32
  lw   a0, 0(t0)
20100182:	0002a503          	lw	a0,0(t0)
C:/VSD/FreedomStudio-3-1-1-x86_64-w64-mingw32/FreedomStudio-3-1-1/SiFive/freedom-e-sdk-v21.11.00.00/freedom-metal/gloss/crt0.S:84
  addi t0, t0, 4
20100186:	0291                	add	t0,t0,4
C:/VSD/FreedomStudio-3-1-1-x86_64-w64-mingw32/FreedomStudio-3-1-1/SiFive/freedom-e-sdk-v21.11.00.00/freedom-metal/gloss/crt0.S:85
  sw   a0, 0(t1)
20100188:	00a32023          	sw	a0,0(t1)
C:/VSD/FreedomStudio-3-1-1-x86_64-w64-mingw32/FreedomStudio-3-1-1/SiFive/freedom-e-sdk-v21.11.00.00/freedom-metal/gloss/crt0.S:86
  addi t1, t1, 4
2010018c:	0311                	add	t1,t1,4
C:/VSD/FreedomStudio-3-1-1-x86_64-w64-mingw32/FreedomStudio-3-1-1/SiFive/freedom-e-sdk-v21.11.00.00/freedom-metal/gloss/crt0.S:87
  blt  t1, t2, 1b
2010018e:	fe734ae3          	blt	t1,t2,20100182 <_start+0x32>
C:/VSD/FreedomStudio-3-1-1-x86_64-w64-mingw32/FreedomStudio-3-1-1/SiFive/freedom-e-sdk-v21.11.00.00/freedom-metal/gloss/crt0.S:103
#ifdef __riscv_cmodel_compact
  la.got.gprel t0, metal_segment_itim_source_start
  la.got.gprel t1, metal_segment_itim_target_start
  la.got.gprel t2, metal_segment_itim_target_end
#else
  la t0, metal_segment_itim_source_start
20100192:	00001297          	auipc	t0,0x1
20100196:	d4628293          	add	t0,t0,-698 # 20100ed8 <metal_segment_itim_source_start>
C:/VSD/FreedomStudio-3-1-1-x86_64-w64-mingw32/FreedomStudio-3-1-1/SiFive/freedom-e-sdk-v21.11.00.00/freedom-metal/gloss/crt0.S:104
  la t1, metal_segment_itim_target_start
2010019a:	5ff00317          	auipc	t1,0x5ff00
2010019e:	e6630313          	add	t1,t1,-410 # 80000000 <__metal_dt_clock_0>
C:/VSD/FreedomStudio-3-1-1-x86_64-w64-mingw32/FreedomStudio-3-1-1/SiFive/freedom-e-sdk-v21.11.00.00/freedom-metal/gloss/crt0.S:105
  la t2, metal_segment_itim_target_end
201001a2:	5ff00397          	auipc	t2,0x5ff00
201001a6:	e5e38393          	add	t2,t2,-418 # 80000000 <__metal_dt_clock_0>
C:/VSD/FreedomStudio-3-1-1-x86_64-w64-mingw32/FreedomStudio-3-1-1/SiFive/freedom-e-sdk-v21.11.00.00/freedom-metal/gloss/crt0.S:108
#endif

  beq t0, t1, 2f
201001aa:	00628c63          	beq	t0,t1,201001c2 <_start+0x72>
C:/VSD/FreedomStudio-3-1-1-x86_64-w64-mingw32/FreedomStudio-3-1-1/SiFive/freedom-e-sdk-v21.11.00.00/freedom-metal/gloss/crt0.S:109
  bge t1, t2, 2f
201001ae:	00735a63          	bge	t1,t2,201001c2 <_start+0x72>
C:/VSD/FreedomStudio-3-1-1-x86_64-w64-mingw32/FreedomStudio-3-1-1/SiFive/freedom-e-sdk-v21.11.00.00/freedom-metal/gloss/crt0.S:113

1:
#if __riscv_xlen == 32
  lw   a0, 0(t0)
201001b2:	0002a503          	lw	a0,0(t0)
C:/VSD/FreedomStudio-3-1-1-x86_64-w64-mingw32/FreedomStudio-3-1-1/SiFive/freedom-e-sdk-v21.11.00.00/freedom-metal/gloss/crt0.S:114
  addi t0, t0, 4
201001b6:	0291                	add	t0,t0,4
C:/VSD/FreedomStudio-3-1-1-x86_64-w64-mingw32/FreedomStudio-3-1-1/SiFive/freedom-e-sdk-v21.11.00.00/freedom-metal/gloss/crt0.S:115
  sw   a0, 0(t1)
201001b8:	00a32023          	sw	a0,0(t1)
C:/VSD/FreedomStudio-3-1-1-x86_64-w64-mingw32/FreedomStudio-3-1-1/SiFive/freedom-e-sdk-v21.11.00.00/freedom-metal/gloss/crt0.S:116
  addi t1, t1, 4
201001bc:	0311                	add	t1,t1,4
C:/VSD/FreedomStudio-3-1-1-x86_64-w64-mingw32/FreedomStudio-3-1-1/SiFive/freedom-e-sdk-v21.11.00.00/freedom-metal/gloss/crt0.S:117
  blt  t1, t2, 1b
201001be:	fe734ae3          	blt	t1,t2,201001b2 <_start+0x62>
C:/VSD/FreedomStudio-3-1-1-x86_64-w64-mingw32/FreedomStudio-3-1-1/SiFive/freedom-e-sdk-v21.11.00.00/freedom-metal/gloss/crt0.S:129
#endif
2:

  /* Fence all subsequent instruction fetches until after the ITIM writes
     complete */
  fence.i
201001c2:	0000100f          	fence.i
C:/VSD/FreedomStudio-3-1-1-x86_64-w64-mingw32/FreedomStudio-3-1-1/SiFive/freedom-e-sdk-v21.11.00.00/freedom-metal/gloss/crt0.S:139
#ifdef __riscv_cmodel_compact
  la.got.gprel t0, metal_segment_lim_source_start
  lla.gprel t1, metal_segment_lim_target_start
  lla.gprel t2, metal_segment_lim_target_end
#else
  la t0, metal_segment_lim_source_start
201001c6:	00001297          	auipc	t0,0x1
201001ca:	d1228293          	add	t0,t0,-750 # 20100ed8 <metal_segment_itim_source_start>
C:/VSD/FreedomStudio-3-1-1-x86_64-w64-mingw32/FreedomStudio-3-1-1/SiFive/freedom-e-sdk-v21.11.00.00/freedom-metal/gloss/crt0.S:140
  la t1, metal_segment_lim_target_start
201001ce:	5ff00317          	auipc	t1,0x5ff00
201001d2:	e3230313          	add	t1,t1,-462 # 80000000 <__metal_dt_clock_0>
C:/VSD/FreedomStudio-3-1-1-x86_64-w64-mingw32/FreedomStudio-3-1-1/SiFive/freedom-e-sdk-v21.11.00.00/freedom-metal/gloss/crt0.S:141
  la t2, metal_segment_lim_target_end
201001d6:	5ff00397          	auipc	t2,0x5ff00
201001da:	e2a38393          	add	t2,t2,-470 # 80000000 <__metal_dt_clock_0>
C:/VSD/FreedomStudio-3-1-1-x86_64-w64-mingw32/FreedomStudio-3-1-1/SiFive/freedom-e-sdk-v21.11.00.00/freedom-metal/gloss/crt0.S:144
#endif

  beq t0, t1, 2f
201001de:	00628c63          	beq	t0,t1,201001f6 <_start+0xa6>
C:/VSD/FreedomStudio-3-1-1-x86_64-w64-mingw32/FreedomStudio-3-1-1/SiFive/freedom-e-sdk-v21.11.00.00/freedom-metal/gloss/crt0.S:145
  bge t1, t2, 2f
201001e2:	00735a63          	bge	t1,t2,201001f6 <_start+0xa6>
C:/VSD/FreedomStudio-3-1-1-x86_64-w64-mingw32/FreedomStudio-3-1-1/SiFive/freedom-e-sdk-v21.11.00.00/freedom-metal/gloss/crt0.S:149

1:
#if __riscv_xlen == 32
  lw   a0, 0(t0)
201001e6:	0002a503          	lw	a0,0(t0)
C:/VSD/FreedomStudio-3-1-1-x86_64-w64-mingw32/FreedomStudio-3-1-1/SiFive/freedom-e-sdk-v21.11.00.00/freedom-metal/gloss/crt0.S:150
  addi t0, t0, 4
201001ea:	0291                	add	t0,t0,4
C:/VSD/FreedomStudio-3-1-1-x86_64-w64-mingw32/FreedomStudio-3-1-1/SiFive/freedom-e-sdk-v21.11.00.00/freedom-metal/gloss/crt0.S:151
  sw   a0, 0(t1)
201001ec:	00a32023          	sw	a0,0(t1)
C:/VSD/FreedomStudio-3-1-1-x86_64-w64-mingw32/FreedomStudio-3-1-1/SiFive/freedom-e-sdk-v21.11.00.00/freedom-metal/gloss/crt0.S:152
  addi t1, t1, 4
201001f0:	0311                	add	t1,t1,4
C:/VSD/FreedomStudio-3-1-1-x86_64-w64-mingw32/FreedomStudio-3-1-1/SiFive/freedom-e-sdk-v21.11.00.00/freedom-metal/gloss/crt0.S:153
  blt  t1, t2, 1b
201001f2:	fe734ae3          	blt	t1,t2,201001e6 <_start+0x96>
C:/VSD/FreedomStudio-3-1-1-x86_64-w64-mingw32/FreedomStudio-3-1-1/SiFive/freedom-e-sdk-v21.11.00.00/freedom-metal/gloss/crt0.S:165
#endif
2:

  /* Fence all subsequent instruction fetches until after the LIM writes
     complete */
  fence.i
201001f6:	0000100f          	fence.i
C:/VSD/FreedomStudio-3-1-1-x86_64-w64-mingw32/FreedomStudio-3-1-1/SiFive/freedom-e-sdk-v21.11.00.00/freedom-metal/gloss/crt0.S:172
  /* Zero the BSS segment. */
#ifdef __riscv_cmodel_compact
  lla.gprel t1, metal_segment_bss_target_start
  lla.gprel t2, metal_segment_bss_target_end
#else
  la t1, metal_segment_bss_target_start
201001fa:	5ff01317          	auipc	t1,0x5ff01
201001fe:	83e30313          	add	t1,t1,-1986 # 80000a38 <__stdio_exit_handler>
C:/VSD/FreedomStudio-3-1-1-x86_64-w64-mingw32/FreedomStudio-3-1-1/SiFive/freedom-e-sdk-v21.11.00.00/freedom-metal/gloss/crt0.S:173
  la t2, metal_segment_bss_target_end
20100202:	8bc18393          	add	t2,gp,-1860 # 80000ad4 <metal_segment_bss_target_end>
C:/VSD/FreedomStudio-3-1-1-x86_64-w64-mingw32/FreedomStudio-3-1-1/SiFive/freedom-e-sdk-v21.11.00.00/freedom-metal/gloss/crt0.S:176
#endif

  bge t1, t2, 2f
20100206:	00735763          	bge	t1,t2,20100214 <_start+0xc4>
C:/VSD/FreedomStudio-3-1-1-x86_64-w64-mingw32/FreedomStudio-3-1-1/SiFive/freedom-e-sdk-v21.11.00.00/freedom-metal/gloss/crt0.S:180

1:
#if __riscv_xlen == 32
  sw   x0, 0(t1)
2010020a:	00032023          	sw	zero,0(t1)
C:/VSD/FreedomStudio-3-1-1-x86_64-w64-mingw32/FreedomStudio-3-1-1/SiFive/freedom-e-sdk-v21.11.00.00/freedom-metal/gloss/crt0.S:181
  addi t1, t1, 4
2010020e:	0311                	add	t1,t1,4
C:/VSD/FreedomStudio-3-1-1-x86_64-w64-mingw32/FreedomStudio-3-1-1/SiFive/freedom-e-sdk-v21.11.00.00/freedom-metal/gloss/crt0.S:182
  blt  t1, t2, 1b
20100210:	fe734de3          	blt	t1,t2,2010020a <_start+0xba>
C:/VSD/FreedomStudio-3-1-1-x86_64-w64-mingw32/FreedomStudio-3-1-1/SiFive/freedom-e-sdk-v21.11.00.00/freedom-metal/gloss/crt0.S:195
  /* Set TLS pointer */
  .weak __tls_base	
#ifdef __riscv_cmodel_compact
  lla.gprel tp, __tls_base
#else
  la tp, __tls_base
20100214:	5ff01217          	auipc	tp,0x5ff01
20100218:	82420213          	add	tp,tp,-2012 # 80000a38 <__stdio_exit_handler>
C:/VSD/FreedomStudio-3-1-1-x86_64-w64-mingw32/FreedomStudio-3-1-1/SiFive/freedom-e-sdk-v21.11.00.00/freedom-metal/gloss/crt0.S:201
#endif

  /* At this point we're in an environment that can execute C code.  The first
   * thing to do is to make the callback to the parent environment if it's been
   * requested to do so. */
  beqz a2, 1f
2010021c:	c211                	beqz	a2,20100220 <_start+0xd0>
C:/VSD/FreedomStudio-3-1-1-x86_64-w64-mingw32/FreedomStudio-3-1-1/SiFive/freedom-e-sdk-v21.11.00.00/freedom-metal/gloss/crt0.S:202
  jalr a2
2010021e:	9602                	jalr	a2
C:/VSD/FreedomStudio-3-1-1-x86_64-w64-mingw32/FreedomStudio-3-1-1/SiFive/freedom-e-sdk-v21.11.00.00/freedom-metal/gloss/crt0.S:206
1:

  /* The RISC-V port only uses new-style constructors and destructors. */
  la a0, __libc_fini_array
20100220:	00001517          	auipc	a0,0x1
20100224:	ef850513          	add	a0,a0,-264 # 20101118 <__libc_fini_array>
C:/VSD/FreedomStudio-3-1-1-x86_64-w64-mingw32/FreedomStudio-3-1-1/SiFive/freedom-e-sdk-v21.11.00.00/freedom-metal/gloss/crt0.S:207
  call atexit
20100228:	661000ef          	jal	20101088 <atexit>
C:/VSD/FreedomStudio-3-1-1-x86_64-w64-mingw32/FreedomStudio-3-1-1/SiFive/freedom-e-sdk-v21.11.00.00/freedom-metal/gloss/crt0.S:208
  call __libc_init_array
2010022c:	68f000ef          	jal	201010ba <__libc_init_array>
C:/VSD/FreedomStudio-3-1-1-x86_64-w64-mingw32/FreedomStudio-3-1-1/SiFive/freedom-e-sdk-v21.11.00.00/freedom-metal/gloss/crt0.S:212

  /* Register metal_fini_run as a destructor and call metal_init_run to
   * run and setup Metal constructors */
  la a0, metal_fini_run
20100230:	00001517          	auipc	a0,0x1
20100234:	16a50513          	add	a0,a0,362 # 2010139a <metal_fini_run>
C:/VSD/FreedomStudio-3-1-1-x86_64-w64-mingw32/FreedomStudio-3-1-1/SiFive/freedom-e-sdk-v21.11.00.00/freedom-metal/gloss/crt0.S:213
  call atexit
20100238:	651000ef          	jal	20101088 <atexit>
C:/VSD/FreedomStudio-3-1-1-x86_64-w64-mingw32/FreedomStudio-3-1-1/SiFive/freedom-e-sdk-v21.11.00.00/freedom-metal/gloss/crt0.S:214
  call metal_init_run
2010023c:	14a010ef          	jal	20101386 <metal_init_run>

20100240 <_skip_init>:
_skip_init():
C:/VSD/FreedomStudio-3-1-1-x86_64-w64-mingw32/FreedomStudio-3-1-1/SiFive/freedom-e-sdk-v21.11.00.00/freedom-metal/gloss/crt0.S:220

_skip_init:

  /* Synchronize harts so that secondary harts wait until hart 0 finishes
     initializing */
  call __metal_synchronize_harts
20100240:	3709                	jal	20100142 <__metal_synchronize_harts>
C:/VSD/FreedomStudio-3-1-1-x86_64-w64-mingw32/FreedomStudio-3-1-1/SiFive/freedom-e-sdk-v21.11.00.00/freedom-metal/gloss/crt0.S:223

  /* Disable and clear all interrupt sources */
  li   a3, -1
20100242:	56fd                	li	a3,-1
C:/VSD/FreedomStudio-3-1-1-x86_64-w64-mingw32/FreedomStudio-3-1-1/SiFive/freedom-e-sdk-v21.11.00.00/freedom-metal/gloss/crt0.S:224
  csrc mie, a3
20100244:	3046b073          	csrc	mie,a3
C:/VSD/FreedomStudio-3-1-1-x86_64-w64-mingw32/FreedomStudio-3-1-1/SiFive/freedom-e-sdk-v21.11.00.00/freedom-metal/gloss/crt0.S:225
  csrc mip, a3
20100248:	3446b073          	csrc	mip,a3
C:/VSD/FreedomStudio-3-1-1-x86_64-w64-mingw32/FreedomStudio-3-1-1/SiFive/freedom-e-sdk-v21.11.00.00/freedom-metal/gloss/crt0.S:229

  /* The delegation CSRs exist if user mode interrupts (N extension) or
   * supervisor mode (S extension) are supported */
  csrr a5, misa
2010024c:	301027f3          	csrr	a5,misa
C:/VSD/FreedomStudio-3-1-1-x86_64-w64-mingw32/FreedomStudio-3-1-1/SiFive/freedom-e-sdk-v21.11.00.00/freedom-metal/gloss/crt0.S:230
  lui  a4, 0x42
20100250:	00042737          	lui	a4,0x42
C:/VSD/FreedomStudio-3-1-1-x86_64-w64-mingw32/FreedomStudio-3-1-1/SiFive/freedom-e-sdk-v21.11.00.00/freedom-metal/gloss/crt0.S:231
  and  a4, a4, a5
20100254:	8f7d                	and	a4,a4,a5
C:/VSD/FreedomStudio-3-1-1-x86_64-w64-mingw32/FreedomStudio-3-1-1/SiFive/freedom-e-sdk-v21.11.00.00/freedom-metal/gloss/crt0.S:232
  beqz a4, 1f
20100256:	c709                	beqz	a4,20100260 <_skip_init+0x20>
C:/VSD/FreedomStudio-3-1-1-x86_64-w64-mingw32/FreedomStudio-3-1-1/SiFive/freedom-e-sdk-v21.11.00.00/freedom-metal/gloss/crt0.S:233
  csrc mideleg, a3
20100258:	3036b073          	csrc	mideleg,a3
C:/VSD/FreedomStudio-3-1-1-x86_64-w64-mingw32/FreedomStudio-3-1-1/SiFive/freedom-e-sdk-v21.11.00.00/freedom-metal/gloss/crt0.S:234
  csrc medeleg, a3
2010025c:	3026b073          	csrc	medeleg,a3
C:/VSD/FreedomStudio-3-1-1-x86_64-w64-mingw32/FreedomStudio-3-1-1/SiFive/freedom-e-sdk-v21.11.00.00/freedom-metal/gloss/crt0.S:238
1:

  /* The satp CSR exists if supervisor mode (S extension) is supported */
  lui  a4, 0x40
20100260:	00040737          	lui	a4,0x40
C:/VSD/FreedomStudio-3-1-1-x86_64-w64-mingw32/FreedomStudio-3-1-1/SiFive/freedom-e-sdk-v21.11.00.00/freedom-metal/gloss/crt0.S:239
  and  a4, a4, a5
20100264:	8f7d                	and	a4,a4,a5
C:/VSD/FreedomStudio-3-1-1-x86_64-w64-mingw32/FreedomStudio-3-1-1/SiFive/freedom-e-sdk-v21.11.00.00/freedom-metal/gloss/crt0.S:240
  beqz a4, 1f
20100266:	c319                	beqz	a4,2010026c <_skip_init+0x2c>
C:/VSD/FreedomStudio-3-1-1-x86_64-w64-mingw32/FreedomStudio-3-1-1/SiFive/freedom-e-sdk-v21.11.00.00/freedom-metal/gloss/crt0.S:241
  csrc satp, a3
20100268:	1806b073          	csrc	satp,a3
C:/VSD/FreedomStudio-3-1-1-x86_64-w64-mingw32/FreedomStudio-3-1-1/SiFive/freedom-e-sdk-v21.11.00.00/freedom-metal/gloss/crt0.S:245
1:

  /* Check RISC-V isa and enable FS bits if Floating Point architecture. */
  li   a4, 0x10028
2010026c:	6741                	lui	a4,0x10
2010026e:	02870713          	add	a4,a4,40 # 10028 <__heap_size+0xf828>
C:/VSD/FreedomStudio-3-1-1-x86_64-w64-mingw32/FreedomStudio-3-1-1/SiFive/freedom-e-sdk-v21.11.00.00/freedom-metal/gloss/crt0.S:246
  and  a5, a5, a4
20100272:	8ff9                	and	a5,a5,a4
C:/VSD/FreedomStudio-3-1-1-x86_64-w64-mingw32/FreedomStudio-3-1-1/SiFive/freedom-e-sdk-v21.11.00.00/freedom-metal/gloss/crt0.S:247
  beqz a5, 1f
20100274:	cb89                	beqz	a5,20100286 <_skip_init+0x46>
C:/VSD/FreedomStudio-3-1-1-x86_64-w64-mingw32/FreedomStudio-3-1-1/SiFive/freedom-e-sdk-v21.11.00.00/freedom-metal/gloss/crt0.S:248
  csrr a5, mstatus
20100276:	300027f3          	csrr	a5,mstatus
C:/VSD/FreedomStudio-3-1-1-x86_64-w64-mingw32/FreedomStudio-3-1-1/SiFive/freedom-e-sdk-v21.11.00.00/freedom-metal/gloss/crt0.S:249
  lui  a4, 0x2
2010027a:	6709                	lui	a4,0x2
C:/VSD/FreedomStudio-3-1-1-x86_64-w64-mingw32/FreedomStudio-3-1-1/SiFive/freedom-e-sdk-v21.11.00.00/freedom-metal/gloss/crt0.S:250
  or   a5, a5, a4
2010027c:	8fd9                	or	a5,a5,a4
C:/VSD/FreedomStudio-3-1-1-x86_64-w64-mingw32/FreedomStudio-3-1-1/SiFive/freedom-e-sdk-v21.11.00.00/freedom-metal/gloss/crt0.S:251
  csrw mstatus, a5
2010027e:	30079073          	csrw	mstatus,a5
C:/VSD/FreedomStudio-3-1-1-x86_64-w64-mingw32/FreedomStudio-3-1-1/SiFive/freedom-e-sdk-v21.11.00.00/freedom-metal/gloss/crt0.S:252
  csrwi fcsr, 0
20100282:	00305073          	csrw	fcsr,0
C:/VSD/FreedomStudio-3-1-1-x86_64-w64-mingw32/FreedomStudio-3-1-1/SiFive/freedom-e-sdk-v21.11.00.00/freedom-metal/gloss/crt0.S:273
#endif

  /* This is a C runtime, so main() is defined to have some arguments.  Since
   * there's nothing sane the METAL can pass we don't bother with that but
   * instead just setup as close to a NOP as we can. */
  li a0, 1     /* argc=1 */
20100286:	4505                	li	a0,1
C:/VSD/FreedomStudio-3-1-1-x86_64-w64-mingw32/FreedomStudio-3-1-1/SiFive/freedom-e-sdk-v21.11.00.00/freedom-metal/gloss/crt0.S:274
  la a1, argv  /* argv = {"libgloss", NULL} */
20100288:	00000597          	auipc	a1,0x0
2010028c:	0e058593          	add	a1,a1,224 # 20100368 <argv>
C:/VSD/FreedomStudio-3-1-1-x86_64-w64-mingw32/FreedomStudio-3-1-1/SiFive/freedom-e-sdk-v21.11.00.00/freedom-metal/gloss/crt0.S:275
  la a2, envp  /* envp = {NULL} */
20100290:	00000617          	auipc	a2,0x0
20100294:	0dc60613          	add	a2,a2,220 # 2010036c <envp>
C:/VSD/FreedomStudio-3-1-1-x86_64-w64-mingw32/FreedomStudio-3-1-1/SiFive/freedom-e-sdk-v21.11.00.00/freedom-metal/gloss/crt0.S:276
  call secondary_main
20100298:	2031                	jal	201002a4 <secondary_main>
C:/VSD/FreedomStudio-3-1-1-x86_64-w64-mingw32/FreedomStudio-3-1-1/SiFive/freedom-e-sdk-v21.11.00.00/freedom-metal/gloss/crt0.S:282

  /* Call exit to handle libc's cleanup routines.  Under normal contains this
   * shouldn't even get called, but I'm still not using a tail call here
   * because returning to the METAL is the right thing to do in pathological
   * situations. */
  call exit
2010029a:	5f9000ef          	jal	20101092 <exit>
C:/VSD/FreedomStudio-3-1-1-x86_64-w64-mingw32/FreedomStudio-3-1-1/SiFive/freedom-e-sdk-v21.11.00.00/freedom-metal/gloss/crt0.S:287

  /* And here's where we return.  Again, it's a bit odd but the METAL defines
   * this as a bad idea (ie, as opposed to leaving it undefined) and at this
   * point it's really the only thing left to do. */
  mv ra, s0
2010029e:	80a2                	mv	ra,s0
C:/VSD/FreedomStudio-3-1-1-x86_64-w64-mingw32/FreedomStudio-3-1-1/SiFive/freedom-e-sdk-v21.11.00.00/freedom-metal/gloss/crt0.S:288
  ret
201002a0:	8082                	ret

201002a2 <_fini>:
_fini():
C:/VSD/FreedomStudio-3-1-1-x86_64-w64-mingw32/FreedomStudio-3-1-1/SiFive/freedom-e-sdk-v21.11.00.00/freedom-metal/gloss/crt0.S:300
.type   _init, @function
.global _fini
.type   _fini, @function
_init:
_fini:
  ret
201002a2:	8082                	ret

201002a4 <secondary_main>:
secondary_main():
C:/VSD/FreedomStudio-3-1-1-x86_64-w64-mingw32/FreedomStudio-3-1-1/SiFive/freedom-e-sdk-v21.11.00.00/freedom-metal/gloss/crt0.S:310
 * Users can redefine secondary_main themselves to run code on secondary harts */
.weak   secondary_main
.type   secondary_main, @function

secondary_main:
  addi sp, sp, -16
201002a4:	1141                	add	sp,sp,-16
C:/VSD/FreedomStudio-3-1-1-x86_64-w64-mingw32/FreedomStudio-3-1-1/SiFive/freedom-e-sdk-v21.11.00.00/freedom-metal/gloss/crt0.S:312
#if __riscv_xlen == 32
  sw ra, 4(sp)
201002a6:	c206                	sw	ra,4(sp)
C:/VSD/FreedomStudio-3-1-1-x86_64-w64-mingw32/FreedomStudio-3-1-1/SiFive/freedom-e-sdk-v21.11.00.00/freedom-metal/gloss/crt0.S:316
#else
  sd ra, 8(sp)
#endif
  csrr t0, mhartid
201002a8:	f14022f3          	csrr	t0,mhartid
C:/VSD/FreedomStudio-3-1-1-x86_64-w64-mingw32/FreedomStudio-3-1-1/SiFive/freedom-e-sdk-v21.11.00.00/freedom-metal/gloss/crt0.S:317
  la t1, __metal_boot_hart
201002ac:	00000313          	li	t1,0
C:/VSD/FreedomStudio-3-1-1-x86_64-w64-mingw32/FreedomStudio-3-1-1/SiFive/freedom-e-sdk-v21.11.00.00/freedom-metal/gloss/crt0.S:318
  beq t0, t1, 2f
201002b0:	00628563          	beq	t0,t1,201002ba <secondary_main+0x16>
C:/VSD/FreedomStudio-3-1-1-x86_64-w64-mingw32/FreedomStudio-3-1-1/SiFive/freedom-e-sdk-v21.11.00.00/freedom-metal/gloss/crt0.S:320
1:
  wfi
201002b4:	10500073          	wfi
C:/VSD/FreedomStudio-3-1-1-x86_64-w64-mingw32/FreedomStudio-3-1-1/SiFive/freedom-e-sdk-v21.11.00.00/freedom-metal/gloss/crt0.S:321
  j 1b
201002b8:	bff5                	j	201002b4 <secondary_main+0x10>
C:/VSD/FreedomStudio-3-1-1-x86_64-w64-mingw32/FreedomStudio-3-1-1/SiFive/freedom-e-sdk-v21.11.00.00/freedom-metal/gloss/crt0.S:323
2:
  call main
201002ba:	59f000ef          	jal	20101058 <main>
C:/VSD/FreedomStudio-3-1-1-x86_64-w64-mingw32/FreedomStudio-3-1-1/SiFive/freedom-e-sdk-v21.11.00.00/freedom-metal/gloss/crt0.S:325
#if __riscv_xlen == 32
  lw ra, 4(sp)
201002be:	4092                	lw	ra,4(sp)
C:/VSD/FreedomStudio-3-1-1-x86_64-w64-mingw32/FreedomStudio-3-1-1/SiFive/freedom-e-sdk-v21.11.00.00/freedom-metal/gloss/crt0.S:329
#else
  ld ra, 8(sp)
#endif
  addi sp, sp, 16
201002c0:	0141                	add	sp,sp,16
C:/VSD/FreedomStudio-3-1-1-x86_64-w64-mingw32/FreedomStudio-3-1-1/SiFive/freedom-e-sdk-v21.11.00.00/freedom-metal/gloss/crt0.S:330
  ret
201002c2:	8082                	ret

Disassembly of section .ctors:

201002d4 <metal_sifive_fe310_g000_pll_init>:
metal_sifive_fe310_g000_pll_init():
C:/VSD/FreedomStudio-3-1-1-x86_64-w64-mingw32/FreedomStudio-3-1-1/SiFive/freedom-e-sdk-v21.11.00.00/freedom-metal/src/drivers/sifive_fe310-g000_pll.c:151
    return pll_input_rate * config->multiplier / config->divisor;
}

#ifdef __METAL_DT_SIFIVE_FE310_G000_PLL_HANDLE

METAL_CONSTRUCTOR(metal_sifive_fe310_g000_pll_init) {
201002d4:	1101                	add	sp,sp,-32
201002d6:	ce06                	sw	ra,28(sp)
201002d8:	cc22                	sw	s0,24(sp)
201002da:	1000                	add	s0,sp,32
C:/VSD/FreedomStudio-3-1-1-x86_64-w64-mingw32/FreedomStudio-3-1-1/SiFive/freedom-e-sdk-v21.11.00.00/freedom-metal/src/drivers/sifive_fe310-g000_pll.c:152
    long init_rate = __metal_driver_sifive_fe310_g000_pll_init_rate();
201002dc:	51d030ef          	jal	20103ff8 <__metal_driver_sifive_fe310_g000_pll_init_rate>
201002e0:	fea42623          	sw	a0,-20(s0)
C:/VSD/FreedomStudio-3-1-1-x86_64-w64-mingw32/FreedomStudio-3-1-1/SiFive/freedom-e-sdk-v21.11.00.00/freedom-metal/src/drivers/sifive_fe310-g000_pll.c:154
    /* If the PLL init_rate is zero, don't initialize the PLL */
    if (init_rate != 0)
201002e4:	fec42783          	lw	a5,-20(s0)
201002e8:	c799                	beqz	a5,201002f6 <__fini_array_end+0x1e>
C:/VSD/FreedomStudio-3-1-1-x86_64-w64-mingw32/FreedomStudio-3-1-1/SiFive/freedom-e-sdk-v21.11.00.00/freedom-metal/src/drivers/sifive_fe310-g000_pll.c:155
        __metal_driver_sifive_fe310_g000_pll_init(
201002ea:	800017b7          	lui	a5,0x80001
201002ee:	a0878513          	add	a0,a5,-1528 # 80000a08 <__metal_dt_clock_4>
201002f2:	593030ef          	jal	20104084 <__metal_driver_sifive_fe310_g000_pll_init>
C:/VSD/FreedomStudio-3-1-1-x86_64-w64-mingw32/FreedomStudio-3-1-1/SiFive/freedom-e-sdk-v21.11.00.00/freedom-metal/src/drivers/sifive_fe310-g000_pll.c:157
            __METAL_DT_SIFIVE_FE310_G000_PLL_HANDLE);
}
201002f6:	0001                	nop
201002f8:	40f2                	lw	ra,28(sp)
201002fa:	4462                	lw	s0,24(sp)
201002fc:	6105                	add	sp,sp,32
201002fe:	8082                	ret

20100300 <use_hfxosc>:
use_hfxosc():
C:/VSD/FreedomStudio-3-1-1-x86_64-w64-mingw32/FreedomStudio-3-1-1/SiFive/freedom-e-sdk-v21.11.00.00/freedom-metal/src/drivers/sifive_fe310-g000_pll.c:389

    return __metal_driver_sifive_fe310_g000_pll_get_rate_hz(clock);
}

#ifdef __METAL_DT_SIFIVE_FE310_G000_PLL_HANDLE
METAL_CONSTRUCTOR(use_hfxosc) {
20100300:	1101                	add	sp,sp,-32
20100302:	ce06                	sw	ra,28(sp)
20100304:	cc22                	sw	s0,24(sp)
20100306:	1000                	add	s0,sp,32
C:/VSD/FreedomStudio-3-1-1-x86_64-w64-mingw32/FreedomStudio-3-1-1/SiFive/freedom-e-sdk-v21.11.00.00/freedom-metal/src/drivers/sifive_fe310-g000_pll.c:390
    long init_rate = __metal_driver_sifive_fe310_g000_pll_init_rate();
20100308:	4f1030ef          	jal	20103ff8 <__metal_driver_sifive_fe310_g000_pll_init_rate>
2010030c:	fea42623          	sw	a0,-20(s0)
C:/VSD/FreedomStudio-3-1-1-x86_64-w64-mingw32/FreedomStudio-3-1-1/SiFive/freedom-e-sdk-v21.11.00.00/freedom-metal/src/drivers/sifive_fe310-g000_pll.c:391
    metal_clock_set_rate_hz(&__METAL_DT_SIFIVE_FE310_G000_PLL_HANDLE->clock,
20100310:	fec42583          	lw	a1,-20(s0)
20100314:	800017b7          	lui	a5,0x80001
20100318:	a0878513          	add	a0,a5,-1528 # 80000a08 <__metal_dt_clock_4>
2010031c:	3a0050ef          	jal	201056bc <metal_clock_set_rate_hz>
C:/VSD/FreedomStudio-3-1-1-x86_64-w64-mingw32/FreedomStudio-3-1-1/SiFive/freedom-e-sdk-v21.11.00.00/freedom-metal/src/drivers/sifive_fe310-g000_pll.c:393
                            init_rate);
}
20100320:	0001                	nop
20100322:	40f2                	lw	ra,28(sp)
20100324:	4462                	lw	s0,24(sp)
20100326:	6105                	add	sp,sp,32
20100328:	8082                	ret

2010032a <metal_tty_init>:
metal_tty_init():
C:/VSD/FreedomStudio-3-1-1-x86_64-w64-mingw32/FreedomStudio-3-1-1/SiFive/freedom-e-sdk-v21.11.00.00/freedom-metal/src/tty.c:28

#ifndef __METAL_DT_STDOUT_UART_BAUD
#define __METAL_DT_STDOUT_UART_BAUD 115200
#endif

METAL_CONSTRUCTOR(metal_tty_init) {
2010032a:	1141                	add	sp,sp,-16
2010032c:	c606                	sw	ra,12(sp)
2010032e:	c422                	sw	s0,8(sp)
20100330:	0800                	add	s0,sp,16
C:/VSD/FreedomStudio-3-1-1-x86_64-w64-mingw32/FreedomStudio-3-1-1/SiFive/freedom-e-sdk-v21.11.00.00/freedom-metal/src/tty.c:29
    metal_uart_init(__METAL_DT_STDOUT_UART_HANDLE, __METAL_DT_STDOUT_UART_BAUD);
20100332:	67f1                	lui	a5,0x1c
20100334:	20078593          	add	a1,a5,512 # 1c200 <__heap_size+0x1ba00>
20100338:	800017b7          	lui	a5,0x80001
2010033c:	9d078513          	add	a0,a5,-1584 # 800009d0 <__metal_dt_serial_10013000>
20100340:	4a0050ef          	jal	201057e0 <metal_uart_init>
C:/VSD/FreedomStudio-3-1-1-x86_64-w64-mingw32/FreedomStudio-3-1-1/SiFive/freedom-e-sdk-v21.11.00.00/freedom-metal/src/tty.c:30
}
20100344:	0001                	nop
20100346:	40b2                	lw	ra,12(sp)
20100348:	4422                	lw	s0,8(sp)
2010034a:	0141                	add	sp,sp,16
2010034c:	8082                	ret

Disassembly of section .text:

20100f00 <uart_init_115200_from_hfrosc_14p4mhz>:
uart_init_115200_from_hfrosc_14p4mhz():
C:\VSD_Sqd_Project\Sentence_Boundary_Disambiguation\src/hello.c:18
#define UART_RXCTRL    (*(volatile uint32_t *)(UART0_BASE + 0x0C))
#define UART_IE        (*(volatile uint32_t *)(UART0_BASE + 0x10))
#define UART_IP        (*(volatile uint32_t *)(UART0_BASE + 0x14))
#define UART_DIV       (*(volatile uint32_t *)(UART0_BASE + 0x18))

static inline void uart_init_115200_from_hfrosc_14p4mhz(void) {
20100f00:	1101                	add	sp,sp,-32
20100f02:	ce22                	sw	s0,28(sp)
20100f04:	1000                	add	s0,sp,32
C:\VSD_Sqd_Project\Sentence_Boundary_Disambiguation\src/hello.c:20
    // GPIO16=RX, GPIO17=TX => select IOF0 function and enable it
    const uint32_t RX_BIT = (1u << 16);
20100f06:	67c1                	lui	a5,0x10
20100f08:	fef42623          	sw	a5,-20(s0)
C:\VSD_Sqd_Project\Sentence_Boundary_Disambiguation\src/hello.c:21
    const uint32_t TX_BIT = (1u << 17);
20100f0c:	000207b7          	lui	a5,0x20
20100f10:	fef42423          	sw	a5,-24(s0)
C:\VSD_Sqd_Project\Sentence_Boundary_Disambiguation\src/hello.c:24

    // Route pins to IOF0 (UART0 uses IOF0 on 16/17)
    GPIO_IOF_SEL &= ~(RX_BIT | TX_BIT); // IOF0
20100f14:	100127b7          	lui	a5,0x10012
20100f18:	03c78793          	add	a5,a5,60 # 1001203c <__heap_size+0x1001183c>
20100f1c:	4394                	lw	a3,0(a5)
20100f1e:	fec42703          	lw	a4,-20(s0)
20100f22:	fe842783          	lw	a5,-24(s0)
20100f26:	8fd9                	or	a5,a5,a4
20100f28:	fff7c713          	not	a4,a5
20100f2c:	100127b7          	lui	a5,0x10012
20100f30:	03c78793          	add	a5,a5,60 # 1001203c <__heap_size+0x1001183c>
20100f34:	8f75                	and	a4,a4,a3
20100f36:	c398                	sw	a4,0(a5)
C:\VSD_Sqd_Project\Sentence_Boundary_Disambiguation\src/hello.c:25
    GPIO_IOF_EN  |=  (RX_BIT | TX_BIT);
20100f38:	100127b7          	lui	a5,0x10012
20100f3c:	03878793          	add	a5,a5,56 # 10012038 <__heap_size+0x10011838>
20100f40:	4394                	lw	a3,0(a5)
20100f42:	fec42703          	lw	a4,-20(s0)
20100f46:	fe842783          	lw	a5,-24(s0)
20100f4a:	8f5d                	or	a4,a4,a5
20100f4c:	100127b7          	lui	a5,0x10012
20100f50:	03878793          	add	a5,a5,56 # 10012038 <__heap_size+0x10011838>
20100f54:	8f55                	or	a4,a4,a3
20100f56:	c398                	sw	a4,0(a5)
C:\VSD_Sqd_Project\Sentence_Boundary_Disambiguation\src/hello.c:29

    // Ensure GPIO input enabled for RX, output enabled for TX not required when IOF drives pins,
    // but harmless if set:
    GPIO_INPUT_EN  |= RX_BIT;
20100f58:	100127b7          	lui	a5,0x10012
20100f5c:	0791                	add	a5,a5,4 # 10012004 <__heap_size+0x10011804>
20100f5e:	4394                	lw	a3,0(a5)
20100f60:	100127b7          	lui	a5,0x10012
20100f64:	0791                	add	a5,a5,4 # 10012004 <__heap_size+0x10011804>
20100f66:	fec42703          	lw	a4,-20(s0)
20100f6a:	8f55                	or	a4,a4,a3
20100f6c:	c398                	sw	a4,0(a5)
C:\VSD_Sqd_Project\Sentence_Boundary_Disambiguation\src/hello.c:30
    GPIO_OUTPUT_EN |= TX_BIT;
20100f6e:	100127b7          	lui	a5,0x10012
20100f72:	07a1                	add	a5,a5,8 # 10012008 <__heap_size+0x10011808>
20100f74:	4394                	lw	a3,0(a5)
20100f76:	100127b7          	lui	a5,0x10012
20100f7a:	07a1                	add	a5,a5,8 # 10012008 <__heap_size+0x10011808>
20100f7c:	fe842703          	lw	a4,-24(s0)
20100f80:	8f55                	or	a4,a4,a3
20100f82:	c398                	sw	a4,0(a5)
C:\VSD_Sqd_Project\Sentence_Boundary_Disambiguation\src/hello.c:33

    // Baud: ~14.4 MHz / (124+1) approx 115.2 kbaud
    UART_DIV   = 138u;
20100f84:	100137b7          	lui	a5,0x10013
20100f88:	07e1                	add	a5,a5,24 # 10013018 <__heap_size+0x10012818>
20100f8a:	08a00713          	li	a4,138
20100f8e:	c398                	sw	a4,0(a5)
C:\VSD_Sqd_Project\Sentence_Boundary_Disambiguation\src/hello.c:36

    // 8N1, tx enable, rx enable, watermark 0
    UART_TXCTRL = (1u << 0); // txen
20100f90:	100137b7          	lui	a5,0x10013
20100f94:	07a1                	add	a5,a5,8 # 10013008 <__heap_size+0x10012808>
20100f96:	4705                	li	a4,1
20100f98:	c398                	sw	a4,0(a5)
C:\VSD_Sqd_Project\Sentence_Boundary_Disambiguation\src/hello.c:37
    UART_RXCTRL = (1u << 0); // rxen
20100f9a:	100137b7          	lui	a5,0x10013
20100f9e:	07b1                	add	a5,a5,12 # 1001300c <__heap_size+0x1001280c>
20100fa0:	4705                	li	a4,1
20100fa2:	c398                	sw	a4,0(a5)
C:\VSD_Sqd_Project\Sentence_Boundary_Disambiguation\src/hello.c:40

    // No interrupts for polling
    UART_IE = 0;
20100fa4:	100137b7          	lui	a5,0x10013
20100fa8:	07c1                	add	a5,a5,16 # 10013010 <__heap_size+0x10012810>
20100faa:	0007a023          	sw	zero,0(a5)
C:\VSD_Sqd_Project\Sentence_Boundary_Disambiguation\src/hello.c:41
}
20100fae:	0001                	nop
20100fb0:	4472                	lw	s0,28(sp)
20100fb2:	6105                	add	sp,sp,32
20100fb4:	8082                	ret

20100fb6 <uart_write_char>:
uart_write_char():
C:\VSD_Sqd_Project\Sentence_Boundary_Disambiguation\src/hello.c:43

static inline void uart_write_char(char c) {
20100fb6:	1101                	add	sp,sp,-32
20100fb8:	ce22                	sw	s0,28(sp)
20100fba:	1000                	add	s0,sp,32
20100fbc:	87aa                	mv	a5,a0
20100fbe:	fef407a3          	sb	a5,-17(s0)
C:\VSD_Sqd_Project\Sentence_Boundary_Disambiguation\src/hello.c:45
    // Wait while TX FIFO full (bit31==1)
    while (UART_TXDATA & (1u << 31)) { }
20100fc2:	0001                	nop
C:\VSD_Sqd_Project\Sentence_Boundary_Disambiguation\src/hello.c:45 (discriminator 1)
20100fc4:	100137b7          	lui	a5,0x10013
20100fc8:	439c                	lw	a5,0(a5)
20100fca:	fe07cde3          	bltz	a5,20100fc4 <uart_write_char+0xe>
C:\VSD_Sqd_Project\Sentence_Boundary_Disambiguation\src/hello.c:46
    UART_TXDATA = (uint8_t)c;
20100fce:	100137b7          	lui	a5,0x10013
20100fd2:	fef44703          	lbu	a4,-17(s0)
20100fd6:	c398                	sw	a4,0(a5)
C:\VSD_Sqd_Project\Sentence_Boundary_Disambiguation\src/hello.c:47
}
20100fd8:	0001                	nop
20100fda:	4472                	lw	s0,28(sp)
20100fdc:	6105                	add	sp,sp,32
20100fde:	8082                	ret

20100fe0 <uart_read_char_nonblock>:
uart_read_char_nonblock():
C:\VSD_Sqd_Project\Sentence_Boundary_Disambiguation\src/hello.c:49

static inline int uart_read_char_nonblock(void) {
20100fe0:	1101                	add	sp,sp,-32
20100fe2:	ce22                	sw	s0,28(sp)
20100fe4:	1000                	add	s0,sp,32
C:\VSD_Sqd_Project\Sentence_Boundary_Disambiguation\src/hello.c:50
    uint32_t v = UART_RXDATA;
20100fe6:	100137b7          	lui	a5,0x10013
20100fea:	0791                	add	a5,a5,4 # 10013004 <__heap_size+0x10012804>
20100fec:	439c                	lw	a5,0(a5)
20100fee:	fef42623          	sw	a5,-20(s0)
C:\VSD_Sqd_Project\Sentence_Boundary_Disambiguation\src/hello.c:51
    if (v & (1u << 31)) return -1; // empty
20100ff2:	fec42783          	lw	a5,-20(s0)
20100ff6:	0007d463          	bgez	a5,20100ffe <uart_read_char_nonblock+0x1e>
C:\VSD_Sqd_Project\Sentence_Boundary_Disambiguation\src/hello.c:51 (discriminator 1)
20100ffa:	57fd                	li	a5,-1
C:\VSD_Sqd_Project\Sentence_Boundary_Disambiguation\src/hello.c:51
20100ffc:	a029                	j	20101006 <uart_read_char_nonblock+0x26>
C:\VSD_Sqd_Project\Sentence_Boundary_Disambiguation\src/hello.c:52
    return (int)(v & 0xFF);
20100ffe:	fec42783          	lw	a5,-20(s0)
20101002:	0ff7f793          	zext.b	a5,a5
C:\VSD_Sqd_Project\Sentence_Boundary_Disambiguation\src/hello.c:53
}
20101006:	853e                	mv	a0,a5
20101008:	4472                	lw	s0,28(sp)
2010100a:	6105                	add	sp,sp,32
2010100c:	8082                	ret

2010100e <uart_write_str>:
uart_write_str():
C:\VSD_Sqd_Project\Sentence_Boundary_Disambiguation\src/hello.c:55

static void uart_write_str(const char *s) {
2010100e:	1101                	add	sp,sp,-32
20101010:	ce06                	sw	ra,28(sp)
20101012:	cc22                	sw	s0,24(sp)
20101014:	1000                	add	s0,sp,32
20101016:	fea42623          	sw	a0,-20(s0)
C:\VSD_Sqd_Project\Sentence_Boundary_Disambiguation\src/hello.c:56
    while (*s) {
2010101a:	a025                	j	20101042 <uart_write_str+0x34>
C:\VSD_Sqd_Project\Sentence_Boundary_Disambiguation\src/hello.c:57
        if (*s == '\n') uart_write_char('\r');
2010101c:	fec42783          	lw	a5,-20(s0)
20101020:	0007c703          	lbu	a4,0(a5)
20101024:	47a9                	li	a5,10
20101026:	00f71463          	bne	a4,a5,2010102e <uart_write_str+0x20>
C:\VSD_Sqd_Project\Sentence_Boundary_Disambiguation\src/hello.c:57 (discriminator 1)
2010102a:	4535                	li	a0,13
2010102c:	3769                	jal	20100fb6 <uart_write_char>
C:\VSD_Sqd_Project\Sentence_Boundary_Disambiguation\src/hello.c:58
        uart_write_char(*s++);
2010102e:	fec42783          	lw	a5,-20(s0)
20101032:	00178713          	add	a4,a5,1
20101036:	fee42623          	sw	a4,-20(s0)
2010103a:	0007c783          	lbu	a5,0(a5)
2010103e:	853e                	mv	a0,a5
20101040:	3f9d                	jal	20100fb6 <uart_write_char>
C:\VSD_Sqd_Project\Sentence_Boundary_Disambiguation\src/hello.c:56
    while (*s) {
20101042:	fec42783          	lw	a5,-20(s0)
20101046:	0007c783          	lbu	a5,0(a5)
2010104a:	fbe9                	bnez	a5,2010101c <uart_write_str+0xe>
C:\VSD_Sqd_Project\Sentence_Boundary_Disambiguation\src/hello.c:60
    }
}
2010104c:	0001                	nop
2010104e:	0001                	nop
20101050:	40f2                	lw	ra,28(sp)
20101052:	4462                	lw	s0,24(sp)
20101054:	6105                	add	sp,sp,32
20101056:	8082                	ret

20101058 <main>:
main():
C:\VSD_Sqd_Project\Sentence_Boundary_Disambiguation\src/hello.c:62

int main(void) {
20101058:	1101                	add	sp,sp,-32
2010105a:	ce06                	sw	ra,28(sp)
2010105c:	cc22                	sw	s0,24(sp)
2010105e:	1000                	add	s0,sp,32
C:\VSD_Sqd_Project\Sentence_Boundary_Disambiguation\src/hello.c:63
    uart_init_115200_from_hfrosc_14p4mhz();
20101060:	3545                	jal	20100f00 <uart_init_115200_from_hfrosc_14p4mhz>
C:\VSD_Sqd_Project\Sentence_Boundary_Disambiguation\src/hello.c:64
    uart_write_str("UART0 echo ready\r\n");
20101062:	201007b7          	lui	a5,0x20100
20101066:	35078513          	add	a0,a5,848 # 20100350 <metal_tty_init+0x26>
2010106a:	3755                	jal	2010100e <uart_write_str>
C:\VSD_Sqd_Project\Sentence_Boundary_Disambiguation\src/hello.c:67

    for (;;) {
        int ch = uart_read_char_nonblock();
2010106c:	3f95                	jal	20100fe0 <uart_read_char_nonblock>
2010106e:	fea42623          	sw	a0,-20(s0)
C:\VSD_Sqd_Project\Sentence_Boundary_Disambiguation\src/hello.c:68
        if (ch >= 0) {
20101072:	fec42783          	lw	a5,-20(s0)
20101076:	fe07cbe3          	bltz	a5,2010106c <main+0x14>
C:\VSD_Sqd_Project\Sentence_Boundary_Disambiguation\src/hello.c:70
            // simple echo
            uart_write_char((char)ch);
2010107a:	fec42783          	lw	a5,-20(s0)
2010107e:	0ff7f793          	zext.b	a5,a5
20101082:	853e                	mv	a0,a5
20101084:	3f0d                	jal	20100fb6 <uart_write_char>
C:\VSD_Sqd_Project\Sentence_Boundary_Disambiguation\src/hello.c:66
    for (;;) {
20101086:	b7dd                	j	2010106c <main+0x14>

20101088 <atexit>:
atexit():
20101088:	85aa                	mv	a1,a0
2010108a:	4681                	li	a3,0
2010108c:	4601                	li	a2,0
2010108e:	4501                	li	a0,0
20101090:	a87d                	j	2010114e <__register_exitproc>

20101092 <exit>:
exit():
20101092:	1141                	add	sp,sp,-16
20101094:	c422                	sw	s0,8(sp)
20101096:	c606                	sw	ra,12(sp)
20101098:	00000797          	auipc	a5,0x0
2010109c:	13678793          	add	a5,a5,310 # 201011ce <__call_exitprocs>
201010a0:	842a                	mv	s0,a0
201010a2:	c399                	beqz	a5,201010a8 <exit+0x16>
201010a4:	4581                	li	a1,0
201010a6:	2225                	jal	201011ce <__call_exitprocs>
201010a8:	5ff00797          	auipc	a5,0x5ff00
201010ac:	9907a783          	lw	a5,-1648(a5) # 80000a38 <__stdio_exit_handler>
201010b0:	c391                	beqz	a5,201010b4 <exit+0x22>
201010b2:	9782                	jalr	a5
201010b4:	8522                	mv	a0,s0
201010b6:	0ed040ef          	jal	201059a2 <_exit>

201010ba <__libc_init_array>:
__libc_init_array():
201010ba:	1141                	add	sp,sp,-16
201010bc:	c422                	sw	s0,8(sp)
201010be:	c226                	sw	s1,4(sp)
201010c0:	fffff417          	auipc	s0,0xfffff
201010c4:	20840413          	add	s0,s0,520 # 201002c8 <_metal_sifive_fe310_g000_pll_init_ptr>
201010c8:	fffff497          	auipc	s1,0xfffff
201010cc:	20048493          	add	s1,s1,512 # 201002c8 <_metal_sifive_fe310_g000_pll_init_ptr>
201010d0:	8c81                	sub	s1,s1,s0
201010d2:	c04a                	sw	s2,0(sp)
201010d4:	c606                	sw	ra,12(sp)
201010d6:	8489                	sra	s1,s1,0x2
201010d8:	4901                	li	s2,0
201010da:	02991563          	bne	s2,s1,20101104 <__libc_init_array+0x4a>
201010de:	fffff417          	auipc	s0,0xfffff
201010e2:	1ea40413          	add	s0,s0,490 # 201002c8 <_metal_sifive_fe310_g000_pll_init_ptr>
201010e6:	fffff497          	auipc	s1,0xfffff
201010ea:	1e248493          	add	s1,s1,482 # 201002c8 <_metal_sifive_fe310_g000_pll_init_ptr>
201010ee:	8c81                	sub	s1,s1,s0
201010f0:	8489                	sra	s1,s1,0x2
201010f2:	4901                	li	s2,0
201010f4:	00991d63          	bne	s2,s1,2010110e <__libc_init_array+0x54>
201010f8:	40b2                	lw	ra,12(sp)
201010fa:	4422                	lw	s0,8(sp)
201010fc:	4492                	lw	s1,4(sp)
201010fe:	4902                	lw	s2,0(sp)
20101100:	0141                	add	sp,sp,16
20101102:	8082                	ret
20101104:	401c                	lw	a5,0(s0)
20101106:	0905                	add	s2,s2,1
20101108:	0411                	add	s0,s0,4
2010110a:	9782                	jalr	a5
2010110c:	b7f9                	j	201010da <__libc_init_array+0x20>
2010110e:	401c                	lw	a5,0(s0)
20101110:	0905                	add	s2,s2,1
20101112:	0411                	add	s0,s0,4
20101114:	9782                	jalr	a5
20101116:	bff9                	j	201010f4 <__libc_init_array+0x3a>

20101118 <__libc_fini_array>:
__libc_fini_array():
20101118:	1141                	add	sp,sp,-16
2010111a:	c422                	sw	s0,8(sp)
2010111c:	c226                	sw	s1,4(sp)
2010111e:	fffff417          	auipc	s0,0xfffff
20101122:	1ba40413          	add	s0,s0,442 # 201002d8 <__fini_array_end>
20101126:	fffff497          	auipc	s1,0xfffff
2010112a:	1b248493          	add	s1,s1,434 # 201002d8 <__fini_array_end>
2010112e:	8c05                	sub	s0,s0,s1
20101130:	c606                	sw	ra,12(sp)
20101132:	8409                	sra	s0,s0,0x2
20101134:	e411                	bnez	s0,20101140 <__libc_fini_array+0x28>
20101136:	40b2                	lw	ra,12(sp)
20101138:	4422                	lw	s0,8(sp)
2010113a:	4492                	lw	s1,4(sp)
2010113c:	0141                	add	sp,sp,16
2010113e:	8082                	ret
20101140:	147d                	add	s0,s0,-1
20101142:	00241793          	sll	a5,s0,0x2
20101146:	97a6                	add	a5,a5,s1
20101148:	439c                	lw	a5,0(a5)
2010114a:	9782                	jalr	a5
2010114c:	b7e5                	j	20101134 <__libc_fini_array+0x1c>

2010114e <__register_exitproc>:
__register_exitproc():
2010114e:	5ff00717          	auipc	a4,0x5ff00
20101152:	8ee70713          	add	a4,a4,-1810 # 80000a3c <__atexit>
20101156:	431c                	lw	a5,0(a4)
20101158:	88aa                	mv	a7,a0
2010115a:	e385                	bnez	a5,2010117a <__register_exitproc+0x2c>
2010115c:	5ff00797          	auipc	a5,0x5ff00
20101160:	8ec78793          	add	a5,a5,-1812 # 80000a48 <__atexit0>
20101164:	c31c                	sw	a5,0(a4)
20101166:	00000713          	li	a4,0
2010116a:	c701                	beqz	a4,20101172 <__register_exitproc+0x24>
2010116c:	4318                	lw	a4,0(a4)
2010116e:	08e7a423          	sw	a4,136(a5)
20101172:	5ff00797          	auipc	a5,0x5ff00
20101176:	8d678793          	add	a5,a5,-1834 # 80000a48 <__atexit0>
2010117a:	43d8                	lw	a4,4(a5)
2010117c:	487d                	li	a6,31
2010117e:	557d                	li	a0,-1
20101180:	04e84663          	blt	a6,a4,201011cc <__register_exitproc+0x7e>
20101184:	02088d63          	beqz	a7,201011be <__register_exitproc+0x70>
20101188:	0887a803          	lw	a6,136(a5)
2010118c:	04080063          	beqz	a6,201011cc <__register_exitproc+0x7e>
20101190:	00271513          	sll	a0,a4,0x2
20101194:	9542                	add	a0,a0,a6
20101196:	c110                	sw	a2,0(a0)
20101198:	10082303          	lw	t1,256(a6)
2010119c:	4605                	li	a2,1
2010119e:	00e61633          	sll	a2,a2,a4
201011a2:	00c36333          	or	t1,t1,a2
201011a6:	10682023          	sw	t1,256(a6)
201011aa:	08d52023          	sw	a3,128(a0)
201011ae:	4689                	li	a3,2
201011b0:	00d89763          	bne	a7,a3,201011be <__register_exitproc+0x70>
201011b4:	10482683          	lw	a3,260(a6)
201011b8:	8ed1                	or	a3,a3,a2
201011ba:	10d82223          	sw	a3,260(a6)
201011be:	00170693          	add	a3,a4,1
201011c2:	070a                	sll	a4,a4,0x2
201011c4:	c3d4                	sw	a3,4(a5)
201011c6:	97ba                	add	a5,a5,a4
201011c8:	c78c                	sw	a1,8(a5)
201011ca:	4501                	li	a0,0
201011cc:	8082                	ret

201011ce <__call_exitprocs>:
__call_exitprocs():
201011ce:	7179                	add	sp,sp,-48
201011d0:	ca56                	sw	s5,20(sp)
201011d2:	c85a                	sw	s6,16(sp)
201011d4:	c65e                	sw	s7,12(sp)
201011d6:	c462                	sw	s8,8(sp)
201011d8:	d606                	sw	ra,44(sp)
201011da:	d422                	sw	s0,40(sp)
201011dc:	d226                	sw	s1,36(sp)
201011de:	d04a                	sw	s2,32(sp)
201011e0:	ce4e                	sw	s3,28(sp)
201011e2:	cc52                	sw	s4,24(sp)
201011e4:	c266                	sw	s9,4(sp)
201011e6:	8b2a                	mv	s6,a0
201011e8:	8aae                	mv	s5,a1
201011ea:	5ff00b97          	auipc	s7,0x5ff00
201011ee:	852b8b93          	add	s7,s7,-1966 # 80000a3c <__atexit>
201011f2:	4c05                	li	s8,1
201011f4:	000ba483          	lw	s1,0(s7)
201011f8:	cc81                	beqz	s1,20101210 <__call_exitprocs+0x42>
201011fa:	40c0                	lw	s0,4(s1)
201011fc:	0884a983          	lw	s3,136(s1)
20101200:	fff40913          	add	s2,s0,-1
20101204:	040a                	sll	s0,s0,0x2
20101206:	00898a33          	add	s4,s3,s0
2010120a:	9426                	add	s0,s0,s1
2010120c:	00095f63          	bgez	s2,2010122a <__call_exitprocs+0x5c>
20101210:	50b2                	lw	ra,44(sp)
20101212:	5422                	lw	s0,40(sp)
20101214:	5492                	lw	s1,36(sp)
20101216:	5902                	lw	s2,32(sp)
20101218:	49f2                	lw	s3,28(sp)
2010121a:	4a62                	lw	s4,24(sp)
2010121c:	4ad2                	lw	s5,20(sp)
2010121e:	4b42                	lw	s6,16(sp)
20101220:	4bb2                	lw	s7,12(sp)
20101222:	4c22                	lw	s8,8(sp)
20101224:	4c92                	lw	s9,4(sp)
20101226:	6145                	add	sp,sp,48
20101228:	8082                	ret
2010122a:	000a8c63          	beqz	s5,20101242 <__call_exitprocs+0x74>
2010122e:	00099663          	bnez	s3,2010123a <__call_exitprocs+0x6c>
20101232:	197d                	add	s2,s2,-1
20101234:	1a71                	add	s4,s4,-4
20101236:	1471                	add	s0,s0,-4
20101238:	bfd1                	j	2010120c <__call_exitprocs+0x3e>
2010123a:	07ca2783          	lw	a5,124(s4)
2010123e:	ff579ae3          	bne	a5,s5,20101232 <__call_exitprocs+0x64>
20101242:	40d8                	lw	a4,4(s1)
20101244:	405c                	lw	a5,4(s0)
20101246:	177d                	add	a4,a4,-1
20101248:	03271863          	bne	a4,s2,20101278 <__call_exitprocs+0xaa>
2010124c:	0124a223          	sw	s2,4(s1)
20101250:	d3ed                	beqz	a5,20101232 <__call_exitprocs+0x64>
20101252:	0044ac83          	lw	s9,4(s1)
20101256:	00098863          	beqz	s3,20101266 <__call_exitprocs+0x98>
2010125a:	1009a683          	lw	a3,256(s3)
2010125e:	012c1733          	sll	a4,s8,s2
20101262:	8ef9                	and	a3,a3,a4
20101264:	ee89                	bnez	a3,2010127e <__call_exitprocs+0xb0>
20101266:	9782                	jalr	a5
20101268:	40d8                	lw	a4,4(s1)
2010126a:	000ba783          	lw	a5,0(s7)
2010126e:	f99713e3          	bne	a4,s9,201011f4 <__call_exitprocs+0x26>
20101272:	fcf480e3          	beq	s1,a5,20101232 <__call_exitprocs+0x64>
20101276:	bfbd                	j	201011f4 <__call_exitprocs+0x26>
20101278:	00042223          	sw	zero,4(s0)
2010127c:	bfd1                	j	20101250 <__call_exitprocs+0x82>
2010127e:	1049a683          	lw	a3,260(s3)
20101282:	ffca2583          	lw	a1,-4(s4)
20101286:	8f75                	and	a4,a4,a3
20101288:	e701                	bnez	a4,20101290 <__call_exitprocs+0xc2>
2010128a:	855a                	mv	a0,s6
2010128c:	9782                	jalr	a5
2010128e:	bfe9                	j	20101268 <__call_exitprocs+0x9a>
20101290:	852e                	mv	a0,a1
20101292:	9782                	jalr	a5
20101294:	bfd1                	j	20101268 <__call_exitprocs+0x9a>

20101296 <metal_init>:
metal_init():
C:/VSD/FreedomStudio-3-1-1-x86_64-w64-mingw32/FreedomStudio-3-1-1/SiFive/freedom-e-sdk-v21.11.00.00/freedom-metal/src/init.c:21
extern metal_constructor_t metal_constructors_start;
extern metal_constructor_t metal_constructors_end;
extern metal_destructor_t metal_destructors_start;
extern metal_destructor_t metal_destructors_end;

void metal_init(void) {
20101296:	1101                	add	sp,sp,-32
20101298:	ce06                	sw	ra,28(sp)
2010129a:	cc22                	sw	s0,24(sp)
2010129c:	1000                	add	s0,sp,32
C:/VSD/FreedomStudio-3-1-1-x86_64-w64-mingw32/FreedomStudio-3-1-1/SiFive/freedom-e-sdk-v21.11.00.00/freedom-metal/src/init.c:24
    /* Make sure the constructors only run once */
    static int init_done = 0;
    if (init_done) {
2010129e:	800017b7          	lui	a5,0x80001
201012a2:	a407a783          	lw	a5,-1472(a5) # 80000a40 <init_done.1>
201012a6:	efa9                	bnez	a5,20101300 <metal_init+0x6a>
C:/VSD/FreedomStudio-3-1-1-x86_64-w64-mingw32/FreedomStudio-3-1-1/SiFive/freedom-e-sdk-v21.11.00.00/freedom-metal/src/init.c:27
        return;
    }
    init_done = 1;
201012a8:	800017b7          	lui	a5,0x80001
201012ac:	4705                	li	a4,1
201012ae:	a4e7a023          	sw	a4,-1472(a5) # 80000a40 <init_done.1>
C:/VSD/FreedomStudio-3-1-1-x86_64-w64-mingw32/FreedomStudio-3-1-1/SiFive/freedom-e-sdk-v21.11.00.00/freedom-metal/src/init.c:42
#ifdef METAL_SIFIVE_L2PF1
    /* Do L2 Stride Prefetcher initialization. */
    sifive_l2pf1_init();
#endif /* METAL_SIFIVE_L2PF1 */

    if (&metal_constructors_end <= &metal_constructors_start) {
201012b2:	201007b7          	lui	a5,0x20100
201012b6:	2d478713          	add	a4,a5,724 # 201002d4 <metal_sifive_fe310_g000_pll_init>
201012ba:	201007b7          	lui	a5,0x20100
201012be:	2c878793          	add	a5,a5,712 # 201002c8 <_metal_sifive_fe310_g000_pll_init_ptr>
201012c2:	04e7f163          	bgeu	a5,a4,20101304 <metal_init+0x6e>
C:/VSD/FreedomStudio-3-1-1-x86_64-w64-mingw32/FreedomStudio-3-1-1/SiFive/freedom-e-sdk-v21.11.00.00/freedom-metal/src/init.c:46
        return;
    }

    metal_constructor_t *funcptr = &metal_constructors_start;
201012c6:	201007b7          	lui	a5,0x20100
201012ca:	2c878793          	add	a5,a5,712 # 201002c8 <_metal_sifive_fe310_g000_pll_init_ptr>
201012ce:	fef42623          	sw	a5,-20(s0)
C:/VSD/FreedomStudio-3-1-1-x86_64-w64-mingw32/FreedomStudio-3-1-1/SiFive/freedom-e-sdk-v21.11.00.00/freedom-metal/src/init.c:47
    while (funcptr != &metal_constructors_end) {
201012d2:	a831                	j	201012ee <metal_init+0x58>
C:/VSD/FreedomStudio-3-1-1-x86_64-w64-mingw32/FreedomStudio-3-1-1/SiFive/freedom-e-sdk-v21.11.00.00/freedom-metal/src/init.c:48
        metal_constructor_t func = *funcptr;
201012d4:	fec42783          	lw	a5,-20(s0)
201012d8:	439c                	lw	a5,0(a5)
201012da:	fef42423          	sw	a5,-24(s0)
C:/VSD/FreedomStudio-3-1-1-x86_64-w64-mingw32/FreedomStudio-3-1-1/SiFive/freedom-e-sdk-v21.11.00.00/freedom-metal/src/init.c:50

        func();
201012de:	fe842783          	lw	a5,-24(s0)
201012e2:	9782                	jalr	a5
C:/VSD/FreedomStudio-3-1-1-x86_64-w64-mingw32/FreedomStudio-3-1-1/SiFive/freedom-e-sdk-v21.11.00.00/freedom-metal/src/init.c:52

        funcptr += 1;
201012e4:	fec42783          	lw	a5,-20(s0)
201012e8:	0791                	add	a5,a5,4
201012ea:	fef42623          	sw	a5,-20(s0)
C:/VSD/FreedomStudio-3-1-1-x86_64-w64-mingw32/FreedomStudio-3-1-1/SiFive/freedom-e-sdk-v21.11.00.00/freedom-metal/src/init.c:47
    while (funcptr != &metal_constructors_end) {
201012ee:	fec42703          	lw	a4,-20(s0)
201012f2:	201007b7          	lui	a5,0x20100
201012f6:	2d478793          	add	a5,a5,724 # 201002d4 <metal_sifive_fe310_g000_pll_init>
201012fa:	fcf71de3          	bne	a4,a5,201012d4 <metal_init+0x3e>
201012fe:	a021                	j	20101306 <metal_init+0x70>
C:/VSD/FreedomStudio-3-1-1-x86_64-w64-mingw32/FreedomStudio-3-1-1/SiFive/freedom-e-sdk-v21.11.00.00/freedom-metal/src/init.c:25
        return;
20101300:	0001                	nop
20101302:	a011                	j	20101306 <metal_init+0x70>
C:/VSD/FreedomStudio-3-1-1-x86_64-w64-mingw32/FreedomStudio-3-1-1/SiFive/freedom-e-sdk-v21.11.00.00/freedom-metal/src/init.c:43
        return;
20101304:	0001                	nop
C:/VSD/FreedomStudio-3-1-1-x86_64-w64-mingw32/FreedomStudio-3-1-1/SiFive/freedom-e-sdk-v21.11.00.00/freedom-metal/src/init.c:54
    }
}
20101306:	40f2                	lw	ra,28(sp)
20101308:	4462                	lw	s0,24(sp)
2010130a:	6105                	add	sp,sp,32
2010130c:	8082                	ret

2010130e <metal_fini>:
metal_fini():
C:/VSD/FreedomStudio-3-1-1-x86_64-w64-mingw32/FreedomStudio-3-1-1/SiFive/freedom-e-sdk-v21.11.00.00/freedom-metal/src/init.c:56

void metal_fini(void) {
2010130e:	1101                	add	sp,sp,-32
20101310:	ce06                	sw	ra,28(sp)
20101312:	cc22                	sw	s0,24(sp)
20101314:	1000                	add	s0,sp,32
C:/VSD/FreedomStudio-3-1-1-x86_64-w64-mingw32/FreedomStudio-3-1-1/SiFive/freedom-e-sdk-v21.11.00.00/freedom-metal/src/init.c:59
    /* Make sure the destructors only run once */
    static int fini_done = 0;
    if (fini_done) {
20101316:	800017b7          	lui	a5,0x80001
2010131a:	a447a783          	lw	a5,-1468(a5) # 80000a44 <fini_done.0>
2010131e:	efa9                	bnez	a5,20101378 <metal_fini+0x6a>
C:/VSD/FreedomStudio-3-1-1-x86_64-w64-mingw32/FreedomStudio-3-1-1/SiFive/freedom-e-sdk-v21.11.00.00/freedom-metal/src/init.c:62
        return;
    }
    fini_done = 1;
20101320:	800017b7          	lui	a5,0x80001
20101324:	4705                	li	a4,1
20101326:	a4e7a223          	sw	a4,-1468(a5) # 80000a44 <fini_done.0>
C:/VSD/FreedomStudio-3-1-1-x86_64-w64-mingw32/FreedomStudio-3-1-1/SiFive/freedom-e-sdk-v21.11.00.00/freedom-metal/src/init.c:64

    if (&metal_destructors_end <= &metal_destructors_start) {
2010132a:	201007b7          	lui	a5,0x20100
2010132e:	2d878713          	add	a4,a5,728 # 201002d8 <__fini_array_end>
20101332:	201007b7          	lui	a5,0x20100
20101336:	2d878793          	add	a5,a5,728 # 201002d8 <__fini_array_end>
2010133a:	04e7f163          	bgeu	a5,a4,2010137c <metal_fini+0x6e>
C:/VSD/FreedomStudio-3-1-1-x86_64-w64-mingw32/FreedomStudio-3-1-1/SiFive/freedom-e-sdk-v21.11.00.00/freedom-metal/src/init.c:68
        return;
    }

    metal_destructor_t *funcptr = &metal_destructors_start;
2010133e:	201007b7          	lui	a5,0x20100
20101342:	2d878793          	add	a5,a5,728 # 201002d8 <__fini_array_end>
20101346:	fef42623          	sw	a5,-20(s0)
C:/VSD/FreedomStudio-3-1-1-x86_64-w64-mingw32/FreedomStudio-3-1-1/SiFive/freedom-e-sdk-v21.11.00.00/freedom-metal/src/init.c:69
    while (funcptr != &metal_destructors_end) {
2010134a:	a831                	j	20101366 <metal_fini+0x58>
C:/VSD/FreedomStudio-3-1-1-x86_64-w64-mingw32/FreedomStudio-3-1-1/SiFive/freedom-e-sdk-v21.11.00.00/freedom-metal/src/init.c:70
        metal_destructor_t func = *funcptr;
2010134c:	fec42783          	lw	a5,-20(s0)
20101350:	439c                	lw	a5,0(a5)
20101352:	fef42423          	sw	a5,-24(s0)
C:/VSD/FreedomStudio-3-1-1-x86_64-w64-mingw32/FreedomStudio-3-1-1/SiFive/freedom-e-sdk-v21.11.00.00/freedom-metal/src/init.c:72

        func();
20101356:	fe842783          	lw	a5,-24(s0)
2010135a:	9782                	jalr	a5
C:/VSD/FreedomStudio-3-1-1-x86_64-w64-mingw32/FreedomStudio-3-1-1/SiFive/freedom-e-sdk-v21.11.00.00/freedom-metal/src/init.c:74

        funcptr += 1;
2010135c:	fec42783          	lw	a5,-20(s0)
20101360:	0791                	add	a5,a5,4
20101362:	fef42623          	sw	a5,-20(s0)
C:/VSD/FreedomStudio-3-1-1-x86_64-w64-mingw32/FreedomStudio-3-1-1/SiFive/freedom-e-sdk-v21.11.00.00/freedom-metal/src/init.c:69
    while (funcptr != &metal_destructors_end) {
20101366:	fec42703          	lw	a4,-20(s0)
2010136a:	201007b7          	lui	a5,0x20100
2010136e:	2d878793          	add	a5,a5,728 # 201002d8 <__fini_array_end>
20101372:	fcf71de3          	bne	a4,a5,2010134c <metal_fini+0x3e>
20101376:	a021                	j	2010137e <metal_fini+0x70>
C:/VSD/FreedomStudio-3-1-1-x86_64-w64-mingw32/FreedomStudio-3-1-1/SiFive/freedom-e-sdk-v21.11.00.00/freedom-metal/src/init.c:60
        return;
20101378:	0001                	nop
2010137a:	a011                	j	2010137e <metal_fini+0x70>
C:/VSD/FreedomStudio-3-1-1-x86_64-w64-mingw32/FreedomStudio-3-1-1/SiFive/freedom-e-sdk-v21.11.00.00/freedom-metal/src/init.c:65
        return;
2010137c:	0001                	nop
C:/VSD/FreedomStudio-3-1-1-x86_64-w64-mingw32/FreedomStudio-3-1-1/SiFive/freedom-e-sdk-v21.11.00.00/freedom-metal/src/init.c:76
    }
}
2010137e:	40f2                	lw	ra,28(sp)
20101380:	4462                	lw	s0,24(sp)
20101382:	6105                	add	sp,sp,32
20101384:	8082                	ret

20101386 <metal_init_run>:
metal_init_run():
C:/VSD/FreedomStudio-3-1-1-x86_64-w64-mingw32/FreedomStudio-3-1-1/SiFive/freedom-e-sdk-v21.11.00.00/freedom-metal/src/init.c:86
 * in the case that users don't want the metal constructors or
 * destructors to run.
 */

void metal_init_run(void) __attribute__((weak));
void metal_init_run(void) { metal_init(); }
20101386:	1141                	add	sp,sp,-16
20101388:	c606                	sw	ra,12(sp)
2010138a:	c422                	sw	s0,8(sp)
2010138c:	0800                	add	s0,sp,16
2010138e:	3721                	jal	20101296 <metal_init>
20101390:	0001                	nop
20101392:	40b2                	lw	ra,12(sp)
20101394:	4422                	lw	s0,8(sp)
20101396:	0141                	add	sp,sp,16
20101398:	8082                	ret

2010139a <metal_fini_run>:
metal_fini_run():
C:/VSD/FreedomStudio-3-1-1-x86_64-w64-mingw32/FreedomStudio-3-1-1/SiFive/freedom-e-sdk-v21.11.00.00/freedom-metal/src/init.c:89

void metal_fini_run(void) __attribute__((weak));
void metal_fini_run(void) { metal_fini(); }
2010139a:	1141                	add	sp,sp,-16
2010139c:	c606                	sw	ra,12(sp)
2010139e:	c422                	sw	s0,8(sp)
201013a0:	0800                	add	s0,sp,16
201013a2:	37b5                	jal	2010130e <metal_fini>
201013a4:	0001                	nop
201013a6:	40b2                	lw	ra,12(sp)
201013a8:	4422                	lw	s0,8(sp)
201013aa:	0141                	add	sp,sp,16
201013ac:	8082                	ret

201013ae <__metal_driver_sifive_clint0_control_base>:
__metal_driver_sifive_clint0_control_base():
C:\VSD\FreedomStudio-3-1-1-x86_64-w64-mingw32\FreedomStudio-3-1-1\SiFive\freedom-e-sdk-v21.11.00.00\bsp\sifive-hifive1\build\debug/./metal/machine.h:208
/* --------------------- fixed_factor_clock ------------ */


/* --------------------- sifive_clint0 ------------ */
static __inline__ unsigned long __metal_driver_sifive_clint0_control_base(struct metal_interrupt *controller)
{
201013ae:	1101                	add	sp,sp,-32
201013b0:	ce22                	sw	s0,28(sp)
201013b2:	1000                	add	s0,sp,32
201013b4:	fea42623          	sw	a0,-20(s0)
C:\VSD\FreedomStudio-3-1-1-x86_64-w64-mingw32\FreedomStudio-3-1-1\SiFive\freedom-e-sdk-v21.11.00.00\bsp\sifive-hifive1\build\debug/./metal/machine.h:209
	if ((uintptr_t)controller == (uintptr_t)&__metal_dt_clint_2000000) {
201013b8:	fec42703          	lw	a4,-20(s0)
201013bc:	800017b7          	lui	a5,0x80001
201013c0:	a1c78793          	add	a5,a5,-1508 # 80000a1c <__metal_dt_clint_2000000>
201013c4:	00f71563          	bne	a4,a5,201013ce <__metal_driver_sifive_clint0_control_base+0x20>
C:\VSD\FreedomStudio-3-1-1-x86_64-w64-mingw32\FreedomStudio-3-1-1\SiFive\freedom-e-sdk-v21.11.00.00\bsp\sifive-hifive1\build\debug/./metal/machine.h:210
		return METAL_RISCV_CLINT0_2000000_BASE_ADDRESS;
201013c8:	020007b7          	lui	a5,0x2000
201013cc:	a011                	j	201013d0 <__metal_driver_sifive_clint0_control_base+0x22>
C:\VSD\FreedomStudio-3-1-1-x86_64-w64-mingw32\FreedomStudio-3-1-1\SiFive\freedom-e-sdk-v21.11.00.00\bsp\sifive-hifive1\build\debug/./metal/machine.h:213
	}
	else {
		return 0;
201013ce:	4781                	li	a5,0
C:\VSD\FreedomStudio-3-1-1-x86_64-w64-mingw32\FreedomStudio-3-1-1\SiFive\freedom-e-sdk-v21.11.00.00\bsp\sifive-hifive1\build\debug/./metal/machine.h:215
	}
}
201013d0:	853e                	mv	a0,a5
201013d2:	4472                	lw	s0,28(sp)
201013d4:	6105                	add	sp,sp,32
201013d6:	8082                	ret

201013d8 <__metal_driver_sifive_clint0_num_interrupts>:
__metal_driver_sifive_clint0_num_interrupts():
C:\VSD\FreedomStudio-3-1-1-x86_64-w64-mingw32\FreedomStudio-3-1-1\SiFive\freedom-e-sdk-v21.11.00.00\bsp\sifive-hifive1\build\debug/./metal/machine.h:228
		return 0;
	}
}

static __inline__ int __metal_driver_sifive_clint0_num_interrupts(struct metal_interrupt *controller)
{
201013d8:	1101                	add	sp,sp,-32
201013da:	ce22                	sw	s0,28(sp)
201013dc:	1000                	add	s0,sp,32
201013de:	fea42623          	sw	a0,-20(s0)
C:\VSD\FreedomStudio-3-1-1-x86_64-w64-mingw32\FreedomStudio-3-1-1\SiFive\freedom-e-sdk-v21.11.00.00\bsp\sifive-hifive1\build\debug/./metal/machine.h:229
	if ((uintptr_t)controller == (uintptr_t)&__metal_dt_clint_2000000) {
201013e2:	fec42703          	lw	a4,-20(s0)
201013e6:	800017b7          	lui	a5,0x80001
201013ea:	a1c78793          	add	a5,a5,-1508 # 80000a1c <__metal_dt_clint_2000000>
201013ee:	00f71463          	bne	a4,a5,201013f6 <__metal_driver_sifive_clint0_num_interrupts+0x1e>
C:\VSD\FreedomStudio-3-1-1-x86_64-w64-mingw32\FreedomStudio-3-1-1\SiFive\freedom-e-sdk-v21.11.00.00\bsp\sifive-hifive1\build\debug/./metal/machine.h:230
		return METAL_MAX_CLINT_INTERRUPTS;
201013f2:	4789                	li	a5,2
201013f4:	a011                	j	201013f8 <__metal_driver_sifive_clint0_num_interrupts+0x20>
C:\VSD\FreedomStudio-3-1-1-x86_64-w64-mingw32\FreedomStudio-3-1-1\SiFive\freedom-e-sdk-v21.11.00.00\bsp\sifive-hifive1\build\debug/./metal/machine.h:233
	}
	else {
		return 0;
201013f6:	4781                	li	a5,0
C:\VSD\FreedomStudio-3-1-1-x86_64-w64-mingw32\FreedomStudio-3-1-1\SiFive\freedom-e-sdk-v21.11.00.00\bsp\sifive-hifive1\build\debug/./metal/machine.h:235
	}
}
201013f8:	853e                	mv	a0,a5
201013fa:	4472                	lw	s0,28(sp)
201013fc:	6105                	add	sp,sp,32
201013fe:	8082                	ret

20101400 <__metal_driver_sifive_clint0_interrupt_parents>:
__metal_driver_sifive_clint0_interrupt_parents():
C:\VSD\FreedomStudio-3-1-1-x86_64-w64-mingw32\FreedomStudio-3-1-1\SiFive\freedom-e-sdk-v21.11.00.00\bsp\sifive-hifive1\build\debug/./metal/machine.h:238

static __inline__ struct metal_interrupt * __metal_driver_sifive_clint0_interrupt_parents(struct metal_interrupt *controller, int idx)
{
20101400:	1101                	add	sp,sp,-32
20101402:	ce22                	sw	s0,28(sp)
20101404:	1000                	add	s0,sp,32
20101406:	fea42623          	sw	a0,-20(s0)
2010140a:	feb42423          	sw	a1,-24(s0)
C:\VSD\FreedomStudio-3-1-1-x86_64-w64-mingw32\FreedomStudio-3-1-1\SiFive\freedom-e-sdk-v21.11.00.00\bsp\sifive-hifive1\build\debug/./metal/machine.h:239
	if (idx == 0) {
2010140e:	fe842783          	lw	a5,-24(s0)
20101412:	e791                	bnez	a5,2010141e <__metal_driver_sifive_clint0_interrupt_parents+0x1e>
C:\VSD\FreedomStudio-3-1-1-x86_64-w64-mingw32\FreedomStudio-3-1-1\SiFive\freedom-e-sdk-v21.11.00.00\bsp\sifive-hifive1\build\debug/./metal/machine.h:240
		return (struct metal_interrupt *)&__metal_dt_cpu_0_interrupt_controller.controller;
20101414:	800007b7          	lui	a5,0x80000
20101418:	02878793          	add	a5,a5,40 # 80000028 <__metal_dt_cpu_0_interrupt_controller>
2010141c:	a821                	j	20101434 <__metal_driver_sifive_clint0_interrupt_parents+0x34>
C:\VSD\FreedomStudio-3-1-1-x86_64-w64-mingw32\FreedomStudio-3-1-1\SiFive\freedom-e-sdk-v21.11.00.00\bsp\sifive-hifive1\build\debug/./metal/machine.h:242
	}
	else if (idx == 1) {
2010141e:	fe842703          	lw	a4,-24(s0)
20101422:	4785                	li	a5,1
20101424:	00f71763          	bne	a4,a5,20101432 <__metal_driver_sifive_clint0_interrupt_parents+0x32>
C:\VSD\FreedomStudio-3-1-1-x86_64-w64-mingw32\FreedomStudio-3-1-1\SiFive\freedom-e-sdk-v21.11.00.00\bsp\sifive-hifive1\build\debug/./metal/machine.h:243
		return (struct metal_interrupt *)&__metal_dt_cpu_0_interrupt_controller.controller;
20101428:	800007b7          	lui	a5,0x80000
2010142c:	02878793          	add	a5,a5,40 # 80000028 <__metal_dt_cpu_0_interrupt_controller>
20101430:	a011                	j	20101434 <__metal_driver_sifive_clint0_interrupt_parents+0x34>
C:\VSD\FreedomStudio-3-1-1-x86_64-w64-mingw32\FreedomStudio-3-1-1\SiFive\freedom-e-sdk-v21.11.00.00\bsp\sifive-hifive1\build\debug/./metal/machine.h:246
	}
	else {
		return NULL;
20101432:	4781                	li	a5,0
C:\VSD\FreedomStudio-3-1-1-x86_64-w64-mingw32\FreedomStudio-3-1-1\SiFive\freedom-e-sdk-v21.11.00.00\bsp\sifive-hifive1\build\debug/./metal/machine.h:248
	}
}
20101434:	853e                	mv	a0,a5
20101436:	4472                	lw	s0,28(sp)
20101438:	6105                	add	sp,sp,32
2010143a:	8082                	ret

2010143c <__metal_driver_sifive_clint0_interrupt_lines>:
__metal_driver_sifive_clint0_interrupt_lines():
C:\VSD\FreedomStudio-3-1-1-x86_64-w64-mingw32\FreedomStudio-3-1-1\SiFive\freedom-e-sdk-v21.11.00.00\bsp\sifive-hifive1\build\debug/./metal/machine.h:251

static __inline__ int __metal_driver_sifive_clint0_interrupt_lines(struct metal_interrupt *controller, int idx)
{
2010143c:	1101                	add	sp,sp,-32
2010143e:	ce22                	sw	s0,28(sp)
20101440:	1000                	add	s0,sp,32
20101442:	fea42623          	sw	a0,-20(s0)
20101446:	feb42423          	sw	a1,-24(s0)
C:\VSD\FreedomStudio-3-1-1-x86_64-w64-mingw32\FreedomStudio-3-1-1\SiFive\freedom-e-sdk-v21.11.00.00\bsp\sifive-hifive1\build\debug/./metal/machine.h:252
	if (idx == 0) {
2010144a:	fe842783          	lw	a5,-24(s0)
2010144e:	e399                	bnez	a5,20101454 <__metal_driver_sifive_clint0_interrupt_lines+0x18>
C:\VSD\FreedomStudio-3-1-1-x86_64-w64-mingw32\FreedomStudio-3-1-1\SiFive\freedom-e-sdk-v21.11.00.00\bsp\sifive-hifive1\build\debug/./metal/machine.h:253
		return 3;
20101450:	478d                	li	a5,3
20101452:	a809                	j	20101464 <__metal_driver_sifive_clint0_interrupt_lines+0x28>
C:\VSD\FreedomStudio-3-1-1-x86_64-w64-mingw32\FreedomStudio-3-1-1\SiFive\freedom-e-sdk-v21.11.00.00\bsp\sifive-hifive1\build\debug/./metal/machine.h:255
	}
	else if (idx == 1) {
20101454:	fe842703          	lw	a4,-24(s0)
20101458:	4785                	li	a5,1
2010145a:	00f71463          	bne	a4,a5,20101462 <__metal_driver_sifive_clint0_interrupt_lines+0x26>
C:\VSD\FreedomStudio-3-1-1-x86_64-w64-mingw32\FreedomStudio-3-1-1\SiFive\freedom-e-sdk-v21.11.00.00\bsp\sifive-hifive1\build\debug/./metal/machine.h:256
		return 7;
2010145e:	479d                	li	a5,7
20101460:	a011                	j	20101464 <__metal_driver_sifive_clint0_interrupt_lines+0x28>
C:\VSD\FreedomStudio-3-1-1-x86_64-w64-mingw32\FreedomStudio-3-1-1\SiFive\freedom-e-sdk-v21.11.00.00\bsp\sifive-hifive1\build\debug/./metal/machine.h:259
	}
	else {
		return 0;
20101462:	4781                	li	a5,0
C:\VSD\FreedomStudio-3-1-1-x86_64-w64-mingw32\FreedomStudio-3-1-1\SiFive\freedom-e-sdk-v21.11.00.00\bsp\sifive-hifive1\build\debug/./metal/machine.h:261
	}
}
20101464:	853e                	mv	a0,a5
20101466:	4472                	lw	s0,28(sp)
20101468:	6105                	add	sp,sp,32
2010146a:	8082                	ret

2010146c <__metal_clint0_mtime_get>:
__metal_clint0_mtime_get():
C:/VSD/FreedomStudio-3-1-1-x86_64-w64-mingw32/FreedomStudio-3-1-1/SiFive/freedom-e-sdk-v21.11.00.00/freedom-metal/src/drivers/riscv_clint0.c:14
#include <metal/drivers/riscv_clint0.h>
#include <metal/io.h>
#include <metal/machine.h>

unsigned long long
__metal_clint0_mtime_get(struct __metal_driver_riscv_clint0 *clint) {
2010146c:	715d                	add	sp,sp,-80
2010146e:	c686                	sw	ra,76(sp)
20101470:	c4a2                	sw	s0,72(sp)
20101472:	c2ca                	sw	s2,68(sp)
20101474:	c0ce                	sw	s3,64(sp)
20101476:	de52                	sw	s4,60(sp)
20101478:	dc56                	sw	s5,56(sp)
2010147a:	da5a                	sw	s6,52(sp)
2010147c:	d85e                	sw	s7,48(sp)
2010147e:	d662                	sw	s8,44(sp)
20101480:	d466                	sw	s9,40(sp)
20101482:	0880                	add	s0,sp,80
20101484:	faa42e23          	sw	a0,-68(s0)
C:/VSD/FreedomStudio-3-1-1-x86_64-w64-mingw32/FreedomStudio-3-1-1/SiFive/freedom-e-sdk-v21.11.00.00/freedom-metal/src/drivers/riscv_clint0.c:17
    __metal_io_u32 lo, hi;
    unsigned long control_base =
        __metal_driver_sifive_clint0_control_base(&clint->controller);
20101488:	fbc42783          	lw	a5,-68(s0)
2010148c:	853e                	mv	a0,a5
2010148e:	3705                	jal	201013ae <__metal_driver_sifive_clint0_control_base>
20101490:	fca42623          	sw	a0,-52(s0)
C:/VSD/FreedomStudio-3-1-1-x86_64-w64-mingw32/FreedomStudio-3-1-1/SiFive/freedom-e-sdk-v21.11.00.00/freedom-metal/src/drivers/riscv_clint0.c:21

    /* Guard against rollover when reading */
    do {
        hi = __METAL_ACCESS_ONCE(
20101494:	fcc42703          	lw	a4,-52(s0)
20101498:	67b1                	lui	a5,0xc
2010149a:	17f1                	add	a5,a5,-4 # bffc <__heap_size+0xb7fc>
2010149c:	97ba                	add	a5,a5,a4
2010149e:	439c                	lw	a5,0(a5)
201014a0:	fcf42423          	sw	a5,-56(s0)
C:/VSD/FreedomStudio-3-1-1-x86_64-w64-mingw32/FreedomStudio-3-1-1/SiFive/freedom-e-sdk-v21.11.00.00/freedom-metal/src/drivers/riscv_clint0.c:23
            (__metal_io_u32 *)(control_base + METAL_RISCV_CLINT0_MTIME + 4));
        lo = __METAL_ACCESS_ONCE(
201014a4:	fcc42703          	lw	a4,-52(s0)
201014a8:	67b1                	lui	a5,0xc
201014aa:	17e1                	add	a5,a5,-8 # bff8 <__heap_size+0xb7f8>
201014ac:	97ba                	add	a5,a5,a4
201014ae:	439c                	lw	a5,0(a5)
201014b0:	fcf42223          	sw	a5,-60(s0)
C:/VSD/FreedomStudio-3-1-1-x86_64-w64-mingw32/FreedomStudio-3-1-1/SiFive/freedom-e-sdk-v21.11.00.00/freedom-metal/src/drivers/riscv_clint0.c:25
            (__metal_io_u32 *)(control_base + METAL_RISCV_CLINT0_MTIME));
    } while (__METAL_ACCESS_ONCE((__metal_io_u32 *)(control_base +
201014b4:	fcc42703          	lw	a4,-52(s0)
201014b8:	67b1                	lui	a5,0xc
201014ba:	17f1                	add	a5,a5,-4 # bffc <__heap_size+0xb7fc>
201014bc:	97ba                	add	a5,a5,a4
201014be:	439c                	lw	a5,0(a5)
C:/VSD/FreedomStudio-3-1-1-x86_64-w64-mingw32/FreedomStudio-3-1-1/SiFive/freedom-e-sdk-v21.11.00.00/freedom-metal/src/drivers/riscv_clint0.c:27 (discriminator 1)
                                                    METAL_RISCV_CLINT0_MTIME +
                                                    4)) != hi);
201014c0:	fc842703          	lw	a4,-56(s0)
201014c4:	fcf718e3          	bne	a4,a5,20101494 <__metal_clint0_mtime_get+0x28>
C:/VSD/FreedomStudio-3-1-1-x86_64-w64-mingw32/FreedomStudio-3-1-1/SiFive/freedom-e-sdk-v21.11.00.00/freedom-metal/src/drivers/riscv_clint0.c:29

    return (((unsigned long long)hi) << 32) | lo;
201014c8:	fc842783          	lw	a5,-56(s0)
201014cc:	8c3e                	mv	s8,a5
201014ce:	4c81                	li	s9,0
201014d0:	000c1993          	sll	s3,s8,0x0
201014d4:	4901                	li	s2,0
201014d6:	fc442783          	lw	a5,-60(s0)
201014da:	8a3e                	mv	s4,a5
201014dc:	4a81                	li	s5,0
201014de:	01496b33          	or	s6,s2,s4
201014e2:	0159ebb3          	or	s7,s3,s5
C:/VSD/FreedomStudio-3-1-1-x86_64-w64-mingw32/FreedomStudio-3-1-1/SiFive/freedom-e-sdk-v21.11.00.00/freedom-metal/src/drivers/riscv_clint0.c:29 (discriminator 1)
201014e6:	875a                	mv	a4,s6
201014e8:	87de                	mv	a5,s7
C:/VSD/FreedomStudio-3-1-1-x86_64-w64-mingw32/FreedomStudio-3-1-1/SiFive/freedom-e-sdk-v21.11.00.00/freedom-metal/src/drivers/riscv_clint0.c:30
}
201014ea:	853a                	mv	a0,a4
201014ec:	85be                	mv	a1,a5
201014ee:	40b6                	lw	ra,76(sp)
201014f0:	4426                	lw	s0,72(sp)
201014f2:	4916                	lw	s2,68(sp)
201014f4:	4986                	lw	s3,64(sp)
201014f6:	5a72                	lw	s4,60(sp)
201014f8:	5ae2                	lw	s5,56(sp)
201014fa:	5b52                	lw	s6,52(sp)
201014fc:	5bc2                	lw	s7,48(sp)
201014fe:	5c32                	lw	s8,44(sp)
20101500:	5ca2                	lw	s9,40(sp)
20101502:	6161                	add	sp,sp,80
20101504:	8082                	ret

20101506 <__metal_driver_riscv_clint0_mtimecmp_set>:
__metal_driver_riscv_clint0_mtimecmp_set():
C:/VSD/FreedomStudio-3-1-1-x86_64-w64-mingw32/FreedomStudio-3-1-1/SiFive/freedom-e-sdk-v21.11.00.00/freedom-metal/src/drivers/riscv_clint0.c:34

int __metal_driver_riscv_clint0_mtimecmp_set(struct metal_interrupt *controller,
                                             int hartid,
                                             unsigned long long time) {
20101506:	7179                	add	sp,sp,-48
20101508:	d606                	sw	ra,44(sp)
2010150a:	d422                	sw	s0,40(sp)
2010150c:	d24a                	sw	s2,36(sp)
2010150e:	d04e                	sw	s3,32(sp)
20101510:	1800                	add	s0,sp,48
20101512:	fca42e23          	sw	a0,-36(s0)
20101516:	fcb42c23          	sw	a1,-40(s0)
2010151a:	fcc42823          	sw	a2,-48(s0)
2010151e:	fcd42a23          	sw	a3,-44(s0)
C:/VSD/FreedomStudio-3-1-1-x86_64-w64-mingw32/FreedomStudio-3-1-1/SiFive/freedom-e-sdk-v21.11.00.00/freedom-metal/src/drivers/riscv_clint0.c:35
    struct __metal_driver_riscv_clint0 *clint =
20101522:	fdc42783          	lw	a5,-36(s0)
20101526:	fef42623          	sw	a5,-20(s0)
C:/VSD/FreedomStudio-3-1-1-x86_64-w64-mingw32/FreedomStudio-3-1-1/SiFive/freedom-e-sdk-v21.11.00.00/freedom-metal/src/drivers/riscv_clint0.c:38
        (struct __metal_driver_riscv_clint0 *)(controller);
    unsigned long control_base =
        __metal_driver_sifive_clint0_control_base(&clint->controller);
2010152a:	fec42783          	lw	a5,-20(s0)
2010152e:	853e                	mv	a0,a5
20101530:	3dbd                	jal	201013ae <__metal_driver_sifive_clint0_control_base>
20101532:	fea42423          	sw	a0,-24(s0)
C:/VSD/FreedomStudio-3-1-1-x86_64-w64-mingw32/FreedomStudio-3-1-1/SiFive/freedom-e-sdk-v21.11.00.00/freedom-metal/src/drivers/riscv_clint0.c:45
     * and are NOT internally latched for multiword transfers.
     * Need to be careful about sequencing to avoid triggering
     * spurious interrupts: For that set the high word to a max
     * value first.
     */
    __METAL_ACCESS_ONCE((__metal_io_u32 *)(control_base + (8 * hartid) +
20101536:	fd842783          	lw	a5,-40(s0)
2010153a:	078e                	sll	a5,a5,0x3
2010153c:	873e                	mv	a4,a5
2010153e:	fe842783          	lw	a5,-24(s0)
20101542:	973e                	add	a4,a4,a5
20101544:	6791                	lui	a5,0x4
20101546:	0791                	add	a5,a5,4 # 4004 <__heap_size+0x3804>
20101548:	97ba                	add	a5,a5,a4
2010154a:	873e                	mv	a4,a5
C:/VSD/FreedomStudio-3-1-1-x86_64-w64-mingw32/FreedomStudio-3-1-1/SiFive/freedom-e-sdk-v21.11.00.00/freedom-metal/src/drivers/riscv_clint0.c:47
                                           METAL_RISCV_CLINT0_MTIMECMP_BASE +
                                           4)) = 0xFFFFFFFF;
2010154c:	57fd                	li	a5,-1
2010154e:	c31c                	sw	a5,0(a4)
C:/VSD/FreedomStudio-3-1-1-x86_64-w64-mingw32/FreedomStudio-3-1-1/SiFive/freedom-e-sdk-v21.11.00.00/freedom-metal/src/drivers/riscv_clint0.c:48
    __METAL_ACCESS_ONCE((__metal_io_u32 *)(control_base + (8 * hartid) +
20101550:	fd842783          	lw	a5,-40(s0)
20101554:	078e                	sll	a5,a5,0x3
20101556:	873e                	mv	a4,a5
20101558:	fe842783          	lw	a5,-24(s0)
2010155c:	973e                	add	a4,a4,a5
2010155e:	6791                	lui	a5,0x4
20101560:	97ba                	add	a5,a5,a4
20101562:	873e                	mv	a4,a5
C:/VSD/FreedomStudio-3-1-1-x86_64-w64-mingw32/FreedomStudio-3-1-1/SiFive/freedom-e-sdk-v21.11.00.00/freedom-metal/src/drivers/riscv_clint0.c:50
                                           METAL_RISCV_CLINT0_MTIMECMP_BASE)) =
        (__metal_io_u32)time;
20101564:	fd042783          	lw	a5,-48(s0)
C:/VSD/FreedomStudio-3-1-1-x86_64-w64-mingw32/FreedomStudio-3-1-1/SiFive/freedom-e-sdk-v21.11.00.00/freedom-metal/src/drivers/riscv_clint0.c:49
                                           METAL_RISCV_CLINT0_MTIMECMP_BASE)) =
20101568:	c31c                	sw	a5,0(a4)
C:/VSD/FreedomStudio-3-1-1-x86_64-w64-mingw32/FreedomStudio-3-1-1/SiFive/freedom-e-sdk-v21.11.00.00/freedom-metal/src/drivers/riscv_clint0.c:53
    __METAL_ACCESS_ONCE((__metal_io_u32 *)(control_base + (8 * hartid) +
                                           METAL_RISCV_CLINT0_MTIMECMP_BASE +
                                           4)) = (__metal_io_u32)(time >> 32);
2010156a:	fd442783          	lw	a5,-44(s0)
2010156e:	0007d913          	srl	s2,a5,0x0
20101572:	4981                	li	s3,0
C:/VSD/FreedomStudio-3-1-1-x86_64-w64-mingw32/FreedomStudio-3-1-1/SiFive/freedom-e-sdk-v21.11.00.00/freedom-metal/src/drivers/riscv_clint0.c:51
    __METAL_ACCESS_ONCE((__metal_io_u32 *)(control_base + (8 * hartid) +
20101574:	fd842783          	lw	a5,-40(s0)
20101578:	078e                	sll	a5,a5,0x3
2010157a:	873e                	mv	a4,a5
2010157c:	fe842783          	lw	a5,-24(s0)
20101580:	973e                	add	a4,a4,a5
20101582:	6791                	lui	a5,0x4
20101584:	0791                	add	a5,a5,4 # 4004 <__heap_size+0x3804>
20101586:	97ba                	add	a5,a5,a4
C:/VSD/FreedomStudio-3-1-1-x86_64-w64-mingw32/FreedomStudio-3-1-1/SiFive/freedom-e-sdk-v21.11.00.00/freedom-metal/src/drivers/riscv_clint0.c:53
                                           4)) = (__metal_io_u32)(time >> 32);
20101588:	874a                	mv	a4,s2
2010158a:	c398                	sw	a4,0(a5)
C:/VSD/FreedomStudio-3-1-1-x86_64-w64-mingw32/FreedomStudio-3-1-1/SiFive/freedom-e-sdk-v21.11.00.00/freedom-metal/src/drivers/riscv_clint0.c:54
    return 0;
2010158c:	4781                	li	a5,0
C:/VSD/FreedomStudio-3-1-1-x86_64-w64-mingw32/FreedomStudio-3-1-1/SiFive/freedom-e-sdk-v21.11.00.00/freedom-metal/src/drivers/riscv_clint0.c:55
}
2010158e:	853e                	mv	a0,a5
20101590:	50b2                	lw	ra,44(sp)
20101592:	5422                	lw	s0,40(sp)
20101594:	5912                	lw	s2,36(sp)
20101596:	5982                	lw	s3,32(sp)
20101598:	6145                	add	sp,sp,48
2010159a:	8082                	ret

2010159c <_get_cpu_intc>:
_get_cpu_intc():
C:/VSD/FreedomStudio-3-1-1-x86_64-w64-mingw32/FreedomStudio-3-1-1/SiFive/freedom-e-sdk-v21.11.00.00/freedom-metal/src/drivers/riscv_clint0.c:57

static struct metal_interrupt *_get_cpu_intc() {
2010159c:	1101                	add	sp,sp,-32
2010159e:	ce06                	sw	ra,28(sp)
201015a0:	cc22                	sw	s0,24(sp)
201015a2:	1000                	add	s0,sp,32
C:/VSD/FreedomStudio-3-1-1-x86_64-w64-mingw32/FreedomStudio-3-1-1/SiFive/freedom-e-sdk-v21.11.00.00/freedom-metal/src/drivers/riscv_clint0.c:58
    int hartid = 0;
201015a4:	fe042623          	sw	zero,-20(s0)
C:/VSD/FreedomStudio-3-1-1-x86_64-w64-mingw32/FreedomStudio-3-1-1/SiFive/freedom-e-sdk-v21.11.00.00/freedom-metal/src/drivers/riscv_clint0.c:59
    __asm__ volatile("csrr %[hartid], mhartid"
201015a8:	f14027f3          	csrr	a5,mhartid
201015ac:	fef42623          	sw	a5,-20(s0)
C:/VSD/FreedomStudio-3-1-1-x86_64-w64-mingw32/FreedomStudio-3-1-1/SiFive/freedom-e-sdk-v21.11.00.00/freedom-metal/src/drivers/riscv_clint0.c:62
                     : [hartid] "=r"(hartid)::"memory");

    struct metal_cpu *cpu = metal_cpu_get(hartid);
201015b0:	fec42783          	lw	a5,-20(s0)
201015b4:	853e                	mv	a0,a5
201015b6:	1d4040ef          	jal	2010578a <metal_cpu_get>
201015ba:	fea42423          	sw	a0,-24(s0)
C:/VSD/FreedomStudio-3-1-1-x86_64-w64-mingw32/FreedomStudio-3-1-1/SiFive/freedom-e-sdk-v21.11.00.00/freedom-metal/src/drivers/riscv_clint0.c:64

    return metal_cpu_interrupt_controller(cpu);
201015be:	fe842503          	lw	a0,-24(s0)
201015c2:	1a2040ef          	jal	20105764 <metal_cpu_interrupt_controller>
201015c6:	87aa                	mv	a5,a0
C:/VSD/FreedomStudio-3-1-1-x86_64-w64-mingw32/FreedomStudio-3-1-1/SiFive/freedom-e-sdk-v21.11.00.00/freedom-metal/src/drivers/riscv_clint0.c:65
}
201015c8:	853e                	mv	a0,a5
201015ca:	40f2                	lw	ra,28(sp)
201015cc:	4462                	lw	s0,24(sp)
201015ce:	6105                	add	sp,sp,32
201015d0:	8082                	ret

201015d2 <__metal_driver_riscv_clint0_init>:
__metal_driver_riscv_clint0_init():
C:/VSD/FreedomStudio-3-1-1-x86_64-w64-mingw32/FreedomStudio-3-1-1/SiFive/freedom-e-sdk-v21.11.00.00/freedom-metal/src/drivers/riscv_clint0.c:67

void __metal_driver_riscv_clint0_init(struct metal_interrupt *controller) {
201015d2:	7139                	add	sp,sp,-64
201015d4:	de06                	sw	ra,60(sp)
201015d6:	dc22                	sw	s0,56(sp)
201015d8:	0080                	add	s0,sp,64
201015da:	fca42623          	sw	a0,-52(s0)
C:/VSD/FreedomStudio-3-1-1-x86_64-w64-mingw32/FreedomStudio-3-1-1/SiFive/freedom-e-sdk-v21.11.00.00/freedom-metal/src/drivers/riscv_clint0.c:69
    int num_interrupts =
        __metal_driver_sifive_clint0_num_interrupts(controller);
201015de:	fcc42503          	lw	a0,-52(s0)
201015e2:	3bdd                	jal	201013d8 <__metal_driver_sifive_clint0_num_interrupts>
201015e4:	fea42423          	sw	a0,-24(s0)
C:/VSD/FreedomStudio-3-1-1-x86_64-w64-mingw32/FreedomStudio-3-1-1/SiFive/freedom-e-sdk-v21.11.00.00/freedom-metal/src/drivers/riscv_clint0.c:70
    struct __metal_driver_riscv_clint0 *clint =
201015e8:	fcc42783          	lw	a5,-52(s0)
201015ec:	fef42223          	sw	a5,-28(s0)
C:/VSD/FreedomStudio-3-1-1-x86_64-w64-mingw32/FreedomStudio-3-1-1/SiFive/freedom-e-sdk-v21.11.00.00/freedom-metal/src/drivers/riscv_clint0.c:73
        (struct __metal_driver_riscv_clint0 *)(controller);

    if (!clint->init_done) {
201015f0:	fe442783          	lw	a5,-28(s0)
201015f4:	43dc                	lw	a5,4(a5)
201015f6:	efa9                	bnez	a5,20101650 <__metal_driver_riscv_clint0_init+0x7e>
C:/VSD/FreedomStudio-3-1-1-x86_64-w64-mingw32/FreedomStudio-3-1-1/SiFive/freedom-e-sdk-v21.11.00.00/freedom-metal/src/drivers/riscv_clint0.c:76
        /* Register its interrupts with with parent controller, aka sw and
         * timerto its default isr */
        for (int i = 0; i < num_interrupts; i++) {
201015f8:	fe042623          	sw	zero,-20(s0)
201015fc:	a081                	j	2010163c <__metal_driver_riscv_clint0_init+0x6a>
C:/VSD/FreedomStudio-3-1-1-x86_64-w64-mingw32/FreedomStudio-3-1-1/SiFive/freedom-e-sdk-v21.11.00.00/freedom-metal/src/drivers/riscv_clint0.c:78
            struct metal_interrupt *intc =
                __metal_driver_sifive_clint0_interrupt_parents(controller, i);
201015fe:	fec42583          	lw	a1,-20(s0)
20101602:	fcc42503          	lw	a0,-52(s0)
20101606:	3bed                	jal	20101400 <__metal_driver_sifive_clint0_interrupt_parents>
20101608:	fea42023          	sw	a0,-32(s0)
C:/VSD/FreedomStudio-3-1-1-x86_64-w64-mingw32/FreedomStudio-3-1-1/SiFive/freedom-e-sdk-v21.11.00.00/freedom-metal/src/drivers/riscv_clint0.c:80
            int line =
                __metal_driver_sifive_clint0_interrupt_lines(controller, i);
2010160c:	fec42583          	lw	a1,-20(s0)
20101610:	fcc42503          	lw	a0,-52(s0)
20101614:	3525                	jal	2010143c <__metal_driver_sifive_clint0_interrupt_lines>
20101616:	fca42e23          	sw	a0,-36(s0)
C:/VSD/FreedomStudio-3-1-1-x86_64-w64-mingw32/FreedomStudio-3-1-1/SiFive/freedom-e-sdk-v21.11.00.00/freedom-metal/src/drivers/riscv_clint0.c:81
            intc->vtable->interrupt_register(intc, line, NULL, controller);
2010161a:	fe042783          	lw	a5,-32(s0)
2010161e:	439c                	lw	a5,0(a5)
20101620:	4fdc                	lw	a5,28(a5)
20101622:	fcc42683          	lw	a3,-52(s0)
20101626:	4601                	li	a2,0
20101628:	fdc42583          	lw	a1,-36(s0)
2010162c:	fe042503          	lw	a0,-32(s0)
20101630:	9782                	jalr	a5
C:/VSD/FreedomStudio-3-1-1-x86_64-w64-mingw32/FreedomStudio-3-1-1/SiFive/freedom-e-sdk-v21.11.00.00/freedom-metal/src/drivers/riscv_clint0.c:76 (discriminator 3)
        for (int i = 0; i < num_interrupts; i++) {
20101632:	fec42783          	lw	a5,-20(s0)
20101636:	0785                	add	a5,a5,1
20101638:	fef42623          	sw	a5,-20(s0)
C:/VSD/FreedomStudio-3-1-1-x86_64-w64-mingw32/FreedomStudio-3-1-1/SiFive/freedom-e-sdk-v21.11.00.00/freedom-metal/src/drivers/riscv_clint0.c:76 (discriminator 1)
2010163c:	fec42703          	lw	a4,-20(s0)
20101640:	fe842783          	lw	a5,-24(s0)
20101644:	faf74de3          	blt	a4,a5,201015fe <__metal_driver_riscv_clint0_init+0x2c>
C:/VSD/FreedomStudio-3-1-1-x86_64-w64-mingw32/FreedomStudio-3-1-1/SiFive/freedom-e-sdk-v21.11.00.00/freedom-metal/src/drivers/riscv_clint0.c:83
        }
        clint->init_done = 1;
20101648:	fe442783          	lw	a5,-28(s0)
2010164c:	4705                	li	a4,1
2010164e:	c3d8                	sw	a4,4(a5)
C:/VSD/FreedomStudio-3-1-1-x86_64-w64-mingw32/FreedomStudio-3-1-1/SiFive/freedom-e-sdk-v21.11.00.00/freedom-metal/src/drivers/riscv_clint0.c:85
    }
}
20101650:	0001                	nop
20101652:	50f2                	lw	ra,60(sp)
20101654:	5462                	lw	s0,56(sp)
20101656:	6121                	add	sp,sp,64
20101658:	8082                	ret

2010165a <__metal_driver_riscv_clint0_register>:
__metal_driver_riscv_clint0_register():
C:/VSD/FreedomStudio-3-1-1-x86_64-w64-mingw32/FreedomStudio-3-1-1/SiFive/freedom-e-sdk-v21.11.00.00/freedom-metal/src/drivers/riscv_clint0.c:89

int __metal_driver_riscv_clint0_register(struct metal_interrupt *controller,
                                         int id, metal_interrupt_handler_t isr,
                                         void *priv) {
2010165a:	7139                	add	sp,sp,-64
2010165c:	de06                	sw	ra,60(sp)
2010165e:	dc22                	sw	s0,56(sp)
20101660:	0080                	add	s0,sp,64
20101662:	fca42623          	sw	a0,-52(s0)
20101666:	fcb42423          	sw	a1,-56(s0)
2010166a:	fcc42223          	sw	a2,-60(s0)
2010166e:	fcd42023          	sw	a3,-64(s0)
C:/VSD/FreedomStudio-3-1-1-x86_64-w64-mingw32/FreedomStudio-3-1-1/SiFive/freedom-e-sdk-v21.11.00.00/freedom-metal/src/drivers/riscv_clint0.c:90
    int rc = -1;
20101672:	57fd                	li	a5,-1
20101674:	fef42623          	sw	a5,-20(s0)
C:/VSD/FreedomStudio-3-1-1-x86_64-w64-mingw32/FreedomStudio-3-1-1/SiFive/freedom-e-sdk-v21.11.00.00/freedom-metal/src/drivers/riscv_clint0.c:91
    metal_vector_mode mode = __metal_controller_interrupt_vector_mode();
20101678:	45c010ef          	jal	20102ad4 <__metal_controller_interrupt_vector_mode>
2010167c:	fea42023          	sw	a0,-32(s0)
C:/VSD/FreedomStudio-3-1-1-x86_64-w64-mingw32/FreedomStudio-3-1-1/SiFive/freedom-e-sdk-v21.11.00.00/freedom-metal/src/drivers/riscv_clint0.c:92
    struct metal_interrupt *intc = NULL;
20101680:	fe042423          	sw	zero,-24(s0)
C:/VSD/FreedomStudio-3-1-1-x86_64-w64-mingw32/FreedomStudio-3-1-1/SiFive/freedom-e-sdk-v21.11.00.00/freedom-metal/src/drivers/riscv_clint0.c:93
    struct metal_interrupt *cpu_intc = _get_cpu_intc();
20101684:	3f21                	jal	2010159c <_get_cpu_intc>
20101686:	fca42e23          	sw	a0,-36(s0)
C:/VSD/FreedomStudio-3-1-1-x86_64-w64-mingw32/FreedomStudio-3-1-1/SiFive/freedom-e-sdk-v21.11.00.00/freedom-metal/src/drivers/riscv_clint0.c:95
    int num_interrupts =
        __metal_driver_sifive_clint0_num_interrupts(controller);
2010168a:	fcc42503          	lw	a0,-52(s0)
2010168e:	33a9                	jal	201013d8 <__metal_driver_sifive_clint0_num_interrupts>
20101690:	fca42c23          	sw	a0,-40(s0)
C:/VSD/FreedomStudio-3-1-1-x86_64-w64-mingw32/FreedomStudio-3-1-1/SiFive/freedom-e-sdk-v21.11.00.00/freedom-metal/src/drivers/riscv_clint0.c:97

    if ((mode != METAL_VECTOR_MODE) && (mode != METAL_DIRECT_MODE)) {
20101694:	fe042703          	lw	a4,-32(s0)
20101698:	4785                	li	a5,1
2010169a:	00f70863          	beq	a4,a5,201016aa <__metal_driver_riscv_clint0_register+0x50>
C:/VSD/FreedomStudio-3-1-1-x86_64-w64-mingw32/FreedomStudio-3-1-1/SiFive/freedom-e-sdk-v21.11.00.00/freedom-metal/src/drivers/riscv_clint0.c:97 (discriminator 1)
2010169e:	fe042783          	lw	a5,-32(s0)
201016a2:	c781                	beqz	a5,201016aa <__metal_driver_riscv_clint0_register+0x50>
C:/VSD/FreedomStudio-3-1-1-x86_64-w64-mingw32/FreedomStudio-3-1-1/SiFive/freedom-e-sdk-v21.11.00.00/freedom-metal/src/drivers/riscv_clint0.c:98
        return rc;
201016a4:	fec42783          	lw	a5,-20(s0)
201016a8:	a049                	j	2010172a <__metal_driver_riscv_clint0_register+0xd0>
C:/VSD/FreedomStudio-3-1-1-x86_64-w64-mingw32/FreedomStudio-3-1-1/SiFive/freedom-e-sdk-v21.11.00.00/freedom-metal/src/drivers/riscv_clint0.c:101
    }

    for (int i = 0; i < num_interrupts; i++) {
201016aa:	fe042223          	sw	zero,-28(s0)
201016ae:	a091                	j	201016f2 <__metal_driver_riscv_clint0_register+0x98>
C:/VSD/FreedomStudio-3-1-1-x86_64-w64-mingw32/FreedomStudio-3-1-1/SiFive/freedom-e-sdk-v21.11.00.00/freedom-metal/src/drivers/riscv_clint0.c:102
        int line = __metal_driver_sifive_clint0_interrupt_lines(controller, i);
201016b0:	fe442583          	lw	a1,-28(s0)
201016b4:	fcc42503          	lw	a0,-52(s0)
201016b8:	3351                	jal	2010143c <__metal_driver_sifive_clint0_interrupt_lines>
201016ba:	fca42a23          	sw	a0,-44(s0)
C:/VSD/FreedomStudio-3-1-1-x86_64-w64-mingw32/FreedomStudio-3-1-1/SiFive/freedom-e-sdk-v21.11.00.00/freedom-metal/src/drivers/riscv_clint0.c:103
        intc = __metal_driver_sifive_clint0_interrupt_parents(controller, i);
201016be:	fe442583          	lw	a1,-28(s0)
201016c2:	fcc42503          	lw	a0,-52(s0)
201016c6:	3b2d                	jal	20101400 <__metal_driver_sifive_clint0_interrupt_parents>
201016c8:	fea42423          	sw	a0,-24(s0)
C:/VSD/FreedomStudio-3-1-1-x86_64-w64-mingw32/FreedomStudio-3-1-1/SiFive/freedom-e-sdk-v21.11.00.00/freedom-metal/src/drivers/riscv_clint0.c:104
        if (cpu_intc == intc && id == line) {
201016cc:	fdc42703          	lw	a4,-36(s0)
201016d0:	fe842783          	lw	a5,-24(s0)
201016d4:	00f71863          	bne	a4,a5,201016e4 <__metal_driver_riscv_clint0_register+0x8a>
C:/VSD/FreedomStudio-3-1-1-x86_64-w64-mingw32/FreedomStudio-3-1-1/SiFive/freedom-e-sdk-v21.11.00.00/freedom-metal/src/drivers/riscv_clint0.c:104 (discriminator 1)
201016d8:	fc842703          	lw	a4,-56(s0)
201016dc:	fd442783          	lw	a5,-44(s0)
201016e0:	02f70063          	beq	a4,a5,20101700 <__metal_driver_riscv_clint0_register+0xa6>
C:/VSD/FreedomStudio-3-1-1-x86_64-w64-mingw32/FreedomStudio-3-1-1/SiFive/freedom-e-sdk-v21.11.00.00/freedom-metal/src/drivers/riscv_clint0.c:107
            break;
        }
        intc = NULL;
201016e4:	fe042423          	sw	zero,-24(s0)
C:/VSD/FreedomStudio-3-1-1-x86_64-w64-mingw32/FreedomStudio-3-1-1/SiFive/freedom-e-sdk-v21.11.00.00/freedom-metal/src/drivers/riscv_clint0.c:101 (discriminator 2)
    for (int i = 0; i < num_interrupts; i++) {
201016e8:	fe442783          	lw	a5,-28(s0)
201016ec:	0785                	add	a5,a5,1
201016ee:	fef42223          	sw	a5,-28(s0)
C:/VSD/FreedomStudio-3-1-1-x86_64-w64-mingw32/FreedomStudio-3-1-1/SiFive/freedom-e-sdk-v21.11.00.00/freedom-metal/src/drivers/riscv_clint0.c:101 (discriminator 1)
201016f2:	fe442703          	lw	a4,-28(s0)
201016f6:	fd842783          	lw	a5,-40(s0)
201016fa:	faf74be3          	blt	a4,a5,201016b0 <__metal_driver_riscv_clint0_register+0x56>
201016fe:	a011                	j	20101702 <__metal_driver_riscv_clint0_register+0xa8>
C:/VSD/FreedomStudio-3-1-1-x86_64-w64-mingw32/FreedomStudio-3-1-1/SiFive/freedom-e-sdk-v21.11.00.00/freedom-metal/src/drivers/riscv_clint0.c:105
            break;
20101700:	0001                	nop
C:/VSD/FreedomStudio-3-1-1-x86_64-w64-mingw32/FreedomStudio-3-1-1/SiFive/freedom-e-sdk-v21.11.00.00/freedom-metal/src/drivers/riscv_clint0.c:111
    }

    /* Register its interrupts with parent controller */
    if (intc) {
20101702:	fe842783          	lw	a5,-24(s0)
20101706:	c385                	beqz	a5,20101726 <__metal_driver_riscv_clint0_register+0xcc>
C:/VSD/FreedomStudio-3-1-1-x86_64-w64-mingw32/FreedomStudio-3-1-1/SiFive/freedom-e-sdk-v21.11.00.00/freedom-metal/src/drivers/riscv_clint0.c:112
        rc = intc->vtable->interrupt_register(intc, id, isr, priv);
20101708:	fe842783          	lw	a5,-24(s0)
2010170c:	439c                	lw	a5,0(a5)
2010170e:	4fdc                	lw	a5,28(a5)
20101710:	fc042683          	lw	a3,-64(s0)
20101714:	fc442603          	lw	a2,-60(s0)
20101718:	fc842583          	lw	a1,-56(s0)
2010171c:	fe842503          	lw	a0,-24(s0)
20101720:	9782                	jalr	a5
20101722:	fea42623          	sw	a0,-20(s0)
C:/VSD/FreedomStudio-3-1-1-x86_64-w64-mingw32/FreedomStudio-3-1-1/SiFive/freedom-e-sdk-v21.11.00.00/freedom-metal/src/drivers/riscv_clint0.c:114
    }
    return rc;
20101726:	fec42783          	lw	a5,-20(s0)
C:/VSD/FreedomStudio-3-1-1-x86_64-w64-mingw32/FreedomStudio-3-1-1/SiFive/freedom-e-sdk-v21.11.00.00/freedom-metal/src/drivers/riscv_clint0.c:115
}
2010172a:	853e                	mv	a0,a5
2010172c:	50f2                	lw	ra,60(sp)
2010172e:	5462                	lw	s0,56(sp)
20101730:	6121                	add	sp,sp,64
20101732:	8082                	ret

20101734 <__metal_driver_riscv_clint0_vector_register>:
__metal_driver_riscv_clint0_vector_register():
C:/VSD/FreedomStudio-3-1-1-x86_64-w64-mingw32/FreedomStudio-3-1-1/SiFive/freedom-e-sdk-v21.11.00.00/freedom-metal/src/drivers/riscv_clint0.c:119

int __metal_driver_riscv_clint0_vector_register(
    struct metal_interrupt *controller, int id,
    metal_interrupt_vector_handler_t isr, void *priv) {
20101734:	7179                	add	sp,sp,-48
20101736:	d622                	sw	s0,44(sp)
20101738:	1800                	add	s0,sp,48
2010173a:	fca42e23          	sw	a0,-36(s0)
2010173e:	fcb42c23          	sw	a1,-40(s0)
20101742:	fcc42a23          	sw	a2,-44(s0)
20101746:	fcd42823          	sw	a3,-48(s0)
C:/VSD/FreedomStudio-3-1-1-x86_64-w64-mingw32/FreedomStudio-3-1-1/SiFive/freedom-e-sdk-v21.11.00.00/freedom-metal/src/drivers/riscv_clint0.c:121
    /* Not supported. User can override the 'weak' handler with their own */
    int rc = -1;
2010174a:	57fd                	li	a5,-1
2010174c:	fef42623          	sw	a5,-20(s0)
C:/VSD/FreedomStudio-3-1-1-x86_64-w64-mingw32/FreedomStudio-3-1-1/SiFive/freedom-e-sdk-v21.11.00.00/freedom-metal/src/drivers/riscv_clint0.c:122
    return rc;
20101750:	fec42783          	lw	a5,-20(s0)
C:/VSD/FreedomStudio-3-1-1-x86_64-w64-mingw32/FreedomStudio-3-1-1/SiFive/freedom-e-sdk-v21.11.00.00/freedom-metal/src/drivers/riscv_clint0.c:123
}
20101754:	853e                	mv	a0,a5
20101756:	5432                	lw	s0,44(sp)
20101758:	6145                	add	sp,sp,48
2010175a:	8082                	ret

2010175c <__metal_driver_riscv_clint0_get_vector_mode>:
__metal_driver_riscv_clint0_get_vector_mode():
C:/VSD/FreedomStudio-3-1-1-x86_64-w64-mingw32/FreedomStudio-3-1-1/SiFive/freedom-e-sdk-v21.11.00.00/freedom-metal/src/drivers/riscv_clint0.c:126

metal_vector_mode __metal_driver_riscv_clint0_get_vector_mode(
    struct metal_interrupt *controller) {
2010175c:	1101                	add	sp,sp,-32
2010175e:	ce06                	sw	ra,28(sp)
20101760:	cc22                	sw	s0,24(sp)
20101762:	1000                	add	s0,sp,32
20101764:	fea42623          	sw	a0,-20(s0)
C:/VSD/FreedomStudio-3-1-1-x86_64-w64-mingw32/FreedomStudio-3-1-1/SiFive/freedom-e-sdk-v21.11.00.00/freedom-metal/src/drivers/riscv_clint0.c:127
    return __metal_controller_interrupt_vector_mode();
20101768:	36c010ef          	jal	20102ad4 <__metal_controller_interrupt_vector_mode>
2010176c:	87aa                	mv	a5,a0
C:/VSD/FreedomStudio-3-1-1-x86_64-w64-mingw32/FreedomStudio-3-1-1/SiFive/freedom-e-sdk-v21.11.00.00/freedom-metal/src/drivers/riscv_clint0.c:128
}
2010176e:	853e                	mv	a0,a5
20101770:	40f2                	lw	ra,28(sp)
20101772:	4462                	lw	s0,24(sp)
20101774:	6105                	add	sp,sp,32
20101776:	8082                	ret

20101778 <__metal_driver_riscv_clint0_set_vector_mode>:
__metal_driver_riscv_clint0_set_vector_mode():
C:/VSD/FreedomStudio-3-1-1-x86_64-w64-mingw32/FreedomStudio-3-1-1/SiFive/freedom-e-sdk-v21.11.00.00/freedom-metal/src/drivers/riscv_clint0.c:131

int __metal_driver_riscv_clint0_set_vector_mode(
    struct metal_interrupt *controller, metal_vector_mode mode) {
20101778:	7179                	add	sp,sp,-48
2010177a:	d606                	sw	ra,44(sp)
2010177c:	d422                	sw	s0,40(sp)
2010177e:	1800                	add	s0,sp,48
20101780:	fca42e23          	sw	a0,-36(s0)
20101784:	fcb42c23          	sw	a1,-40(s0)
C:/VSD/FreedomStudio-3-1-1-x86_64-w64-mingw32/FreedomStudio-3-1-1/SiFive/freedom-e-sdk-v21.11.00.00/freedom-metal/src/drivers/riscv_clint0.c:132
    int rc = -1;
20101788:	57fd                	li	a5,-1
2010178a:	fef42623          	sw	a5,-20(s0)
C:/VSD/FreedomStudio-3-1-1-x86_64-w64-mingw32/FreedomStudio-3-1-1/SiFive/freedom-e-sdk-v21.11.00.00/freedom-metal/src/drivers/riscv_clint0.c:133
    struct metal_interrupt *intc = _get_cpu_intc();
2010178e:	3539                	jal	2010159c <_get_cpu_intc>
20101790:	fea42423          	sw	a0,-24(s0)
C:/VSD/FreedomStudio-3-1-1-x86_64-w64-mingw32/FreedomStudio-3-1-1/SiFive/freedom-e-sdk-v21.11.00.00/freedom-metal/src/drivers/riscv_clint0.c:135

    if (intc) {
20101794:	fe842783          	lw	a5,-24(s0)
20101798:	c39d                	beqz	a5,201017be <__metal_driver_riscv_clint0_set_vector_mode+0x46>
C:/VSD/FreedomStudio-3-1-1-x86_64-w64-mingw32/FreedomStudio-3-1-1/SiFive/freedom-e-sdk-v21.11.00.00/freedom-metal/src/drivers/riscv_clint0.c:138
        /* Valid vector modes are VECTOR and DIRECT, anything else is invalid
         * (-1) */
        switch (mode) {
2010179a:	fd842703          	lw	a4,-40(s0)
2010179e:	4785                	li	a5,1
201017a0:	00e7ee63          	bltu	a5,a4,201017bc <__metal_driver_riscv_clint0_set_vector_mode+0x44>
C:/VSD/FreedomStudio-3-1-1-x86_64-w64-mingw32/FreedomStudio-3-1-1/SiFive/freedom-e-sdk-v21.11.00.00/freedom-metal/src/drivers/riscv_clint0.c:141
        case METAL_VECTOR_MODE:
        case METAL_DIRECT_MODE:
            rc = intc->vtable->interrupt_set_vector_mode(intc, mode);
201017a4:	fe842783          	lw	a5,-24(s0)
201017a8:	439c                	lw	a5,0(a5)
201017aa:	43dc                	lw	a5,4(a5)
201017ac:	fd842583          	lw	a1,-40(s0)
201017b0:	fe842503          	lw	a0,-24(s0)
201017b4:	9782                	jalr	a5
201017b6:	fea42623          	sw	a0,-20(s0)
C:/VSD/FreedomStudio-3-1-1-x86_64-w64-mingw32/FreedomStudio-3-1-1/SiFive/freedom-e-sdk-v21.11.00.00/freedom-metal/src/drivers/riscv_clint0.c:142
            break;
201017ba:	a011                	j	201017be <__metal_driver_riscv_clint0_set_vector_mode+0x46>
C:/VSD/FreedomStudio-3-1-1-x86_64-w64-mingw32/FreedomStudio-3-1-1/SiFive/freedom-e-sdk-v21.11.00.00/freedom-metal/src/drivers/riscv_clint0.c:144
        default:
            break;
201017bc:	0001                	nop
C:/VSD/FreedomStudio-3-1-1-x86_64-w64-mingw32/FreedomStudio-3-1-1/SiFive/freedom-e-sdk-v21.11.00.00/freedom-metal/src/drivers/riscv_clint0.c:147
        }
    }
    return rc;
201017be:	fec42783          	lw	a5,-20(s0)
C:/VSD/FreedomStudio-3-1-1-x86_64-w64-mingw32/FreedomStudio-3-1-1/SiFive/freedom-e-sdk-v21.11.00.00/freedom-metal/src/drivers/riscv_clint0.c:148
}
201017c2:	853e                	mv	a0,a5
201017c4:	50b2                	lw	ra,44(sp)
201017c6:	5422                	lw	s0,40(sp)
201017c8:	6145                	add	sp,sp,48
201017ca:	8082                	ret

201017cc <__metal_driver_riscv_clint0_enable>:
__metal_driver_riscv_clint0_enable():
C:/VSD/FreedomStudio-3-1-1-x86_64-w64-mingw32/FreedomStudio-3-1-1/SiFive/freedom-e-sdk-v21.11.00.00/freedom-metal/src/drivers/riscv_clint0.c:151

int __metal_driver_riscv_clint0_enable(struct metal_interrupt *controller,
                                       int id) {
201017cc:	7139                	add	sp,sp,-64
201017ce:	de06                	sw	ra,60(sp)
201017d0:	dc22                	sw	s0,56(sp)
201017d2:	0080                	add	s0,sp,64
201017d4:	fca42623          	sw	a0,-52(s0)
201017d8:	fcb42423          	sw	a1,-56(s0)
C:/VSD/FreedomStudio-3-1-1-x86_64-w64-mingw32/FreedomStudio-3-1-1/SiFive/freedom-e-sdk-v21.11.00.00/freedom-metal/src/drivers/riscv_clint0.c:152
    int rc = -1;
201017dc:	57fd                	li	a5,-1
201017de:	fef42623          	sw	a5,-20(s0)
C:/VSD/FreedomStudio-3-1-1-x86_64-w64-mingw32/FreedomStudio-3-1-1/SiFive/freedom-e-sdk-v21.11.00.00/freedom-metal/src/drivers/riscv_clint0.c:154

    if (id) {
201017e2:	fc842783          	lw	a5,-56(s0)
201017e6:	c7c9                	beqz	a5,20101870 <__metal_driver_riscv_clint0_enable+0xa4>
C:/VSD/FreedomStudio-3-1-1-x86_64-w64-mingw32/FreedomStudio-3-1-1/SiFive/freedom-e-sdk-v21.11.00.00/freedom-metal/src/drivers/riscv_clint0.c:155
        struct metal_interrupt *intc = NULL;
201017e8:	fe042423          	sw	zero,-24(s0)
C:/VSD/FreedomStudio-3-1-1-x86_64-w64-mingw32/FreedomStudio-3-1-1/SiFive/freedom-e-sdk-v21.11.00.00/freedom-metal/src/drivers/riscv_clint0.c:156
        struct metal_interrupt *cpu_intc = _get_cpu_intc();
201017ec:	3b45                	jal	2010159c <_get_cpu_intc>
201017ee:	fea42023          	sw	a0,-32(s0)
C:/VSD/FreedomStudio-3-1-1-x86_64-w64-mingw32/FreedomStudio-3-1-1/SiFive/freedom-e-sdk-v21.11.00.00/freedom-metal/src/drivers/riscv_clint0.c:158
        int num_interrupts =
            __metal_driver_sifive_clint0_num_interrupts(controller);
201017f2:	fcc42503          	lw	a0,-52(s0)
201017f6:	36cd                	jal	201013d8 <__metal_driver_sifive_clint0_num_interrupts>
201017f8:	fca42e23          	sw	a0,-36(s0)
C:/VSD/FreedomStudio-3-1-1-x86_64-w64-mingw32/FreedomStudio-3-1-1/SiFive/freedom-e-sdk-v21.11.00.00/freedom-metal/src/drivers/riscv_clint0.c:160

        for (int i = 0; i < num_interrupts; i++) {
201017fc:	fe042223          	sw	zero,-28(s0)
20101800:	a091                	j	20101844 <__metal_driver_riscv_clint0_enable+0x78>
C:/VSD/FreedomStudio-3-1-1-x86_64-w64-mingw32/FreedomStudio-3-1-1/SiFive/freedom-e-sdk-v21.11.00.00/freedom-metal/src/drivers/riscv_clint0.c:162
            int line =
                __metal_driver_sifive_clint0_interrupt_lines(controller, i);
20101802:	fe442583          	lw	a1,-28(s0)
20101806:	fcc42503          	lw	a0,-52(s0)
2010180a:	390d                	jal	2010143c <__metal_driver_sifive_clint0_interrupt_lines>
2010180c:	fca42c23          	sw	a0,-40(s0)
C:/VSD/FreedomStudio-3-1-1-x86_64-w64-mingw32/FreedomStudio-3-1-1/SiFive/freedom-e-sdk-v21.11.00.00/freedom-metal/src/drivers/riscv_clint0.c:164
            intc =
                __metal_driver_sifive_clint0_interrupt_parents(controller, i);
20101810:	fe442583          	lw	a1,-28(s0)
20101814:	fcc42503          	lw	a0,-52(s0)
20101818:	36e5                	jal	20101400 <__metal_driver_sifive_clint0_interrupt_parents>
2010181a:	fea42423          	sw	a0,-24(s0)
C:/VSD/FreedomStudio-3-1-1-x86_64-w64-mingw32/FreedomStudio-3-1-1/SiFive/freedom-e-sdk-v21.11.00.00/freedom-metal/src/drivers/riscv_clint0.c:165
            if (cpu_intc == intc && id == line) {
2010181e:	fe042703          	lw	a4,-32(s0)
20101822:	fe842783          	lw	a5,-24(s0)
20101826:	00f71863          	bne	a4,a5,20101836 <__metal_driver_riscv_clint0_enable+0x6a>
C:/VSD/FreedomStudio-3-1-1-x86_64-w64-mingw32/FreedomStudio-3-1-1/SiFive/freedom-e-sdk-v21.11.00.00/freedom-metal/src/drivers/riscv_clint0.c:165 (discriminator 1)
2010182a:	fc842703          	lw	a4,-56(s0)
2010182e:	fd842783          	lw	a5,-40(s0)
20101832:	02f70063          	beq	a4,a5,20101852 <__metal_driver_riscv_clint0_enable+0x86>
C:/VSD/FreedomStudio-3-1-1-x86_64-w64-mingw32/FreedomStudio-3-1-1/SiFive/freedom-e-sdk-v21.11.00.00/freedom-metal/src/drivers/riscv_clint0.c:168
                break;
            }
            intc = NULL;
20101836:	fe042423          	sw	zero,-24(s0)
C:/VSD/FreedomStudio-3-1-1-x86_64-w64-mingw32/FreedomStudio-3-1-1/SiFive/freedom-e-sdk-v21.11.00.00/freedom-metal/src/drivers/riscv_clint0.c:160 (discriminator 2)
        for (int i = 0; i < num_interrupts; i++) {
2010183a:	fe442783          	lw	a5,-28(s0)
2010183e:	0785                	add	a5,a5,1
20101840:	fef42223          	sw	a5,-28(s0)
C:/VSD/FreedomStudio-3-1-1-x86_64-w64-mingw32/FreedomStudio-3-1-1/SiFive/freedom-e-sdk-v21.11.00.00/freedom-metal/src/drivers/riscv_clint0.c:160 (discriminator 1)
20101844:	fe442703          	lw	a4,-28(s0)
20101848:	fdc42783          	lw	a5,-36(s0)
2010184c:	faf74be3          	blt	a4,a5,20101802 <__metal_driver_riscv_clint0_enable+0x36>
20101850:	a011                	j	20101854 <__metal_driver_riscv_clint0_enable+0x88>
C:/VSD/FreedomStudio-3-1-1-x86_64-w64-mingw32/FreedomStudio-3-1-1/SiFive/freedom-e-sdk-v21.11.00.00/freedom-metal/src/drivers/riscv_clint0.c:166
                break;
20101852:	0001                	nop
C:/VSD/FreedomStudio-3-1-1-x86_64-w64-mingw32/FreedomStudio-3-1-1/SiFive/freedom-e-sdk-v21.11.00.00/freedom-metal/src/drivers/riscv_clint0.c:172
        }

        /* Enable its interrupts with parent controller */
        if (intc) {
20101854:	fe842783          	lw	a5,-24(s0)
20101858:	cf81                	beqz	a5,20101870 <__metal_driver_riscv_clint0_enable+0xa4>
C:/VSD/FreedomStudio-3-1-1-x86_64-w64-mingw32/FreedomStudio-3-1-1/SiFive/freedom-e-sdk-v21.11.00.00/freedom-metal/src/drivers/riscv_clint0.c:173
            rc = intc->vtable->interrupt_enable(intc, id);
2010185a:	fe842783          	lw	a5,-24(s0)
2010185e:	439c                	lw	a5,0(a5)
20101860:	53dc                	lw	a5,36(a5)
20101862:	fc842583          	lw	a1,-56(s0)
20101866:	fe842503          	lw	a0,-24(s0)
2010186a:	9782                	jalr	a5
2010186c:	fea42623          	sw	a0,-20(s0)
C:/VSD/FreedomStudio-3-1-1-x86_64-w64-mingw32/FreedomStudio-3-1-1/SiFive/freedom-e-sdk-v21.11.00.00/freedom-metal/src/drivers/riscv_clint0.c:177
        }
    }

    return rc;
20101870:	fec42783          	lw	a5,-20(s0)
C:/VSD/FreedomStudio-3-1-1-x86_64-w64-mingw32/FreedomStudio-3-1-1/SiFive/freedom-e-sdk-v21.11.00.00/freedom-metal/src/drivers/riscv_clint0.c:178
}
20101874:	853e                	mv	a0,a5
20101876:	50f2                	lw	ra,60(sp)
20101878:	5462                	lw	s0,56(sp)
2010187a:	6121                	add	sp,sp,64
2010187c:	8082                	ret

2010187e <__metal_driver_riscv_clint0_disable>:
__metal_driver_riscv_clint0_disable():
C:/VSD/FreedomStudio-3-1-1-x86_64-w64-mingw32/FreedomStudio-3-1-1/SiFive/freedom-e-sdk-v21.11.00.00/freedom-metal/src/drivers/riscv_clint0.c:181

int __metal_driver_riscv_clint0_disable(struct metal_interrupt *controller,
                                        int id) {
2010187e:	7139                	add	sp,sp,-64
20101880:	de06                	sw	ra,60(sp)
20101882:	dc22                	sw	s0,56(sp)
20101884:	0080                	add	s0,sp,64
20101886:	fca42623          	sw	a0,-52(s0)
2010188a:	fcb42423          	sw	a1,-56(s0)
C:/VSD/FreedomStudio-3-1-1-x86_64-w64-mingw32/FreedomStudio-3-1-1/SiFive/freedom-e-sdk-v21.11.00.00/freedom-metal/src/drivers/riscv_clint0.c:182
    int rc = -1;
2010188e:	57fd                	li	a5,-1
20101890:	fef42623          	sw	a5,-20(s0)
C:/VSD/FreedomStudio-3-1-1-x86_64-w64-mingw32/FreedomStudio-3-1-1/SiFive/freedom-e-sdk-v21.11.00.00/freedom-metal/src/drivers/riscv_clint0.c:184

    if (id) {
20101894:	fc842783          	lw	a5,-56(s0)
20101898:	c7c9                	beqz	a5,20101922 <__metal_driver_riscv_clint0_disable+0xa4>
C:/VSD/FreedomStudio-3-1-1-x86_64-w64-mingw32/FreedomStudio-3-1-1/SiFive/freedom-e-sdk-v21.11.00.00/freedom-metal/src/drivers/riscv_clint0.c:185
        struct metal_interrupt *intc = NULL;
2010189a:	fe042423          	sw	zero,-24(s0)
C:/VSD/FreedomStudio-3-1-1-x86_64-w64-mingw32/FreedomStudio-3-1-1/SiFive/freedom-e-sdk-v21.11.00.00/freedom-metal/src/drivers/riscv_clint0.c:186
        struct metal_interrupt *cpu_intc = _get_cpu_intc();
2010189e:	39fd                	jal	2010159c <_get_cpu_intc>
201018a0:	fea42023          	sw	a0,-32(s0)
C:/VSD/FreedomStudio-3-1-1-x86_64-w64-mingw32/FreedomStudio-3-1-1/SiFive/freedom-e-sdk-v21.11.00.00/freedom-metal/src/drivers/riscv_clint0.c:188
        int num_interrupts =
            __metal_driver_sifive_clint0_num_interrupts(controller);
201018a4:	fcc42503          	lw	a0,-52(s0)
201018a8:	3e05                	jal	201013d8 <__metal_driver_sifive_clint0_num_interrupts>
201018aa:	fca42e23          	sw	a0,-36(s0)
C:/VSD/FreedomStudio-3-1-1-x86_64-w64-mingw32/FreedomStudio-3-1-1/SiFive/freedom-e-sdk-v21.11.00.00/freedom-metal/src/drivers/riscv_clint0.c:190

        for (int i = 0; i < num_interrupts; i++) {
201018ae:	fe042223          	sw	zero,-28(s0)
201018b2:	a091                	j	201018f6 <__metal_driver_riscv_clint0_disable+0x78>
C:/VSD/FreedomStudio-3-1-1-x86_64-w64-mingw32/FreedomStudio-3-1-1/SiFive/freedom-e-sdk-v21.11.00.00/freedom-metal/src/drivers/riscv_clint0.c:192
            int line =
                __metal_driver_sifive_clint0_interrupt_lines(controller, i);
201018b4:	fe442583          	lw	a1,-28(s0)
201018b8:	fcc42503          	lw	a0,-52(s0)
201018bc:	3641                	jal	2010143c <__metal_driver_sifive_clint0_interrupt_lines>
201018be:	fca42c23          	sw	a0,-40(s0)
C:/VSD/FreedomStudio-3-1-1-x86_64-w64-mingw32/FreedomStudio-3-1-1/SiFive/freedom-e-sdk-v21.11.00.00/freedom-metal/src/drivers/riscv_clint0.c:194
            intc =
                __metal_driver_sifive_clint0_interrupt_parents(controller, i);
201018c2:	fe442583          	lw	a1,-28(s0)
201018c6:	fcc42503          	lw	a0,-52(s0)
201018ca:	3e1d                	jal	20101400 <__metal_driver_sifive_clint0_interrupt_parents>
201018cc:	fea42423          	sw	a0,-24(s0)
C:/VSD/FreedomStudio-3-1-1-x86_64-w64-mingw32/FreedomStudio-3-1-1/SiFive/freedom-e-sdk-v21.11.00.00/freedom-metal/src/drivers/riscv_clint0.c:195
            if (cpu_intc == intc && id == line) {
201018d0:	fe042703          	lw	a4,-32(s0)
201018d4:	fe842783          	lw	a5,-24(s0)
201018d8:	00f71863          	bne	a4,a5,201018e8 <__metal_driver_riscv_clint0_disable+0x6a>
C:/VSD/FreedomStudio-3-1-1-x86_64-w64-mingw32/FreedomStudio-3-1-1/SiFive/freedom-e-sdk-v21.11.00.00/freedom-metal/src/drivers/riscv_clint0.c:195 (discriminator 1)
201018dc:	fc842703          	lw	a4,-56(s0)
201018e0:	fd842783          	lw	a5,-40(s0)
201018e4:	02f70063          	beq	a4,a5,20101904 <__metal_driver_riscv_clint0_disable+0x86>
C:/VSD/FreedomStudio-3-1-1-x86_64-w64-mingw32/FreedomStudio-3-1-1/SiFive/freedom-e-sdk-v21.11.00.00/freedom-metal/src/drivers/riscv_clint0.c:198
                break;
            }
            intc = NULL;
201018e8:	fe042423          	sw	zero,-24(s0)
C:/VSD/FreedomStudio-3-1-1-x86_64-w64-mingw32/FreedomStudio-3-1-1/SiFive/freedom-e-sdk-v21.11.00.00/freedom-metal/src/drivers/riscv_clint0.c:190 (discriminator 2)
        for (int i = 0; i < num_interrupts; i++) {
201018ec:	fe442783          	lw	a5,-28(s0)
201018f0:	0785                	add	a5,a5,1
201018f2:	fef42223          	sw	a5,-28(s0)
C:/VSD/FreedomStudio-3-1-1-x86_64-w64-mingw32/FreedomStudio-3-1-1/SiFive/freedom-e-sdk-v21.11.00.00/freedom-metal/src/drivers/riscv_clint0.c:190 (discriminator 1)
201018f6:	fe442703          	lw	a4,-28(s0)
201018fa:	fdc42783          	lw	a5,-36(s0)
201018fe:	faf74be3          	blt	a4,a5,201018b4 <__metal_driver_riscv_clint0_disable+0x36>
20101902:	a011                	j	20101906 <__metal_driver_riscv_clint0_disable+0x88>
C:/VSD/FreedomStudio-3-1-1-x86_64-w64-mingw32/FreedomStudio-3-1-1/SiFive/freedom-e-sdk-v21.11.00.00/freedom-metal/src/drivers/riscv_clint0.c:196
                break;
20101904:	0001                	nop
C:/VSD/FreedomStudio-3-1-1-x86_64-w64-mingw32/FreedomStudio-3-1-1/SiFive/freedom-e-sdk-v21.11.00.00/freedom-metal/src/drivers/riscv_clint0.c:202
        }

        /* Disable its interrupts with parent controller */
        if (intc) {
20101906:	fe842783          	lw	a5,-24(s0)
2010190a:	cf81                	beqz	a5,20101922 <__metal_driver_riscv_clint0_disable+0xa4>
C:/VSD/FreedomStudio-3-1-1-x86_64-w64-mingw32/FreedomStudio-3-1-1/SiFive/freedom-e-sdk-v21.11.00.00/freedom-metal/src/drivers/riscv_clint0.c:203
            rc = intc->vtable->interrupt_disable(intc, id);
2010190c:	fe842783          	lw	a5,-24(s0)
20101910:	439c                	lw	a5,0(a5)
20101912:	579c                	lw	a5,40(a5)
20101914:	fc842583          	lw	a1,-56(s0)
20101918:	fe842503          	lw	a0,-24(s0)
2010191c:	9782                	jalr	a5
2010191e:	fea42623          	sw	a0,-20(s0)
C:/VSD/FreedomStudio-3-1-1-x86_64-w64-mingw32/FreedomStudio-3-1-1/SiFive/freedom-e-sdk-v21.11.00.00/freedom-metal/src/drivers/riscv_clint0.c:207
        }
    }

    return rc;
20101922:	fec42783          	lw	a5,-20(s0)
C:/VSD/FreedomStudio-3-1-1-x86_64-w64-mingw32/FreedomStudio-3-1-1/SiFive/freedom-e-sdk-v21.11.00.00/freedom-metal/src/drivers/riscv_clint0.c:208
}
20101926:	853e                	mv	a0,a5
20101928:	50f2                	lw	ra,60(sp)
2010192a:	5462                	lw	s0,56(sp)
2010192c:	6121                	add	sp,sp,64
2010192e:	8082                	ret

20101930 <__metal_driver_riscv_clint0_command_request>:
__metal_driver_riscv_clint0_command_request():
C:/VSD/FreedomStudio-3-1-1-x86_64-w64-mingw32/FreedomStudio-3-1-1/SiFive/freedom-e-sdk-v21.11.00.00/freedom-metal/src/drivers/riscv_clint0.c:211

int __metal_driver_riscv_clint0_command_request(
    struct metal_interrupt *controller, int command, void *data) {
20101930:	7179                	add	sp,sp,-48
20101932:	d606                	sw	ra,44(sp)
20101934:	d422                	sw	s0,40(sp)
20101936:	1800                	add	s0,sp,48
20101938:	fca42e23          	sw	a0,-36(s0)
2010193c:	fcb42c23          	sw	a1,-40(s0)
20101940:	fcc42a23          	sw	a2,-44(s0)
C:/VSD/FreedomStudio-3-1-1-x86_64-w64-mingw32/FreedomStudio-3-1-1/SiFive/freedom-e-sdk-v21.11.00.00/freedom-metal/src/drivers/riscv_clint0.c:213
    int hartid;
    int rc = -1;
20101944:	57fd                	li	a5,-1
20101946:	fef42623          	sw	a5,-20(s0)
C:/VSD/FreedomStudio-3-1-1-x86_64-w64-mingw32/FreedomStudio-3-1-1/SiFive/freedom-e-sdk-v21.11.00.00/freedom-metal/src/drivers/riscv_clint0.c:214
    struct __metal_driver_riscv_clint0 *clint =
2010194a:	fdc42783          	lw	a5,-36(s0)
2010194e:	fef42423          	sw	a5,-24(s0)
C:/VSD/FreedomStudio-3-1-1-x86_64-w64-mingw32/FreedomStudio-3-1-1/SiFive/freedom-e-sdk-v21.11.00.00/freedom-metal/src/drivers/riscv_clint0.c:217
        (struct __metal_driver_riscv_clint0 *)(controller);
    unsigned long control_base =
        __metal_driver_sifive_clint0_control_base(controller);
20101952:	fdc42503          	lw	a0,-36(s0)
20101956:	3ca1                	jal	201013ae <__metal_driver_sifive_clint0_control_base>
20101958:	fea42223          	sw	a0,-28(s0)
C:/VSD/FreedomStudio-3-1-1-x86_64-w64-mingw32/FreedomStudio-3-1-1/SiFive/freedom-e-sdk-v21.11.00.00/freedom-metal/src/drivers/riscv_clint0.c:219

    switch (command) {
2010195c:	fd842703          	lw	a4,-40(s0)
20101960:	4791                	li	a5,4
20101962:	0cf70063          	beq	a4,a5,20101a22 <__metal_driver_riscv_clint0_command_request+0xf2>
20101966:	fd842703          	lw	a4,-40(s0)
2010196a:	4791                	li	a5,4
2010196c:	0ee7c063          	blt	a5,a4,20101a4c <__metal_driver_riscv_clint0_command_request+0x11c>
20101970:	fd842703          	lw	a4,-40(s0)
20101974:	478d                	li	a5,3
20101976:	06f70563          	beq	a4,a5,201019e0 <__metal_driver_riscv_clint0_command_request+0xb0>
2010197a:	fd842703          	lw	a4,-40(s0)
2010197e:	478d                	li	a5,3
20101980:	0ce7c663          	blt	a5,a4,20101a4c <__metal_driver_riscv_clint0_command_request+0x11c>
20101984:	fd842703          	lw	a4,-40(s0)
20101988:	4785                	li	a5,1
2010198a:	00f70863          	beq	a4,a5,2010199a <__metal_driver_riscv_clint0_command_request+0x6a>
2010198e:	fd842703          	lw	a4,-40(s0)
20101992:	4789                	li	a5,2
20101994:	02f70263          	beq	a4,a5,201019b8 <__metal_driver_riscv_clint0_command_request+0x88>
C:/VSD/FreedomStudio-3-1-1-x86_64-w64-mingw32/FreedomStudio-3-1-1/SiFive/freedom-e-sdk-v21.11.00.00/freedom-metal/src/drivers/riscv_clint0.c:263
            rc = __METAL_ACCESS_ONCE(
                (__metal_io_u32 *)(control_base + (hartid * 4)));
        }
        break;
    default:
        break;
20101998:	a855                	j	20101a4c <__metal_driver_riscv_clint0_command_request+0x11c>
C:/VSD/FreedomStudio-3-1-1-x86_64-w64-mingw32/FreedomStudio-3-1-1/SiFive/freedom-e-sdk-v21.11.00.00/freedom-metal/src/drivers/riscv_clint0.c:221
        if (data) {
2010199a:	fd442783          	lw	a5,-44(s0)
2010199e:	cbcd                	beqz	a5,20101a50 <__metal_driver_riscv_clint0_command_request+0x120>
C:/VSD/FreedomStudio-3-1-1-x86_64-w64-mingw32/FreedomStudio-3-1-1/SiFive/freedom-e-sdk-v21.11.00.00/freedom-metal/src/drivers/riscv_clint0.c:222
            *(unsigned long long *)data = __metal_clint0_mtime_get(clint);
201019a0:	fe842503          	lw	a0,-24(s0)
201019a4:	34e1                	jal	2010146c <__metal_clint0_mtime_get>
201019a6:	872a                	mv	a4,a0
201019a8:	87ae                	mv	a5,a1
C:/VSD/FreedomStudio-3-1-1-x86_64-w64-mingw32/FreedomStudio-3-1-1/SiFive/freedom-e-sdk-v21.11.00.00/freedom-metal/src/drivers/riscv_clint0.c:222 (discriminator 1)
201019aa:	fd442683          	lw	a3,-44(s0)
201019ae:	c298                	sw	a4,0(a3)
201019b0:	c2dc                	sw	a5,4(a3)
C:/VSD/FreedomStudio-3-1-1-x86_64-w64-mingw32/FreedomStudio-3-1-1/SiFive/freedom-e-sdk-v21.11.00.00/freedom-metal/src/drivers/riscv_clint0.c:223
            rc = 0;
201019b2:	fe042623          	sw	zero,-20(s0)
C:/VSD/FreedomStudio-3-1-1-x86_64-w64-mingw32/FreedomStudio-3-1-1/SiFive/freedom-e-sdk-v21.11.00.00/freedom-metal/src/drivers/riscv_clint0.c:225
        break;
201019b6:	a869                	j	20101a50 <__metal_driver_riscv_clint0_command_request+0x120>
C:/VSD/FreedomStudio-3-1-1-x86_64-w64-mingw32/FreedomStudio-3-1-1/SiFive/freedom-e-sdk-v21.11.00.00/freedom-metal/src/drivers/riscv_clint0.c:227
        if (data) {
201019b8:	fd442783          	lw	a5,-44(s0)
201019bc:	cfc1                	beqz	a5,20101a54 <__metal_driver_riscv_clint0_command_request+0x124>
C:/VSD/FreedomStudio-3-1-1-x86_64-w64-mingw32/FreedomStudio-3-1-1/SiFive/freedom-e-sdk-v21.11.00.00/freedom-metal/src/drivers/riscv_clint0.c:228
            hartid = *(int *)data;
201019be:	fd442783          	lw	a5,-44(s0)
201019c2:	439c                	lw	a5,0(a5)
201019c4:	fef42023          	sw	a5,-32(s0)
C:/VSD/FreedomStudio-3-1-1-x86_64-w64-mingw32/FreedomStudio-3-1-1/SiFive/freedom-e-sdk-v21.11.00.00/freedom-metal/src/drivers/riscv_clint0.c:229
            __METAL_ACCESS_ONCE((
201019c8:	fe042783          	lw	a5,-32(s0)
201019cc:	078a                	sll	a5,a5,0x2
201019ce:	873e                	mv	a4,a5
201019d0:	fe442783          	lw	a5,-28(s0)
201019d4:	97ba                	add	a5,a5,a4
C:/VSD/FreedomStudio-3-1-1-x86_64-w64-mingw32/FreedomStudio-3-1-1/SiFive/freedom-e-sdk-v21.11.00.00/freedom-metal/src/drivers/riscv_clint0.c:230
                __metal_io_u32 *)(control_base + (hartid * 4))) = METAL_DISABLE;
201019d6:	0007a023          	sw	zero,0(a5)
C:/VSD/FreedomStudio-3-1-1-x86_64-w64-mingw32/FreedomStudio-3-1-1/SiFive/freedom-e-sdk-v21.11.00.00/freedom-metal/src/drivers/riscv_clint0.c:231
            rc = 0;
201019da:	fe042623          	sw	zero,-20(s0)
C:/VSD/FreedomStudio-3-1-1-x86_64-w64-mingw32/FreedomStudio-3-1-1/SiFive/freedom-e-sdk-v21.11.00.00/freedom-metal/src/drivers/riscv_clint0.c:233
        break;
201019de:	a89d                	j	20101a54 <__metal_driver_riscv_clint0_command_request+0x124>
C:/VSD/FreedomStudio-3-1-1-x86_64-w64-mingw32/FreedomStudio-3-1-1/SiFive/freedom-e-sdk-v21.11.00.00/freedom-metal/src/drivers/riscv_clint0.c:235
        if (data) {
201019e0:	fd442783          	lw	a5,-44(s0)
201019e4:	cbb5                	beqz	a5,20101a58 <__metal_driver_riscv_clint0_command_request+0x128>
C:/VSD/FreedomStudio-3-1-1-x86_64-w64-mingw32/FreedomStudio-3-1-1/SiFive/freedom-e-sdk-v21.11.00.00/freedom-metal/src/drivers/riscv_clint0.c:236
            hartid = *(int *)data;
201019e6:	fd442783          	lw	a5,-44(s0)
201019ea:	439c                	lw	a5,0(a5)
201019ec:	fef42023          	sw	a5,-32(s0)
C:/VSD/FreedomStudio-3-1-1-x86_64-w64-mingw32/FreedomStudio-3-1-1/SiFive/freedom-e-sdk-v21.11.00.00/freedom-metal/src/drivers/riscv_clint0.c:237
            __METAL_ACCESS_ONCE(
201019f0:	fe042783          	lw	a5,-32(s0)
201019f4:	078a                	sll	a5,a5,0x2
201019f6:	873e                	mv	a4,a5
201019f8:	fe442783          	lw	a5,-28(s0)
201019fc:	97ba                	add	a5,a5,a4
201019fe:	873e                	mv	a4,a5
C:/VSD/FreedomStudio-3-1-1-x86_64-w64-mingw32/FreedomStudio-3-1-1/SiFive/freedom-e-sdk-v21.11.00.00/freedom-metal/src/drivers/riscv_clint0.c:238
                (__metal_io_u32 *)(control_base + (hartid * 4))) = METAL_ENABLE;
20101a00:	4785                	li	a5,1
20101a02:	c31c                	sw	a5,0(a4)
C:/VSD/FreedomStudio-3-1-1-x86_64-w64-mingw32/FreedomStudio-3-1-1/SiFive/freedom-e-sdk-v21.11.00.00/freedom-metal/src/drivers/riscv_clint0.c:248
            __METAL_IO_FENCE(o, i);
20101a04:	0480000f          	fence	o,i
C:/VSD/FreedomStudio-3-1-1-x86_64-w64-mingw32/FreedomStudio-3-1-1/SiFive/freedom-e-sdk-v21.11.00.00/freedom-metal/src/drivers/riscv_clint0.c:249
            rc = __METAL_ACCESS_ONCE(
20101a08:	fe042783          	lw	a5,-32(s0)
20101a0c:	078a                	sll	a5,a5,0x2
20101a0e:	873e                	mv	a4,a5
20101a10:	fe442783          	lw	a5,-28(s0)
20101a14:	97ba                	add	a5,a5,a4
20101a16:	439c                	lw	a5,0(a5)
20101a18:	fef42623          	sw	a5,-20(s0)
C:/VSD/FreedomStudio-3-1-1-x86_64-w64-mingw32/FreedomStudio-3-1-1/SiFive/freedom-e-sdk-v21.11.00.00/freedom-metal/src/drivers/riscv_clint0.c:251
            rc = 0;
20101a1c:	fe042623          	sw	zero,-20(s0)
C:/VSD/FreedomStudio-3-1-1-x86_64-w64-mingw32/FreedomStudio-3-1-1/SiFive/freedom-e-sdk-v21.11.00.00/freedom-metal/src/drivers/riscv_clint0.c:253
        break;
20101a20:	a825                	j	20101a58 <__metal_driver_riscv_clint0_command_request+0x128>
C:/VSD/FreedomStudio-3-1-1-x86_64-w64-mingw32/FreedomStudio-3-1-1/SiFive/freedom-e-sdk-v21.11.00.00/freedom-metal/src/drivers/riscv_clint0.c:255
        rc = 0;
20101a22:	fe042623          	sw	zero,-20(s0)
C:/VSD/FreedomStudio-3-1-1-x86_64-w64-mingw32/FreedomStudio-3-1-1/SiFive/freedom-e-sdk-v21.11.00.00/freedom-metal/src/drivers/riscv_clint0.c:256
        if (data) {
20101a26:	fd442783          	lw	a5,-44(s0)
20101a2a:	cb8d                	beqz	a5,20101a5c <__metal_driver_riscv_clint0_command_request+0x12c>
C:/VSD/FreedomStudio-3-1-1-x86_64-w64-mingw32/FreedomStudio-3-1-1/SiFive/freedom-e-sdk-v21.11.00.00/freedom-metal/src/drivers/riscv_clint0.c:257
            hartid = *(int *)data;
20101a2c:	fd442783          	lw	a5,-44(s0)
20101a30:	439c                	lw	a5,0(a5)
20101a32:	fef42023          	sw	a5,-32(s0)
C:/VSD/FreedomStudio-3-1-1-x86_64-w64-mingw32/FreedomStudio-3-1-1/SiFive/freedom-e-sdk-v21.11.00.00/freedom-metal/src/drivers/riscv_clint0.c:258
            rc = __METAL_ACCESS_ONCE(
20101a36:	fe042783          	lw	a5,-32(s0)
20101a3a:	078a                	sll	a5,a5,0x2
20101a3c:	873e                	mv	a4,a5
20101a3e:	fe442783          	lw	a5,-28(s0)
20101a42:	97ba                	add	a5,a5,a4
20101a44:	439c                	lw	a5,0(a5)
20101a46:	fef42623          	sw	a5,-20(s0)
C:/VSD/FreedomStudio-3-1-1-x86_64-w64-mingw32/FreedomStudio-3-1-1/SiFive/freedom-e-sdk-v21.11.00.00/freedom-metal/src/drivers/riscv_clint0.c:261
        break;
20101a4a:	a809                	j	20101a5c <__metal_driver_riscv_clint0_command_request+0x12c>
C:/VSD/FreedomStudio-3-1-1-x86_64-w64-mingw32/FreedomStudio-3-1-1/SiFive/freedom-e-sdk-v21.11.00.00/freedom-metal/src/drivers/riscv_clint0.c:263
        break;
20101a4c:	0001                	nop
20101a4e:	a801                	j	20101a5e <__metal_driver_riscv_clint0_command_request+0x12e>
C:/VSD/FreedomStudio-3-1-1-x86_64-w64-mingw32/FreedomStudio-3-1-1/SiFive/freedom-e-sdk-v21.11.00.00/freedom-metal/src/drivers/riscv_clint0.c:225
        break;
20101a50:	0001                	nop
20101a52:	a031                	j	20101a5e <__metal_driver_riscv_clint0_command_request+0x12e>
C:/VSD/FreedomStudio-3-1-1-x86_64-w64-mingw32/FreedomStudio-3-1-1/SiFive/freedom-e-sdk-v21.11.00.00/freedom-metal/src/drivers/riscv_clint0.c:233
        break;
20101a54:	0001                	nop
20101a56:	a021                	j	20101a5e <__metal_driver_riscv_clint0_command_request+0x12e>
C:/VSD/FreedomStudio-3-1-1-x86_64-w64-mingw32/FreedomStudio-3-1-1/SiFive/freedom-e-sdk-v21.11.00.00/freedom-metal/src/drivers/riscv_clint0.c:253
        break;
20101a58:	0001                	nop
20101a5a:	a011                	j	20101a5e <__metal_driver_riscv_clint0_command_request+0x12e>
C:/VSD/FreedomStudio-3-1-1-x86_64-w64-mingw32/FreedomStudio-3-1-1/SiFive/freedom-e-sdk-v21.11.00.00/freedom-metal/src/drivers/riscv_clint0.c:261
        break;
20101a5c:	0001                	nop
C:/VSD/FreedomStudio-3-1-1-x86_64-w64-mingw32/FreedomStudio-3-1-1/SiFive/freedom-e-sdk-v21.11.00.00/freedom-metal/src/drivers/riscv_clint0.c:266
    }

    return rc;
20101a5e:	fec42783          	lw	a5,-20(s0)
C:/VSD/FreedomStudio-3-1-1-x86_64-w64-mingw32/FreedomStudio-3-1-1/SiFive/freedom-e-sdk-v21.11.00.00/freedom-metal/src/drivers/riscv_clint0.c:267
}
20101a62:	853e                	mv	a0,a5
20101a64:	50b2                	lw	ra,44(sp)
20101a66:	5422                	lw	s0,40(sp)
20101a68:	6145                	add	sp,sp,48
20101a6a:	8082                	ret

20101a6c <__metal_driver_riscv_clint0_clear_interrupt>:
__metal_driver_riscv_clint0_clear_interrupt():
C:/VSD/FreedomStudio-3-1-1-x86_64-w64-mingw32/FreedomStudio-3-1-1/SiFive/freedom-e-sdk-v21.11.00.00/freedom-metal/src/drivers/riscv_clint0.c:270

int __metal_driver_riscv_clint0_clear_interrupt(
    struct metal_interrupt *controller, int id) {
20101a6c:	7179                	add	sp,sp,-48
20101a6e:	d606                	sw	ra,44(sp)
20101a70:	d422                	sw	s0,40(sp)
20101a72:	1800                	add	s0,sp,48
20101a74:	fca42e23          	sw	a0,-36(s0)
20101a78:	fcb42c23          	sw	a1,-40(s0)
C:/VSD/FreedomStudio-3-1-1-x86_64-w64-mingw32/FreedomStudio-3-1-1/SiFive/freedom-e-sdk-v21.11.00.00/freedom-metal/src/drivers/riscv_clint0.c:271
    int hartid = metal_cpu_get_current_hartid();
20101a7c:	53d030ef          	jal	201057b8 <metal_cpu_get_current_hartid>
20101a80:	87aa                	mv	a5,a0
C:/VSD/FreedomStudio-3-1-1-x86_64-w64-mingw32/FreedomStudio-3-1-1/SiFive/freedom-e-sdk-v21.11.00.00/freedom-metal/src/drivers/riscv_clint0.c:271 (discriminator 1)
20101a82:	fef42623          	sw	a5,-20(s0)
C:/VSD/FreedomStudio-3-1-1-x86_64-w64-mingw32/FreedomStudio-3-1-1/SiFive/freedom-e-sdk-v21.11.00.00/freedom-metal/src/drivers/riscv_clint0.c:272
    return __metal_driver_riscv_clint0_command_request(
20101a86:	fec40793          	add	a5,s0,-20
20101a8a:	863e                	mv	a2,a5
20101a8c:	4589                	li	a1,2
20101a8e:	fdc42503          	lw	a0,-36(s0)
20101a92:	3d79                	jal	20101930 <__metal_driver_riscv_clint0_command_request>
20101a94:	87aa                	mv	a5,a0
C:/VSD/FreedomStudio-3-1-1-x86_64-w64-mingw32/FreedomStudio-3-1-1/SiFive/freedom-e-sdk-v21.11.00.00/freedom-metal/src/drivers/riscv_clint0.c:274
        controller, METAL_SOFTWARE_IPI_CLEAR, &hartid);
}
20101a96:	853e                	mv	a0,a5
20101a98:	50b2                	lw	ra,44(sp)
20101a9a:	5422                	lw	s0,40(sp)
20101a9c:	6145                	add	sp,sp,48
20101a9e:	8082                	ret

20101aa0 <__metal_driver_riscv_clint0_set_interrupt>:
__metal_driver_riscv_clint0_set_interrupt():
C:/VSD/FreedomStudio-3-1-1-x86_64-w64-mingw32/FreedomStudio-3-1-1/SiFive/freedom-e-sdk-v21.11.00.00/freedom-metal/src/drivers/riscv_clint0.c:277

int __metal_driver_riscv_clint0_set_interrupt(
    struct metal_interrupt *controller, int id) {
20101aa0:	7179                	add	sp,sp,-48
20101aa2:	d606                	sw	ra,44(sp)
20101aa4:	d422                	sw	s0,40(sp)
20101aa6:	1800                	add	s0,sp,48
20101aa8:	fca42e23          	sw	a0,-36(s0)
20101aac:	fcb42c23          	sw	a1,-40(s0)
C:/VSD/FreedomStudio-3-1-1-x86_64-w64-mingw32/FreedomStudio-3-1-1/SiFive/freedom-e-sdk-v21.11.00.00/freedom-metal/src/drivers/riscv_clint0.c:278
    int hartid = metal_cpu_get_current_hartid();
20101ab0:	509030ef          	jal	201057b8 <metal_cpu_get_current_hartid>
20101ab4:	87aa                	mv	a5,a0
C:/VSD/FreedomStudio-3-1-1-x86_64-w64-mingw32/FreedomStudio-3-1-1/SiFive/freedom-e-sdk-v21.11.00.00/freedom-metal/src/drivers/riscv_clint0.c:278 (discriminator 1)
20101ab6:	fef42623          	sw	a5,-20(s0)
C:/VSD/FreedomStudio-3-1-1-x86_64-w64-mingw32/FreedomStudio-3-1-1/SiFive/freedom-e-sdk-v21.11.00.00/freedom-metal/src/drivers/riscv_clint0.c:279
    return __metal_driver_riscv_clint0_command_request(
20101aba:	fec40793          	add	a5,s0,-20
20101abe:	863e                	mv	a2,a5
20101ac0:	458d                	li	a1,3
20101ac2:	fdc42503          	lw	a0,-36(s0)
20101ac6:	35ad                	jal	20101930 <__metal_driver_riscv_clint0_command_request>
20101ac8:	87aa                	mv	a5,a0
C:/VSD/FreedomStudio-3-1-1-x86_64-w64-mingw32/FreedomStudio-3-1-1/SiFive/freedom-e-sdk-v21.11.00.00/freedom-metal/src/drivers/riscv_clint0.c:281
        controller, METAL_SOFTWARE_IPI_SET, &hartid);
}
20101aca:	853e                	mv	a0,a5
20101acc:	50b2                	lw	ra,44(sp)
20101ace:	5422                	lw	s0,40(sp)
20101ad0:	6145                	add	sp,sp,48
20101ad2:	8082                	ret

20101ad4 <__metal_driver_cpu_hartid>:
__metal_driver_cpu_hartid():
C:\VSD\FreedomStudio-3-1-1-x86_64-w64-mingw32\FreedomStudio-3-1-1\SiFive\freedom-e-sdk-v21.11.00.00\bsp\sifive-hifive1\build\debug/./metal/machine.h:267



/* --------------------- cpu ------------ */
static __inline__ int __metal_driver_cpu_hartid(struct metal_cpu *cpu)
{
20101ad4:	1101                	add	sp,sp,-32
20101ad6:	ce22                	sw	s0,28(sp)
20101ad8:	1000                	add	s0,sp,32
20101ada:	fea42623          	sw	a0,-20(s0)
C:\VSD\FreedomStudio-3-1-1-x86_64-w64-mingw32\FreedomStudio-3-1-1\SiFive\freedom-e-sdk-v21.11.00.00\bsp\sifive-hifive1\build\debug/./metal/machine.h:268
	if ((uintptr_t)cpu == (uintptr_t)&__metal_dt_cpu_0) {
20101ade:	fec42703          	lw	a4,-20(s0)
20101ae2:	800017b7          	lui	a5,0x80001
20101ae6:	a2478793          	add	a5,a5,-1500 # 80000a24 <__metal_dt_cpu_0>
20101aea:	00f71463          	bne	a4,a5,20101af2 <__metal_driver_cpu_hartid+0x1e>
C:\VSD\FreedomStudio-3-1-1-x86_64-w64-mingw32\FreedomStudio-3-1-1\SiFive\freedom-e-sdk-v21.11.00.00\bsp\sifive-hifive1\build\debug/./metal/machine.h:269
		return 0;
20101aee:	4781                	li	a5,0
20101af0:	a011                	j	20101af4 <__metal_driver_cpu_hartid+0x20>
C:\VSD\FreedomStudio-3-1-1-x86_64-w64-mingw32\FreedomStudio-3-1-1\SiFive\freedom-e-sdk-v21.11.00.00\bsp\sifive-hifive1\build\debug/./metal/machine.h:272
	}
	else {
		return -1;
20101af2:	57fd                	li	a5,-1
C:\VSD\FreedomStudio-3-1-1-x86_64-w64-mingw32\FreedomStudio-3-1-1\SiFive\freedom-e-sdk-v21.11.00.00\bsp\sifive-hifive1\build\debug/./metal/machine.h:274
	}
}
20101af4:	853e                	mv	a0,a5
20101af6:	4472                	lw	s0,28(sp)
20101af8:	6105                	add	sp,sp,32
20101afa:	8082                	ret

20101afc <__metal_driver_cpu_timebase>:
__metal_driver_cpu_timebase():
C:\VSD\FreedomStudio-3-1-1-x86_64-w64-mingw32\FreedomStudio-3-1-1\SiFive\freedom-e-sdk-v21.11.00.00\bsp\sifive-hifive1\build\debug/./metal/machine.h:277

static __inline__ int __metal_driver_cpu_timebase(struct metal_cpu *cpu)
{
20101afc:	1101                	add	sp,sp,-32
20101afe:	ce22                	sw	s0,28(sp)
20101b00:	1000                	add	s0,sp,32
20101b02:	fea42623          	sw	a0,-20(s0)
C:\VSD\FreedomStudio-3-1-1-x86_64-w64-mingw32\FreedomStudio-3-1-1\SiFive\freedom-e-sdk-v21.11.00.00\bsp\sifive-hifive1\build\debug/./metal/machine.h:278
	if ((uintptr_t)cpu == (uintptr_t)&__metal_dt_cpu_0) {
20101b06:	fec42703          	lw	a4,-20(s0)
20101b0a:	800017b7          	lui	a5,0x80001
20101b0e:	a2478793          	add	a5,a5,-1500 # 80000a24 <__metal_dt_cpu_0>
20101b12:	00f71763          	bne	a4,a5,20101b20 <__metal_driver_cpu_timebase+0x24>
C:\VSD\FreedomStudio-3-1-1-x86_64-w64-mingw32\FreedomStudio-3-1-1\SiFive\freedom-e-sdk-v21.11.00.00\bsp\sifive-hifive1\build\debug/./metal/machine.h:279
		return 1000000;
20101b16:	000f47b7          	lui	a5,0xf4
20101b1a:	24078793          	add	a5,a5,576 # f4240 <__heap_size+0xf3a40>
20101b1e:	a011                	j	20101b22 <__metal_driver_cpu_timebase+0x26>
C:\VSD\FreedomStudio-3-1-1-x86_64-w64-mingw32\FreedomStudio-3-1-1\SiFive\freedom-e-sdk-v21.11.00.00\bsp\sifive-hifive1\build\debug/./metal/machine.h:282
	}
	else {
		return 0;
20101b20:	4781                	li	a5,0
C:\VSD\FreedomStudio-3-1-1-x86_64-w64-mingw32\FreedomStudio-3-1-1\SiFive\freedom-e-sdk-v21.11.00.00\bsp\sifive-hifive1\build\debug/./metal/machine.h:284
	}
}
20101b22:	853e                	mv	a0,a5
20101b24:	4472                	lw	s0,28(sp)
20101b26:	6105                	add	sp,sp,32
20101b28:	8082                	ret

20101b2a <__metal_driver_cpu_interrupt_controller>:
__metal_driver_cpu_interrupt_controller():
C:\VSD\FreedomStudio-3-1-1-x86_64-w64-mingw32\FreedomStudio-3-1-1\SiFive\freedom-e-sdk-v21.11.00.00\bsp\sifive-hifive1\build\debug/./metal/machine.h:287

static __inline__ struct metal_interrupt * __metal_driver_cpu_interrupt_controller(struct metal_cpu *cpu)
{
20101b2a:	1101                	add	sp,sp,-32
20101b2c:	ce22                	sw	s0,28(sp)
20101b2e:	1000                	add	s0,sp,32
20101b30:	fea42623          	sw	a0,-20(s0)
C:\VSD\FreedomStudio-3-1-1-x86_64-w64-mingw32\FreedomStudio-3-1-1\SiFive\freedom-e-sdk-v21.11.00.00\bsp\sifive-hifive1\build\debug/./metal/machine.h:288
	if ((uintptr_t)cpu == (uintptr_t)&__metal_dt_cpu_0) {
20101b34:	fec42703          	lw	a4,-20(s0)
20101b38:	800017b7          	lui	a5,0x80001
20101b3c:	a2478793          	add	a5,a5,-1500 # 80000a24 <__metal_dt_cpu_0>
20101b40:	00f71763          	bne	a4,a5,20101b4e <__metal_driver_cpu_interrupt_controller+0x24>
C:\VSD\FreedomStudio-3-1-1-x86_64-w64-mingw32\FreedomStudio-3-1-1\SiFive\freedom-e-sdk-v21.11.00.00\bsp\sifive-hifive1\build\debug/./metal/machine.h:289
		return &__metal_dt_cpu_0_interrupt_controller.controller;
20101b44:	800007b7          	lui	a5,0x80000
20101b48:	02878793          	add	a5,a5,40 # 80000028 <__metal_dt_cpu_0_interrupt_controller>
20101b4c:	a011                	j	20101b50 <__metal_driver_cpu_interrupt_controller+0x26>
C:\VSD\FreedomStudio-3-1-1-x86_64-w64-mingw32\FreedomStudio-3-1-1\SiFive\freedom-e-sdk-v21.11.00.00\bsp\sifive-hifive1\build\debug/./metal/machine.h:292
	}
	else {
		return NULL;
20101b4e:	4781                	li	a5,0
C:\VSD\FreedomStudio-3-1-1-x86_64-w64-mingw32\FreedomStudio-3-1-1\SiFive\freedom-e-sdk-v21.11.00.00\bsp\sifive-hifive1\build\debug/./metal/machine.h:294
	}
}
20101b50:	853e                	mv	a0,a5
20101b52:	4472                	lw	s0,28(sp)
20101b54:	6105                	add	sp,sp,32
20101b56:	8082                	ret

20101b58 <__metal_driver_cpu_buserror>:
__metal_driver_cpu_buserror():
C:\VSD\FreedomStudio-3-1-1-x86_64-w64-mingw32\FreedomStudio-3-1-1\SiFive\freedom-e-sdk-v21.11.00.00\bsp\sifive-hifive1\build\debug/./metal/machine.h:307
		return 0;
	}
}

static __inline__ struct metal_buserror * __metal_driver_cpu_buserror(struct metal_cpu *cpu)
{
20101b58:	1101                	add	sp,sp,-32
20101b5a:	ce22                	sw	s0,28(sp)
20101b5c:	1000                	add	s0,sp,32
20101b5e:	fea42623          	sw	a0,-20(s0)
C:\VSD\FreedomStudio-3-1-1-x86_64-w64-mingw32\FreedomStudio-3-1-1\SiFive\freedom-e-sdk-v21.11.00.00\bsp\sifive-hifive1\build\debug/./metal/machine.h:308
	if ((uintptr_t)cpu == (uintptr_t)&__metal_dt_cpu_0) {
20101b62:	fec42703          	lw	a4,-20(s0)
20101b66:	800017b7          	lui	a5,0x80001
20101b6a:	a2478793          	add	a5,a5,-1500 # 80000a24 <__metal_dt_cpu_0>
20101b6e:	00f71463          	bne	a4,a5,20101b76 <__metal_driver_cpu_buserror+0x1e>
C:\VSD\FreedomStudio-3-1-1-x86_64-w64-mingw32\FreedomStudio-3-1-1\SiFive\freedom-e-sdk-v21.11.00.00\bsp\sifive-hifive1\build\debug/./metal/machine.h:309
		return NULL;
20101b72:	4781                	li	a5,0
20101b74:	a011                	j	20101b78 <__metal_driver_cpu_buserror+0x20>
C:\VSD\FreedomStudio-3-1-1-x86_64-w64-mingw32\FreedomStudio-3-1-1\SiFive\freedom-e-sdk-v21.11.00.00\bsp\sifive-hifive1\build\debug/./metal/machine.h:312
	}
	else {
		return NULL;
20101b76:	4781                	li	a5,0
C:\VSD\FreedomStudio-3-1-1-x86_64-w64-mingw32\FreedomStudio-3-1-1\SiFive\freedom-e-sdk-v21.11.00.00\bsp\sifive-hifive1\build\debug/./metal/machine.h:314
	}
}
20101b78:	853e                	mv	a0,a5
20101b7a:	4472                	lw	s0,28(sp)
20101b7c:	6105                	add	sp,sp,32
20101b7e:	8082                	ret

20101b80 <__metal_driver_cpu_get>:
__metal_driver_cpu_get():
C:/VSD/FreedomStudio-3-1-1-x86_64-w64-mingw32/FreedomStudio-3-1-1/SiFive/freedom-e-sdk-v21.11.00.00/freedom-metal/src/drivers/riscv_cpu.c:25
extern void __metal_vector_table();
unsigned long long __metal_driver_cpu_mtime_get(struct metal_cpu *cpu);
int __metal_driver_cpu_mtimecmp_set(struct metal_cpu *cpu,
                                    unsigned long long time);

struct metal_cpu *__metal_driver_cpu_get(int hartid) {
20101b80:	1101                	add	sp,sp,-32
20101b82:	ce22                	sw	s0,28(sp)
20101b84:	1000                	add	s0,sp,32
20101b86:	fea42623          	sw	a0,-20(s0)
C:/VSD/FreedomStudio-3-1-1-x86_64-w64-mingw32/FreedomStudio-3-1-1/SiFive/freedom-e-sdk-v21.11.00.00/freedom-metal/src/drivers/riscv_cpu.c:26
    if (hartid < __METAL_DT_MAX_HARTS) {
20101b8a:	fec42783          	lw	a5,-20(s0)
20101b8e:	00f04c63          	bgtz	a5,20101ba6 <__metal_driver_cpu_get+0x26>
C:/VSD/FreedomStudio-3-1-1-x86_64-w64-mingw32/FreedomStudio-3-1-1/SiFive/freedom-e-sdk-v21.11.00.00/freedom-metal/src/drivers/riscv_cpu.c:27
        return &(__metal_cpu_table[hartid]->cpu);
20101b92:	800017b7          	lui	a5,0x80001
20101b96:	fec42703          	lw	a4,-20(s0)
20101b9a:	070a                	sll	a4,a4,0x2
20101b9c:	a1878793          	add	a5,a5,-1512 # 80000a18 <__metal_cpu_table>
20101ba0:	97ba                	add	a5,a5,a4
20101ba2:	439c                	lw	a5,0(a5)
20101ba4:	a011                	j	20101ba8 <__metal_driver_cpu_get+0x28>
C:/VSD/FreedomStudio-3-1-1-x86_64-w64-mingw32/FreedomStudio-3-1-1/SiFive/freedom-e-sdk-v21.11.00.00/freedom-metal/src/drivers/riscv_cpu.c:29
    }
    return (struct metal_cpu *)NULL;
20101ba6:	4781                	li	a5,0
C:/VSD/FreedomStudio-3-1-1-x86_64-w64-mingw32/FreedomStudio-3-1-1/SiFive/freedom-e-sdk-v21.11.00.00/freedom-metal/src/drivers/riscv_cpu.c:30
}
20101ba8:	853e                	mv	a0,a5
20101baa:	4472                	lw	s0,28(sp)
20101bac:	6105                	add	sp,sp,32
20101bae:	8082                	ret

20101bb0 <__metal_myhart_id>:
__metal_myhart_id():
C:/VSD/FreedomStudio-3-1-1-x86_64-w64-mingw32/FreedomStudio-3-1-1/SiFive/freedom-e-sdk-v21.11.00.00/freedom-metal/src/drivers/riscv_cpu.c:32

uintptr_t __metal_myhart_id(void) {
20101bb0:	1101                	add	sp,sp,-32
20101bb2:	ce22                	sw	s0,28(sp)
20101bb4:	1000                	add	s0,sp,32
C:/VSD/FreedomStudio-3-1-1-x86_64-w64-mingw32/FreedomStudio-3-1-1/SiFive/freedom-e-sdk-v21.11.00.00/freedom-metal/src/drivers/riscv_cpu.c:34
    uintptr_t myhart;
    __asm__ volatile("csrr %0, mhartid" : "=r"(myhart));
20101bb6:	f14027f3          	csrr	a5,mhartid
20101bba:	fef42623          	sw	a5,-20(s0)
C:/VSD/FreedomStudio-3-1-1-x86_64-w64-mingw32/FreedomStudio-3-1-1/SiFive/freedom-e-sdk-v21.11.00.00/freedom-metal/src/drivers/riscv_cpu.c:35
    return myhart;
20101bbe:	fec42783          	lw	a5,-20(s0)
C:/VSD/FreedomStudio-3-1-1-x86_64-w64-mingw32/FreedomStudio-3-1-1/SiFive/freedom-e-sdk-v21.11.00.00/freedom-metal/src/drivers/riscv_cpu.c:36
}
20101bc2:	853e                	mv	a0,a5
20101bc4:	4472                	lw	s0,28(sp)
20101bc6:	6105                	add	sp,sp,32
20101bc8:	8082                	ret

20101bca <__metal_interrupt_global_enable>:
__metal_interrupt_global_enable():
C:/VSD/FreedomStudio-3-1-1-x86_64-w64-mingw32/FreedomStudio-3-1-1/SiFive/freedom-e-sdk-v21.11.00.00/freedom-metal/src/drivers/riscv_cpu.c:45
    for (ptr = base; ptr < (base + size); ptr++) {
        *ptr = 0;
    }
}

void __metal_interrupt_global_enable(void) {
20101bca:	1101                	add	sp,sp,-32
20101bcc:	ce22                	sw	s0,28(sp)
20101bce:	1000                	add	s0,sp,32
C:/VSD/FreedomStudio-3-1-1-x86_64-w64-mingw32/FreedomStudio-3-1-1/SiFive/freedom-e-sdk-v21.11.00.00/freedom-metal/src/drivers/riscv_cpu.c:47
    uintptr_t m;
    __asm__ volatile("csrrs %0, mstatus, %1"
20101bd0:	47a1                	li	a5,8
20101bd2:	3007a7f3          	csrrs	a5,mstatus,a5
20101bd6:	fef42623          	sw	a5,-20(s0)
C:/VSD/FreedomStudio-3-1-1-x86_64-w64-mingw32/FreedomStudio-3-1-1/SiFive/freedom-e-sdk-v21.11.00.00/freedom-metal/src/drivers/riscv_cpu.c:50
                     : "=r"(m)
                     : "r"(METAL_MIE_INTERRUPT));
}
20101bda:	0001                	nop
20101bdc:	4472                	lw	s0,28(sp)
20101bde:	6105                	add	sp,sp,32
20101be0:	8082                	ret

20101be2 <__metal_interrupt_global_disable>:
__metal_interrupt_global_disable():
C:/VSD/FreedomStudio-3-1-1-x86_64-w64-mingw32/FreedomStudio-3-1-1/SiFive/freedom-e-sdk-v21.11.00.00/freedom-metal/src/drivers/riscv_cpu.c:52

void __metal_interrupt_global_disable(void) {
20101be2:	1101                	add	sp,sp,-32
20101be4:	ce22                	sw	s0,28(sp)
20101be6:	1000                	add	s0,sp,32
C:/VSD/FreedomStudio-3-1-1-x86_64-w64-mingw32/FreedomStudio-3-1-1/SiFive/freedom-e-sdk-v21.11.00.00/freedom-metal/src/drivers/riscv_cpu.c:54
    uintptr_t m;
    __asm__ volatile("csrrc %0, mstatus, %1"
20101be8:	47a1                	li	a5,8
20101bea:	3007b7f3          	csrrc	a5,mstatus,a5
20101bee:	fef42623          	sw	a5,-20(s0)
C:/VSD/FreedomStudio-3-1-1-x86_64-w64-mingw32/FreedomStudio-3-1-1/SiFive/freedom-e-sdk-v21.11.00.00/freedom-metal/src/drivers/riscv_cpu.c:57
                     : "=r"(m)
                     : "r"(METAL_MIE_INTERRUPT));
}
20101bf2:	0001                	nop
20101bf4:	4472                	lw	s0,28(sp)
20101bf6:	6105                	add	sp,sp,32
20101bf8:	8082                	ret

20101bfa <__metal_interrupt_software_enable>:
__metal_interrupt_software_enable():
C:/VSD/FreedomStudio-3-1-1-x86_64-w64-mingw32/FreedomStudio-3-1-1/SiFive/freedom-e-sdk-v21.11.00.00/freedom-metal/src/drivers/riscv_cpu.c:59

void __metal_interrupt_software_enable(void) {
20101bfa:	1101                	add	sp,sp,-32
20101bfc:	ce22                	sw	s0,28(sp)
20101bfe:	1000                	add	s0,sp,32
C:/VSD/FreedomStudio-3-1-1-x86_64-w64-mingw32/FreedomStudio-3-1-1/SiFive/freedom-e-sdk-v21.11.00.00/freedom-metal/src/drivers/riscv_cpu.c:61
    uintptr_t m;
    __asm__ volatile("csrrs %0, mie, %1"
20101c00:	47a1                	li	a5,8
20101c02:	3047a7f3          	csrrs	a5,mie,a5
20101c06:	fef42623          	sw	a5,-20(s0)
C:/VSD/FreedomStudio-3-1-1-x86_64-w64-mingw32/FreedomStudio-3-1-1/SiFive/freedom-e-sdk-v21.11.00.00/freedom-metal/src/drivers/riscv_cpu.c:64
                     : "=r"(m)
                     : "r"(METAL_LOCAL_INTERRUPT_SW));
}
20101c0a:	0001                	nop
20101c0c:	4472                	lw	s0,28(sp)
20101c0e:	6105                	add	sp,sp,32
20101c10:	8082                	ret

20101c12 <__metal_interrupt_software_disable>:
__metal_interrupt_software_disable():
C:/VSD/FreedomStudio-3-1-1-x86_64-w64-mingw32/FreedomStudio-3-1-1/SiFive/freedom-e-sdk-v21.11.00.00/freedom-metal/src/drivers/riscv_cpu.c:66

void __metal_interrupt_software_disable(void) {
20101c12:	1101                	add	sp,sp,-32
20101c14:	ce22                	sw	s0,28(sp)
20101c16:	1000                	add	s0,sp,32
C:/VSD/FreedomStudio-3-1-1-x86_64-w64-mingw32/FreedomStudio-3-1-1/SiFive/freedom-e-sdk-v21.11.00.00/freedom-metal/src/drivers/riscv_cpu.c:68
    uintptr_t m;
    __asm__ volatile("csrrc %0, mie, %1"
20101c18:	47a1                	li	a5,8
20101c1a:	3047b7f3          	csrrc	a5,mie,a5
20101c1e:	fef42623          	sw	a5,-20(s0)
C:/VSD/FreedomStudio-3-1-1-x86_64-w64-mingw32/FreedomStudio-3-1-1/SiFive/freedom-e-sdk-v21.11.00.00/freedom-metal/src/drivers/riscv_cpu.c:71
                     : "=r"(m)
                     : "r"(METAL_LOCAL_INTERRUPT_SW));
}
20101c22:	0001                	nop
20101c24:	4472                	lw	s0,28(sp)
20101c26:	6105                	add	sp,sp,32
20101c28:	8082                	ret

20101c2a <__metal_interrupt_timer_enable>:
__metal_interrupt_timer_enable():
C:/VSD/FreedomStudio-3-1-1-x86_64-w64-mingw32/FreedomStudio-3-1-1/SiFive/freedom-e-sdk-v21.11.00.00/freedom-metal/src/drivers/riscv_cpu.c:73

void __metal_interrupt_timer_enable(void) {
20101c2a:	1101                	add	sp,sp,-32
20101c2c:	ce22                	sw	s0,28(sp)
20101c2e:	1000                	add	s0,sp,32
C:/VSD/FreedomStudio-3-1-1-x86_64-w64-mingw32/FreedomStudio-3-1-1/SiFive/freedom-e-sdk-v21.11.00.00/freedom-metal/src/drivers/riscv_cpu.c:75
    uintptr_t m;
    __asm__ volatile("csrrs %0, mie, %1"
20101c30:	08000793          	li	a5,128
20101c34:	3047a7f3          	csrrs	a5,mie,a5
20101c38:	fef42623          	sw	a5,-20(s0)
C:/VSD/FreedomStudio-3-1-1-x86_64-w64-mingw32/FreedomStudio-3-1-1/SiFive/freedom-e-sdk-v21.11.00.00/freedom-metal/src/drivers/riscv_cpu.c:78
                     : "=r"(m)
                     : "r"(METAL_LOCAL_INTERRUPT_TMR));
}
20101c3c:	0001                	nop
20101c3e:	4472                	lw	s0,28(sp)
20101c40:	6105                	add	sp,sp,32
20101c42:	8082                	ret

20101c44 <__metal_interrupt_timer_disable>:
__metal_interrupt_timer_disable():
C:/VSD/FreedomStudio-3-1-1-x86_64-w64-mingw32/FreedomStudio-3-1-1/SiFive/freedom-e-sdk-v21.11.00.00/freedom-metal/src/drivers/riscv_cpu.c:80

void __metal_interrupt_timer_disable(void) {
20101c44:	1101                	add	sp,sp,-32
20101c46:	ce22                	sw	s0,28(sp)
20101c48:	1000                	add	s0,sp,32
C:/VSD/FreedomStudio-3-1-1-x86_64-w64-mingw32/FreedomStudio-3-1-1/SiFive/freedom-e-sdk-v21.11.00.00/freedom-metal/src/drivers/riscv_cpu.c:82
    uintptr_t m;
    __asm__ volatile("csrrc %0, mie, %1"
20101c4a:	08000793          	li	a5,128
20101c4e:	3047b7f3          	csrrc	a5,mie,a5
20101c52:	fef42623          	sw	a5,-20(s0)
C:/VSD/FreedomStudio-3-1-1-x86_64-w64-mingw32/FreedomStudio-3-1-1/SiFive/freedom-e-sdk-v21.11.00.00/freedom-metal/src/drivers/riscv_cpu.c:85
                     : "=r"(m)
                     : "r"(METAL_LOCAL_INTERRUPT_TMR));
}
20101c56:	0001                	nop
20101c58:	4472                	lw	s0,28(sp)
20101c5a:	6105                	add	sp,sp,32
20101c5c:	8082                	ret

20101c5e <__metal_interrupt_external_enable>:
__metal_interrupt_external_enable():
C:/VSD/FreedomStudio-3-1-1-x86_64-w64-mingw32/FreedomStudio-3-1-1/SiFive/freedom-e-sdk-v21.11.00.00/freedom-metal/src/drivers/riscv_cpu.c:87

void __metal_interrupt_external_enable(void) {
20101c5e:	1101                	add	sp,sp,-32
20101c60:	ce22                	sw	s0,28(sp)
20101c62:	1000                	add	s0,sp,32
C:/VSD/FreedomStudio-3-1-1-x86_64-w64-mingw32/FreedomStudio-3-1-1/SiFive/freedom-e-sdk-v21.11.00.00/freedom-metal/src/drivers/riscv_cpu.c:89
    uintptr_t m;
    __asm__ volatile("csrrs %0, mie, %1"
20101c64:	6785                	lui	a5,0x1
20101c66:	80078793          	add	a5,a5,-2048 # 800 <__heap_size>
20101c6a:	3047a7f3          	csrrs	a5,mie,a5
20101c6e:	fef42623          	sw	a5,-20(s0)
C:/VSD/FreedomStudio-3-1-1-x86_64-w64-mingw32/FreedomStudio-3-1-1/SiFive/freedom-e-sdk-v21.11.00.00/freedom-metal/src/drivers/riscv_cpu.c:92
                     : "=r"(m)
                     : "r"(METAL_LOCAL_INTERRUPT_EXT));
}
20101c72:	0001                	nop
20101c74:	4472                	lw	s0,28(sp)
20101c76:	6105                	add	sp,sp,32
20101c78:	8082                	ret

20101c7a <__metal_interrupt_external_disable>:
__metal_interrupt_external_disable():
C:/VSD/FreedomStudio-3-1-1-x86_64-w64-mingw32/FreedomStudio-3-1-1/SiFive/freedom-e-sdk-v21.11.00.00/freedom-metal/src/drivers/riscv_cpu.c:94

void __metal_interrupt_external_disable(void) {
20101c7a:	1101                	add	sp,sp,-32
20101c7c:	ce22                	sw	s0,28(sp)
20101c7e:	1000                	add	s0,sp,32
C:/VSD/FreedomStudio-3-1-1-x86_64-w64-mingw32/FreedomStudio-3-1-1/SiFive/freedom-e-sdk-v21.11.00.00/freedom-metal/src/drivers/riscv_cpu.c:96
    unsigned long m;
    __asm__ volatile("csrrc %0, mie, %1"
20101c80:	6785                	lui	a5,0x1
20101c82:	80078793          	add	a5,a5,-2048 # 800 <__heap_size>
20101c86:	3047b7f3          	csrrc	a5,mie,a5
20101c8a:	fef42623          	sw	a5,-20(s0)
C:/VSD/FreedomStudio-3-1-1-x86_64-w64-mingw32/FreedomStudio-3-1-1/SiFive/freedom-e-sdk-v21.11.00.00/freedom-metal/src/drivers/riscv_cpu.c:99
                     : "=r"(m)
                     : "r"(METAL_LOCAL_INTERRUPT_EXT));
}
20101c8e:	0001                	nop
20101c90:	4472                	lw	s0,28(sp)
20101c92:	6105                	add	sp,sp,32
20101c94:	8082                	ret

20101c96 <__metal_interrupt_local_enable>:
__metal_interrupt_local_enable():
C:/VSD/FreedomStudio-3-1-1-x86_64-w64-mingw32/FreedomStudio-3-1-1/SiFive/freedom-e-sdk-v21.11.00.00/freedom-metal/src/drivers/riscv_cpu.c:101

void __metal_interrupt_local_enable(int id) {
20101c96:	7179                	add	sp,sp,-48
20101c98:	d622                	sw	s0,44(sp)
20101c9a:	1800                	add	s0,sp,48
20101c9c:	fca42e23          	sw	a0,-36(s0)
C:/VSD/FreedomStudio-3-1-1-x86_64-w64-mingw32/FreedomStudio-3-1-1/SiFive/freedom-e-sdk-v21.11.00.00/freedom-metal/src/drivers/riscv_cpu.c:102
    uintptr_t b = 1 << id;
20101ca0:	fdc42783          	lw	a5,-36(s0)
20101ca4:	4705                	li	a4,1
20101ca6:	00f717b3          	sll	a5,a4,a5
20101caa:	fef42623          	sw	a5,-20(s0)
C:/VSD/FreedomStudio-3-1-1-x86_64-w64-mingw32/FreedomStudio-3-1-1/SiFive/freedom-e-sdk-v21.11.00.00/freedom-metal/src/drivers/riscv_cpu.c:104
    uintptr_t m;
    __asm__ volatile("csrrs %0, mie, %1" : "=r"(m) : "r"(b));
20101cae:	fec42783          	lw	a5,-20(s0)
20101cb2:	3047a7f3          	csrrs	a5,mie,a5
20101cb6:	fef42423          	sw	a5,-24(s0)
C:/VSD/FreedomStudio-3-1-1-x86_64-w64-mingw32/FreedomStudio-3-1-1/SiFive/freedom-e-sdk-v21.11.00.00/freedom-metal/src/drivers/riscv_cpu.c:105
}
20101cba:	0001                	nop
20101cbc:	5432                	lw	s0,44(sp)
20101cbe:	6145                	add	sp,sp,48
20101cc0:	8082                	ret

20101cc2 <__metal_interrupt_local_disable>:
__metal_interrupt_local_disable():
C:/VSD/FreedomStudio-3-1-1-x86_64-w64-mingw32/FreedomStudio-3-1-1/SiFive/freedom-e-sdk-v21.11.00.00/freedom-metal/src/drivers/riscv_cpu.c:107

void __metal_interrupt_local_disable(int id) {
20101cc2:	7179                	add	sp,sp,-48
20101cc4:	d622                	sw	s0,44(sp)
20101cc6:	1800                	add	s0,sp,48
20101cc8:	fca42e23          	sw	a0,-36(s0)
C:/VSD/FreedomStudio-3-1-1-x86_64-w64-mingw32/FreedomStudio-3-1-1/SiFive/freedom-e-sdk-v21.11.00.00/freedom-metal/src/drivers/riscv_cpu.c:108
    uintptr_t b = 1 << id;
20101ccc:	fdc42783          	lw	a5,-36(s0)
20101cd0:	4705                	li	a4,1
20101cd2:	00f717b3          	sll	a5,a4,a5
20101cd6:	fef42623          	sw	a5,-20(s0)
C:/VSD/FreedomStudio-3-1-1-x86_64-w64-mingw32/FreedomStudio-3-1-1/SiFive/freedom-e-sdk-v21.11.00.00/freedom-metal/src/drivers/riscv_cpu.c:110
    uintptr_t m;
    __asm__ volatile("csrrc %0, mie, %1" : "=r"(m) : "r"(b));
20101cda:	fec42783          	lw	a5,-20(s0)
20101cde:	3047b7f3          	csrrc	a5,mie,a5
20101ce2:	fef42423          	sw	a5,-24(s0)
C:/VSD/FreedomStudio-3-1-1-x86_64-w64-mingw32/FreedomStudio-3-1-1/SiFive/freedom-e-sdk-v21.11.00.00/freedom-metal/src/drivers/riscv_cpu.c:111
}
20101ce6:	0001                	nop
20101ce8:	5432                	lw	s0,44(sp)
20101cea:	6145                	add	sp,sp,48
20101cec:	8082                	ret

20101cee <__metal_default_exception_handler>:
__metal_default_exception_handler():
C:/VSD/FreedomStudio-3-1-1-x86_64-w64-mingw32/FreedomStudio-3-1-1/SiFive/freedom-e-sdk-v21.11.00.00/freedom-metal/src/drivers/riscv_cpu.c:113

void __metal_default_exception_handler(struct metal_cpu *cpu, int ecode) {
20101cee:	1101                	add	sp,sp,-32
20101cf0:	ce06                	sw	ra,28(sp)
20101cf2:	cc22                	sw	s0,24(sp)
20101cf4:	1000                	add	s0,sp,32
20101cf6:	fea42623          	sw	a0,-20(s0)
20101cfa:	feb42423          	sw	a1,-24(s0)
C:/VSD/FreedomStudio-3-1-1-x86_64-w64-mingw32/FreedomStudio-3-1-1/SiFive/freedom-e-sdk-v21.11.00.00/freedom-metal/src/drivers/riscv_cpu.c:114
    metal_shutdown(100);
20101cfe:	06400513          	li	a0,100
20101d02:	2d1030ef          	jal	201057d2 <metal_shutdown>

20101d06 <__metal_default_interrupt_handler>:
__metal_default_interrupt_handler():
C:/VSD/FreedomStudio-3-1-1-x86_64-w64-mingw32/FreedomStudio-3-1-1/SiFive/freedom-e-sdk-v21.11.00.00/freedom-metal/src/drivers/riscv_cpu.c:117
}

void __metal_default_interrupt_handler(int id, void *priv) {
20101d06:	1101                	add	sp,sp,-32
20101d08:	ce06                	sw	ra,28(sp)
20101d0a:	cc22                	sw	s0,24(sp)
20101d0c:	1000                	add	s0,sp,32
20101d0e:	fea42623          	sw	a0,-20(s0)
20101d12:	feb42423          	sw	a1,-24(s0)
C:/VSD/FreedomStudio-3-1-1-x86_64-w64-mingw32/FreedomStudio-3-1-1/SiFive/freedom-e-sdk-v21.11.00.00/freedom-metal/src/drivers/riscv_cpu.c:118
    metal_shutdown(200);
20101d16:	0c800513          	li	a0,200
20101d1a:	2b9030ef          	jal	201057d2 <metal_shutdown>

20101d1e <metal_interrupt_vector_handler>:
metal_interrupt_vector_handler():
C:/VSD/FreedomStudio-3-1-1-x86_64-w64-mingw32/FreedomStudio-3-1-1/SiFive/freedom-e-sdk-v21.11.00.00/freedom-metal/src/drivers/riscv_cpu.c:122
}

/* The metal_interrupt_vector_handler() function can be redefined. */
void __attribute__((weak, interrupt)) metal_interrupt_vector_handler(void) {
20101d1e:	715d                	add	sp,sp,-80
20101d20:	c686                	sw	ra,76(sp)
20101d22:	c496                	sw	t0,72(sp)
20101d24:	c29a                	sw	t1,68(sp)
20101d26:	c09e                	sw	t2,64(sp)
20101d28:	de22                	sw	s0,60(sp)
20101d2a:	dc2a                	sw	a0,56(sp)
20101d2c:	da2e                	sw	a1,52(sp)
20101d2e:	d832                	sw	a2,48(sp)
20101d30:	d636                	sw	a3,44(sp)
20101d32:	d43a                	sw	a4,40(sp)
20101d34:	d23e                	sw	a5,36(sp)
20101d36:	d042                	sw	a6,32(sp)
20101d38:	ce46                	sw	a7,28(sp)
20101d3a:	cc72                	sw	t3,24(sp)
20101d3c:	ca76                	sw	t4,20(sp)
20101d3e:	c87a                	sw	t5,16(sp)
20101d40:	c67e                	sw	t6,12(sp)
20101d42:	0880                	add	s0,sp,80
C:/VSD/FreedomStudio-3-1-1-x86_64-w64-mingw32/FreedomStudio-3-1-1/SiFive/freedom-e-sdk-v21.11.00.00/freedom-metal/src/drivers/riscv_cpu.c:123
    metal_shutdown(300);
20101d44:	12c00513          	li	a0,300
20101d48:	28b030ef          	jal	201057d2 <metal_shutdown>

20101d4c <metal_software_interrupt_vector_handler>:
metal_software_interrupt_vector_handler():
C:/VSD/FreedomStudio-3-1-1-x86_64-w64-mingw32/FreedomStudio-3-1-1/SiFive/freedom-e-sdk-v21.11.00.00/freedom-metal/src/drivers/riscv_cpu.c:128
}

/* The metal_software_interrupt_vector_handler() function can be redefined. */
void __attribute__((weak, interrupt))
metal_software_interrupt_vector_handler(void) {
20101d4c:	711d                	add	sp,sp,-96
20101d4e:	ce86                	sw	ra,92(sp)
20101d50:	cc96                	sw	t0,88(sp)
20101d52:	ca9a                	sw	t1,84(sp)
20101d54:	c89e                	sw	t2,80(sp)
20101d56:	c6a2                	sw	s0,76(sp)
20101d58:	c4aa                	sw	a0,72(sp)
20101d5a:	c2ae                	sw	a1,68(sp)
20101d5c:	c0b2                	sw	a2,64(sp)
20101d5e:	de36                	sw	a3,60(sp)
20101d60:	dc3a                	sw	a4,56(sp)
20101d62:	da3e                	sw	a5,52(sp)
20101d64:	d842                	sw	a6,48(sp)
20101d66:	d646                	sw	a7,44(sp)
20101d68:	d472                	sw	t3,40(sp)
20101d6a:	d276                	sw	t4,36(sp)
20101d6c:	d07a                	sw	t5,32(sp)
20101d6e:	ce7e                	sw	t6,28(sp)
20101d70:	1080                	add	s0,sp,96
C:/VSD/FreedomStudio-3-1-1-x86_64-w64-mingw32/FreedomStudio-3-1-1/SiFive/freedom-e-sdk-v21.11.00.00/freedom-metal/src/drivers/riscv_cpu.c:129
    __METAL_IRQ_VECTOR_HANDLER(METAL_INTERRUPT_ID_SW);
20101d72:	3d3d                	jal	20101bb0 <__metal_myhart_id>
20101d74:	872a                	mv	a4,a0
C:/VSD/FreedomStudio-3-1-1-x86_64-w64-mingw32/FreedomStudio-3-1-1/SiFive/freedom-e-sdk-v21.11.00.00/freedom-metal/src/drivers/riscv_cpu.c:129 (discriminator 1)
20101d76:	800017b7          	lui	a5,0x80001
20101d7a:	070a                	sll	a4,a4,0x2
20101d7c:	a1878793          	add	a5,a5,-1512 # 80000a18 <__metal_cpu_table>
20101d80:	97ba                	add	a5,a5,a4
20101d82:	439c                	lw	a5,0(a5)
20101d84:	faf42623          	sw	a5,-84(s0)
20101d88:	fac42783          	lw	a5,-84(s0)
20101d8c:	c785                	beqz	a5,20101db4 <metal_software_interrupt_vector_handler+0x68>
20101d8e:	fac42503          	lw	a0,-84(s0)
20101d92:	3b61                	jal	20101b2a <__metal_driver_cpu_interrupt_controller>
20101d94:	faa42423          	sw	a0,-88(s0)
20101d98:	fa842783          	lw	a5,-88(s0)
20101d9c:	0e07a783          	lw	a5,224(a5)
20101da0:	faf42223          	sw	a5,-92(s0)
20101da4:	fa842783          	lw	a5,-88(s0)
20101da8:	0d87a783          	lw	a5,216(a5)
20101dac:	fa442583          	lw	a1,-92(s0)
20101db0:	450d                	li	a0,3
20101db2:	9782                	jalr	a5
C:/VSD/FreedomStudio-3-1-1-x86_64-w64-mingw32/FreedomStudio-3-1-1/SiFive/freedom-e-sdk-v21.11.00.00/freedom-metal/src/drivers/riscv_cpu.c:130
}
20101db4:	0001                	nop
20101db6:	40f6                	lw	ra,92(sp)
20101db8:	42e6                	lw	t0,88(sp)
20101dba:	4356                	lw	t1,84(sp)
20101dbc:	43c6                	lw	t2,80(sp)
20101dbe:	4436                	lw	s0,76(sp)
20101dc0:	4526                	lw	a0,72(sp)
20101dc2:	4596                	lw	a1,68(sp)
20101dc4:	4606                	lw	a2,64(sp)
20101dc6:	56f2                	lw	a3,60(sp)
20101dc8:	5762                	lw	a4,56(sp)
20101dca:	57d2                	lw	a5,52(sp)
20101dcc:	5842                	lw	a6,48(sp)
20101dce:	58b2                	lw	a7,44(sp)
20101dd0:	5e22                	lw	t3,40(sp)
20101dd2:	5e92                	lw	t4,36(sp)
20101dd4:	5f02                	lw	t5,32(sp)
20101dd6:	4ff2                	lw	t6,28(sp)
20101dd8:	6125                	add	sp,sp,96
20101dda:	30200073          	mret

20101dde <__metal_default_sw_handler>:
__metal_default_sw_handler():
C:/VSD/FreedomStudio-3-1-1-x86_64-w64-mingw32/FreedomStudio-3-1-1/SiFive/freedom-e-sdk-v21.11.00.00/freedom-metal/src/drivers/riscv_cpu.c:132

void __metal_default_sw_handler(int id, void *priv) {
20101dde:	7179                	add	sp,sp,-48
20101de0:	d606                	sw	ra,44(sp)
20101de2:	d422                	sw	s0,40(sp)
20101de4:	1800                	add	s0,sp,48
20101de6:	fca42e23          	sw	a0,-36(s0)
20101dea:	fcb42c23          	sw	a1,-40(s0)
C:/VSD/FreedomStudio-3-1-1-x86_64-w64-mingw32/FreedomStudio-3-1-1/SiFive/freedom-e-sdk-v21.11.00.00/freedom-metal/src/drivers/riscv_cpu.c:135
    uintptr_t mcause;
    struct __metal_driver_riscv_cpu_intc *intc;
    struct __metal_driver_cpu *cpu = __metal_cpu_table[__metal_myhart_id()];
20101dee:	33c9                	jal	20101bb0 <__metal_myhart_id>
20101df0:	872a                	mv	a4,a0
C:/VSD/FreedomStudio-3-1-1-x86_64-w64-mingw32/FreedomStudio-3-1-1/SiFive/freedom-e-sdk-v21.11.00.00/freedom-metal/src/drivers/riscv_cpu.c:135 (discriminator 1)
20101df2:	800017b7          	lui	a5,0x80001
20101df6:	070a                	sll	a4,a4,0x2
20101df8:	a1878793          	add	a5,a5,-1512 # 80000a18 <__metal_cpu_table>
20101dfc:	97ba                	add	a5,a5,a4
20101dfe:	439c                	lw	a5,0(a5)
20101e00:	fef42623          	sw	a5,-20(s0)
C:/VSD/FreedomStudio-3-1-1-x86_64-w64-mingw32/FreedomStudio-3-1-1/SiFive/freedom-e-sdk-v21.11.00.00/freedom-metal/src/drivers/riscv_cpu.c:137

    __asm__ volatile("csrr %0, mcause" : "=r"(mcause));
20101e04:	342027f3          	csrr	a5,mcause
20101e08:	fef42423          	sw	a5,-24(s0)
C:/VSD/FreedomStudio-3-1-1-x86_64-w64-mingw32/FreedomStudio-3-1-1/SiFive/freedom-e-sdk-v21.11.00.00/freedom-metal/src/drivers/riscv_cpu.c:138
    if (cpu) {
20101e0c:	fec42783          	lw	a5,-20(s0)
20101e10:	c795                	beqz	a5,20101e3c <__metal_default_sw_handler+0x5e>
C:/VSD/FreedomStudio-3-1-1-x86_64-w64-mingw32/FreedomStudio-3-1-1/SiFive/freedom-e-sdk-v21.11.00.00/freedom-metal/src/drivers/riscv_cpu.c:140
        intc = (struct __metal_driver_riscv_cpu_intc *)
            __metal_driver_cpu_interrupt_controller((struct metal_cpu *)cpu);
20101e12:	fec42503          	lw	a0,-20(s0)
20101e16:	3b11                	jal	20101b2a <__metal_driver_cpu_interrupt_controller>
20101e18:	fea42223          	sw	a0,-28(s0)
C:/VSD/FreedomStudio-3-1-1-x86_64-w64-mingw32/FreedomStudio-3-1-1/SiFive/freedom-e-sdk-v21.11.00.00/freedom-metal/src/drivers/riscv_cpu.c:141
        intc->metal_exception_table[mcause & METAL_MCAUSE_CAUSE](
20101e1c:	fe842783          	lw	a5,-24(s0)
20101e20:	3ff7f793          	and	a5,a5,1023
20101e24:	fe442703          	lw	a4,-28(s0)
20101e28:	0e878793          	add	a5,a5,232
20101e2c:	078a                	sll	a5,a5,0x2
20101e2e:	97ba                	add	a5,a5,a4
20101e30:	439c                	lw	a5,0(a5)
20101e32:	fdc42583          	lw	a1,-36(s0)
20101e36:	fec42503          	lw	a0,-20(s0)
20101e3a:	9782                	jalr	a5
C:/VSD/FreedomStudio-3-1-1-x86_64-w64-mingw32/FreedomStudio-3-1-1/SiFive/freedom-e-sdk-v21.11.00.00/freedom-metal/src/drivers/riscv_cpu.c:144
            (struct metal_cpu *)cpu, id);
    }
}
20101e3c:	0001                	nop
20101e3e:	50b2                	lw	ra,44(sp)
20101e40:	5422                	lw	s0,40(sp)
20101e42:	6145                	add	sp,sp,48
20101e44:	8082                	ret

20101e46 <metal_timer_interrupt_vector_handler>:
metal_timer_interrupt_vector_handler():
C:/VSD/FreedomStudio-3-1-1-x86_64-w64-mingw32/FreedomStudio-3-1-1/SiFive/freedom-e-sdk-v21.11.00.00/freedom-metal/src/drivers/riscv_cpu.c:148

/* The metal_timer_interrupt_vector_handler() function can be redefined. */
void __attribute__((weak, interrupt))
metal_timer_interrupt_vector_handler(void) {
20101e46:	711d                	add	sp,sp,-96
20101e48:	ce86                	sw	ra,92(sp)
20101e4a:	cc96                	sw	t0,88(sp)
20101e4c:	ca9a                	sw	t1,84(sp)
20101e4e:	c89e                	sw	t2,80(sp)
20101e50:	c6a2                	sw	s0,76(sp)
20101e52:	c4aa                	sw	a0,72(sp)
20101e54:	c2ae                	sw	a1,68(sp)
20101e56:	c0b2                	sw	a2,64(sp)
20101e58:	de36                	sw	a3,60(sp)
20101e5a:	dc3a                	sw	a4,56(sp)
20101e5c:	da3e                	sw	a5,52(sp)
20101e5e:	d842                	sw	a6,48(sp)
20101e60:	d646                	sw	a7,44(sp)
20101e62:	d472                	sw	t3,40(sp)
20101e64:	d276                	sw	t4,36(sp)
20101e66:	d07a                	sw	t5,32(sp)
20101e68:	ce7e                	sw	t6,28(sp)
20101e6a:	1080                	add	s0,sp,96
C:/VSD/FreedomStudio-3-1-1-x86_64-w64-mingw32/FreedomStudio-3-1-1/SiFive/freedom-e-sdk-v21.11.00.00/freedom-metal/src/drivers/riscv_cpu.c:149
    __METAL_IRQ_VECTOR_HANDLER(METAL_INTERRUPT_ID_TMR);
20101e6c:	3391                	jal	20101bb0 <__metal_myhart_id>
20101e6e:	872a                	mv	a4,a0
C:/VSD/FreedomStudio-3-1-1-x86_64-w64-mingw32/FreedomStudio-3-1-1/SiFive/freedom-e-sdk-v21.11.00.00/freedom-metal/src/drivers/riscv_cpu.c:149 (discriminator 1)
20101e70:	800017b7          	lui	a5,0x80001
20101e74:	070a                	sll	a4,a4,0x2
20101e76:	a1878793          	add	a5,a5,-1512 # 80000a18 <__metal_cpu_table>
20101e7a:	97ba                	add	a5,a5,a4
20101e7c:	439c                	lw	a5,0(a5)
20101e7e:	faf42623          	sw	a5,-84(s0)
20101e82:	fac42783          	lw	a5,-84(s0)
20101e86:	c785                	beqz	a5,20101eae <metal_timer_interrupt_vector_handler+0x68>
20101e88:	fac42503          	lw	a0,-84(s0)
20101e8c:	3979                	jal	20101b2a <__metal_driver_cpu_interrupt_controller>
20101e8e:	faa42423          	sw	a0,-88(s0)
20101e92:	fa842783          	lw	a5,-88(s0)
20101e96:	1407a783          	lw	a5,320(a5)
20101e9a:	faf42223          	sw	a5,-92(s0)
20101e9e:	fa842783          	lw	a5,-88(s0)
20101ea2:	1387a783          	lw	a5,312(a5)
20101ea6:	fa442583          	lw	a1,-92(s0)
20101eaa:	451d                	li	a0,7
20101eac:	9782                	jalr	a5
C:/VSD/FreedomStudio-3-1-1-x86_64-w64-mingw32/FreedomStudio-3-1-1/SiFive/freedom-e-sdk-v21.11.00.00/freedom-metal/src/drivers/riscv_cpu.c:150
}
20101eae:	0001                	nop
20101eb0:	40f6                	lw	ra,92(sp)
20101eb2:	42e6                	lw	t0,88(sp)
20101eb4:	4356                	lw	t1,84(sp)
20101eb6:	43c6                	lw	t2,80(sp)
20101eb8:	4436                	lw	s0,76(sp)
20101eba:	4526                	lw	a0,72(sp)
20101ebc:	4596                	lw	a1,68(sp)
20101ebe:	4606                	lw	a2,64(sp)
20101ec0:	56f2                	lw	a3,60(sp)
20101ec2:	5762                	lw	a4,56(sp)
20101ec4:	57d2                	lw	a5,52(sp)
20101ec6:	5842                	lw	a6,48(sp)
20101ec8:	58b2                	lw	a7,44(sp)
20101eca:	5e22                	lw	t3,40(sp)
20101ecc:	5e92                	lw	t4,36(sp)
20101ece:	5f02                	lw	t5,32(sp)
20101ed0:	4ff2                	lw	t6,28(sp)
20101ed2:	6125                	add	sp,sp,96
20101ed4:	30200073          	mret

20101ed8 <__metal_default_beu_handler>:
__metal_default_beu_handler():
C:/VSD/FreedomStudio-3-1-1-x86_64-w64-mingw32/FreedomStudio-3-1-1/SiFive/freedom-e-sdk-v21.11.00.00/freedom-metal/src/drivers/riscv_cpu.c:152

void __metal_default_beu_handler(int id, void *priv) {}
20101ed8:	1101                	add	sp,sp,-32
20101eda:	ce22                	sw	s0,28(sp)
20101edc:	1000                	add	s0,sp,32
20101ede:	fea42623          	sw	a0,-20(s0)
20101ee2:	feb42423          	sw	a1,-24(s0)
20101ee6:	0001                	nop
20101ee8:	4472                	lw	s0,28(sp)
20101eea:	6105                	add	sp,sp,32
20101eec:	8082                	ret

20101eee <__metal_default_timer_handler>:
__metal_default_timer_handler():
C:/VSD/FreedomStudio-3-1-1-x86_64-w64-mingw32/FreedomStudio-3-1-1/SiFive/freedom-e-sdk-v21.11.00.00/freedom-metal/src/drivers/riscv_cpu.c:154

void __metal_default_timer_handler(int id, void *priv) {
20101eee:	7179                	add	sp,sp,-48
20101ef0:	d606                	sw	ra,44(sp)
20101ef2:	d422                	sw	s0,40(sp)
20101ef4:	1800                	add	s0,sp,48
20101ef6:	fca42e23          	sw	a0,-36(s0)
20101efa:	fcb42c23          	sw	a1,-40(s0)
C:/VSD/FreedomStudio-3-1-1-x86_64-w64-mingw32/FreedomStudio-3-1-1/SiFive/freedom-e-sdk-v21.11.00.00/freedom-metal/src/drivers/riscv_cpu.c:155
    struct metal_cpu *cpu = __metal_driver_cpu_get(__metal_myhart_id());
20101efe:	394d                	jal	20101bb0 <__metal_myhart_id>
20101f00:	87aa                	mv	a5,a0
C:/VSD/FreedomStudio-3-1-1-x86_64-w64-mingw32/FreedomStudio-3-1-1/SiFive/freedom-e-sdk-v21.11.00.00/freedom-metal/src/drivers/riscv_cpu.c:155 (discriminator 1)
20101f02:	853e                	mv	a0,a5
20101f04:	39b5                	jal	20101b80 <__metal_driver_cpu_get>
20101f06:	fea42623          	sw	a0,-20(s0)
C:/VSD/FreedomStudio-3-1-1-x86_64-w64-mingw32/FreedomStudio-3-1-1/SiFive/freedom-e-sdk-v21.11.00.00/freedom-metal/src/drivers/riscv_cpu.c:156
    unsigned long long time = __metal_driver_cpu_mtime_get(cpu);
20101f0a:	fec42503          	lw	a0,-20(s0)
20101f0e:	282010ef          	jal	20103190 <__metal_driver_cpu_mtime_get>
20101f12:	fea42023          	sw	a0,-32(s0)
20101f16:	feb42223          	sw	a1,-28(s0)
C:/VSD/FreedomStudio-3-1-1-x86_64-w64-mingw32/FreedomStudio-3-1-1/SiFive/freedom-e-sdk-v21.11.00.00/freedom-metal/src/drivers/riscv_cpu.c:159

    /* Set a 10 cycle timer */
    __metal_driver_cpu_mtimecmp_set(cpu, time + 10);
20101f1a:	fe042703          	lw	a4,-32(s0)
20101f1e:	fe442783          	lw	a5,-28(s0)
20101f22:	4529                	li	a0,10
20101f24:	4581                	li	a1,0
20101f26:	00a70633          	add	a2,a4,a0
20101f2a:	8832                	mv	a6,a2
20101f2c:	00e83833          	sltu	a6,a6,a4
20101f30:	00b786b3          	add	a3,a5,a1
20101f34:	00d807b3          	add	a5,a6,a3
20101f38:	86be                	mv	a3,a5
20101f3a:	8732                	mv	a4,a2
20101f3c:	87b6                	mv	a5,a3
20101f3e:	85ba                	mv	a1,a4
20101f40:	863e                	mv	a2,a5
20101f42:	fec42503          	lw	a0,-20(s0)
20101f46:	2b0010ef          	jal	201031f6 <__metal_driver_cpu_mtimecmp_set>
C:/VSD/FreedomStudio-3-1-1-x86_64-w64-mingw32/FreedomStudio-3-1-1/SiFive/freedom-e-sdk-v21.11.00.00/freedom-metal/src/drivers/riscv_cpu.c:160
}
20101f4a:	0001                	nop
20101f4c:	50b2                	lw	ra,44(sp)
20101f4e:	5422                	lw	s0,40(sp)
20101f50:	6145                	add	sp,sp,48
20101f52:	8082                	ret
	...

20101f80 <__metal_exception_handler>:
__metal_exception_handler():
C:/VSD/FreedomStudio-3-1-1-x86_64-w64-mingw32/FreedomStudio-3-1-1/SiFive/freedom-e-sdk-v21.11.00.00/freedom-metal/src/drivers/riscv_cpu.c:169
metal_external_interrupt_vector_handler(void) {
    __METAL_IRQ_VECTOR_HANDLER(METAL_INTERRUPT_ID_EXT);
}

void __metal_exception_handler(void) __attribute__((interrupt, aligned(128)));
void __metal_exception_handler(void) {
20101f80:	7119                	add	sp,sp,-128
20101f82:	de86                	sw	ra,124(sp)
20101f84:	dc96                	sw	t0,120(sp)
20101f86:	da9a                	sw	t1,116(sp)
20101f88:	d89e                	sw	t2,112(sp)
20101f8a:	d6a2                	sw	s0,108(sp)
20101f8c:	d4aa                	sw	a0,104(sp)
20101f8e:	d2ae                	sw	a1,100(sp)
20101f90:	d0b2                	sw	a2,96(sp)
20101f92:	ceb6                	sw	a3,92(sp)
20101f94:	ccba                	sw	a4,88(sp)
20101f96:	cabe                	sw	a5,84(sp)
20101f98:	c8c2                	sw	a6,80(sp)
20101f9a:	c6c6                	sw	a7,76(sp)
20101f9c:	c4f2                	sw	t3,72(sp)
20101f9e:	c2f6                	sw	t4,68(sp)
20101fa0:	c0fa                	sw	t5,64(sp)
20101fa2:	de7e                	sw	t6,60(sp)
20101fa4:	0100                	add	s0,sp,128
C:/VSD/FreedomStudio-3-1-1-x86_64-w64-mingw32/FreedomStudio-3-1-1/SiFive/freedom-e-sdk-v21.11.00.00/freedom-metal/src/drivers/riscv_cpu.c:174
    int id;
    void *priv;
    uintptr_t mcause, mepc, mtval, mtvec;
    struct __metal_driver_riscv_cpu_intc *intc;
    struct __metal_driver_cpu *cpu = __metal_cpu_table[__metal_myhart_id()];
20101fa6:	3129                	jal	20101bb0 <__metal_myhart_id>
20101fa8:	872a                	mv	a4,a0
C:/VSD/FreedomStudio-3-1-1-x86_64-w64-mingw32/FreedomStudio-3-1-1/SiFive/freedom-e-sdk-v21.11.00.00/freedom-metal/src/drivers/riscv_cpu.c:174 (discriminator 1)
20101faa:	800017b7          	lui	a5,0x80001
20101fae:	070a                	sll	a4,a4,0x2
20101fb0:	a1878793          	add	a5,a5,-1512 # 80000a18 <__metal_cpu_table>
20101fb4:	97ba                	add	a5,a5,a4
20101fb6:	439c                	lw	a5,0(a5)
20101fb8:	faf42623          	sw	a5,-84(s0)
C:/VSD/FreedomStudio-3-1-1-x86_64-w64-mingw32/FreedomStudio-3-1-1/SiFive/freedom-e-sdk-v21.11.00.00/freedom-metal/src/drivers/riscv_cpu.c:176

    __asm__ volatile("csrr %0, mcause" : "=r"(mcause));
20101fbc:	342027f3          	csrr	a5,mcause
20101fc0:	faf42423          	sw	a5,-88(s0)
C:/VSD/FreedomStudio-3-1-1-x86_64-w64-mingw32/FreedomStudio-3-1-1/SiFive/freedom-e-sdk-v21.11.00.00/freedom-metal/src/drivers/riscv_cpu.c:177
    __asm__ volatile("csrr %0, mepc" : "=r"(mepc));
20101fc4:	341027f3          	csrr	a5,mepc
20101fc8:	faf42223          	sw	a5,-92(s0)
C:/VSD/FreedomStudio-3-1-1-x86_64-w64-mingw32/FreedomStudio-3-1-1/SiFive/freedom-e-sdk-v21.11.00.00/freedom-metal/src/drivers/riscv_cpu.c:178
    __asm__ volatile("csrr %0, mtval" : "=r"(mtval));
20101fcc:	343027f3          	csrr	a5,mtval
20101fd0:	faf42023          	sw	a5,-96(s0)
C:/VSD/FreedomStudio-3-1-1-x86_64-w64-mingw32/FreedomStudio-3-1-1/SiFive/freedom-e-sdk-v21.11.00.00/freedom-metal/src/drivers/riscv_cpu.c:179
    __asm__ volatile("csrr %0, mtvec" : "=r"(mtvec));
20101fd4:	305027f3          	csrr	a5,mtvec
20101fd8:	f8f42e23          	sw	a5,-100(s0)
C:/VSD/FreedomStudio-3-1-1-x86_64-w64-mingw32/FreedomStudio-3-1-1/SiFive/freedom-e-sdk-v21.11.00.00/freedom-metal/src/drivers/riscv_cpu.c:181

    if (cpu) {
20101fdc:	fac42783          	lw	a5,-84(s0)
20101fe0:	cbf5                	beqz	a5,201020d4 <__metal_exception_handler+0x154>
C:/VSD/FreedomStudio-3-1-1-x86_64-w64-mingw32/FreedomStudio-3-1-1/SiFive/freedom-e-sdk-v21.11.00.00/freedom-metal/src/drivers/riscv_cpu.c:183
        intc = (struct __metal_driver_riscv_cpu_intc *)
            __metal_driver_cpu_interrupt_controller((struct metal_cpu *)cpu);
20101fe2:	fac42503          	lw	a0,-84(s0)
20101fe6:	3691                	jal	20101b2a <__metal_driver_cpu_interrupt_controller>
20101fe8:	f8a42c23          	sw	a0,-104(s0)
C:/VSD/FreedomStudio-3-1-1-x86_64-w64-mingw32/FreedomStudio-3-1-1/SiFive/freedom-e-sdk-v21.11.00.00/freedom-metal/src/drivers/riscv_cpu.c:184
        id = mcause & METAL_MCAUSE_CAUSE;
20101fec:	fa842783          	lw	a5,-88(s0)
20101ff0:	3ff7f793          	and	a5,a5,1023
20101ff4:	f8f42a23          	sw	a5,-108(s0)
C:/VSD/FreedomStudio-3-1-1-x86_64-w64-mingw32/FreedomStudio-3-1-1/SiFive/freedom-e-sdk-v21.11.00.00/freedom-metal/src/drivers/riscv_cpu.c:185
        if (mcause & METAL_MCAUSE_INTR) {
20101ff8:	fa842783          	lw	a5,-88(s0)
20101ffc:	0a07de63          	bgez	a5,201020b8 <__metal_exception_handler+0x138>
C:/VSD/FreedomStudio-3-1-1-x86_64-w64-mingw32/FreedomStudio-3-1-1/SiFive/freedom-e-sdk-v21.11.00.00/freedom-metal/src/drivers/riscv_cpu.c:186
            if (id == METAL_INTERRUPT_ID_BEU) {
20102000:	f9442703          	lw	a4,-108(s0)
20102004:	08000793          	li	a5,128
20102008:	02f71263          	bne	a4,a5,2010202c <__metal_exception_handler+0xac>
C:/VSD/FreedomStudio-3-1-1-x86_64-w64-mingw32/FreedomStudio-3-1-1/SiFive/freedom-e-sdk-v21.11.00.00/freedom-metal/src/drivers/riscv_cpu.c:187
                priv = intc->metal_int_beu.exint_data;
2010200c:	f9842783          	lw	a5,-104(s0)
20102010:	3987a783          	lw	a5,920(a5)
20102014:	f8f42623          	sw	a5,-116(s0)
C:/VSD/FreedomStudio-3-1-1-x86_64-w64-mingw32/FreedomStudio-3-1-1/SiFive/freedom-e-sdk-v21.11.00.00/freedom-metal/src/drivers/riscv_cpu.c:188
                intc->metal_int_beu.handler(id, priv);
20102018:	f9842783          	lw	a5,-104(s0)
2010201c:	3907a783          	lw	a5,912(a5)
20102020:	f8c42583          	lw	a1,-116(s0)
20102024:	f9442503          	lw	a0,-108(s0)
20102028:	9782                	jalr	a5
C:/VSD/FreedomStudio-3-1-1-x86_64-w64-mingw32/FreedomStudio-3-1-1/SiFive/freedom-e-sdk-v21.11.00.00/freedom-metal/src/drivers/riscv_cpu.c:189
                return;
2010202a:	a06d                	j	201020d4 <__metal_exception_handler+0x154>
C:/VSD/FreedomStudio-3-1-1-x86_64-w64-mingw32/FreedomStudio-3-1-1/SiFive/freedom-e-sdk-v21.11.00.00/freedom-metal/src/drivers/riscv_cpu.c:191
            }
            if ((id < METAL_INTERRUPT_ID_CSW) ||
2010202c:	f9442703          	lw	a4,-108(s0)
20102030:	47ad                	li	a5,11
20102032:	00e7d763          	bge	a5,a4,20102040 <__metal_exception_handler+0xc0>
C:/VSD/FreedomStudio-3-1-1-x86_64-w64-mingw32/FreedomStudio-3-1-1/SiFive/freedom-e-sdk-v21.11.00.00/freedom-metal/src/drivers/riscv_cpu.c:192
                ((mtvec & METAL_MTVEC_MASK) == METAL_MTVEC_DIRECT)) {
20102036:	f9c42783          	lw	a5,-100(s0)
2010203a:	03f7f793          	and	a5,a5,63
C:/VSD/FreedomStudio-3-1-1-x86_64-w64-mingw32/FreedomStudio-3-1-1/SiFive/freedom-e-sdk-v21.11.00.00/freedom-metal/src/drivers/riscv_cpu.c:191 (discriminator 1)
            if ((id < METAL_INTERRUPT_ID_CSW) ||
2010203e:	ef9d                	bnez	a5,2010207c <__metal_exception_handler+0xfc>
C:/VSD/FreedomStudio-3-1-1-x86_64-w64-mingw32/FreedomStudio-3-1-1/SiFive/freedom-e-sdk-v21.11.00.00/freedom-metal/src/drivers/riscv_cpu.c:193
                priv = intc->metal_int_table[id].exint_data;
20102040:	f9842683          	lw	a3,-104(s0)
20102044:	f9442703          	lw	a4,-108(s0)
20102048:	87ba                	mv	a5,a4
2010204a:	0786                	sll	a5,a5,0x1
2010204c:	97ba                	add	a5,a5,a4
2010204e:	078e                	sll	a5,a5,0x3
20102050:	97b6                	add	a5,a5,a3
20102052:	0987a783          	lw	a5,152(a5)
20102056:	f8f42623          	sw	a5,-116(s0)
C:/VSD/FreedomStudio-3-1-1-x86_64-w64-mingw32/FreedomStudio-3-1-1/SiFive/freedom-e-sdk-v21.11.00.00/freedom-metal/src/drivers/riscv_cpu.c:194
                intc->metal_int_table[id].handler(id, priv);
2010205a:	f9842683          	lw	a3,-104(s0)
2010205e:	f9442703          	lw	a4,-108(s0)
20102062:	87ba                	mv	a5,a4
20102064:	0786                	sll	a5,a5,0x1
20102066:	97ba                	add	a5,a5,a4
20102068:	078e                	sll	a5,a5,0x3
2010206a:	97b6                	add	a5,a5,a3
2010206c:	0907a783          	lw	a5,144(a5)
20102070:	f8c42583          	lw	a1,-116(s0)
20102074:	f9442503          	lw	a0,-108(s0)
20102078:	9782                	jalr	a5
C:/VSD/FreedomStudio-3-1-1-x86_64-w64-mingw32/FreedomStudio-3-1-1/SiFive/freedom-e-sdk-v21.11.00.00/freedom-metal/src/drivers/riscv_cpu.c:195
                return;
2010207a:	a8a9                	j	201020d4 <__metal_exception_handler+0x154>
C:/VSD/FreedomStudio-3-1-1-x86_64-w64-mingw32/FreedomStudio-3-1-1/SiFive/freedom-e-sdk-v21.11.00.00/freedom-metal/src/drivers/riscv_cpu.c:197
            }
            if ((mtvec & METAL_MTVEC_MASK) == METAL_MTVEC_CLIC) {
2010207c:	f9c42783          	lw	a5,-100(s0)
20102080:	03f7f713          	and	a4,a5,63
20102084:	4789                	li	a5,2
20102086:	04f71763          	bne	a4,a5,201020d4 <__metal_exception_handler+0x154>
C:/VSD/FreedomStudio-3-1-1-x86_64-w64-mingw32/FreedomStudio-3-1-1/SiFive/freedom-e-sdk-v21.11.00.00/freedom-metal/src/drivers/riscv_cpu.c:201
                uintptr_t mtvt;
                metal_interrupt_handler_t mtvt_handler;

                __asm__ volatile("csrr %0, 0x307" : "=r"(mtvt));
2010208a:	307027f3          	csrr	a5,mtvt
2010208e:	f8f42823          	sw	a5,-112(s0)
C:/VSD/FreedomStudio-3-1-1-x86_64-w64-mingw32/FreedomStudio-3-1-1/SiFive/freedom-e-sdk-v21.11.00.00/freedom-metal/src/drivers/riscv_cpu.c:202
                priv = intc->metal_int_table[METAL_INTERRUPT_ID_SW].sub_int;
20102092:	f9842783          	lw	a5,-104(s0)
20102096:	0dc7a783          	lw	a5,220(a5)
2010209a:	f8f42623          	sw	a5,-116(s0)
C:/VSD/FreedomStudio-3-1-1-x86_64-w64-mingw32/FreedomStudio-3-1-1/SiFive/freedom-e-sdk-v21.11.00.00/freedom-metal/src/drivers/riscv_cpu.c:203
                mtvt_handler = (metal_interrupt_handler_t) * (uintptr_t *)mtvt;
2010209e:	f9042783          	lw	a5,-112(s0)
201020a2:	439c                	lw	a5,0(a5)
201020a4:	f8f42423          	sw	a5,-120(s0)
C:/VSD/FreedomStudio-3-1-1-x86_64-w64-mingw32/FreedomStudio-3-1-1/SiFive/freedom-e-sdk-v21.11.00.00/freedom-metal/src/drivers/riscv_cpu.c:204
                mtvt_handler(id, priv);
201020a8:	f8842783          	lw	a5,-120(s0)
201020ac:	f8c42583          	lw	a1,-116(s0)
201020b0:	f9442503          	lw	a0,-108(s0)
201020b4:	9782                	jalr	a5
C:/VSD/FreedomStudio-3-1-1-x86_64-w64-mingw32/FreedomStudio-3-1-1/SiFive/freedom-e-sdk-v21.11.00.00/freedom-metal/src/drivers/riscv_cpu.c:205
                return;
201020b6:	a839                	j	201020d4 <__metal_exception_handler+0x154>
C:/VSD/FreedomStudio-3-1-1-x86_64-w64-mingw32/FreedomStudio-3-1-1/SiFive/freedom-e-sdk-v21.11.00.00/freedom-metal/src/drivers/riscv_cpu.c:208
            }
        } else {
            intc->metal_exception_table[id]((struct metal_cpu *)cpu, id);
201020b8:	f9842703          	lw	a4,-104(s0)
201020bc:	f9442783          	lw	a5,-108(s0)
201020c0:	0e878793          	add	a5,a5,232
201020c4:	078a                	sll	a5,a5,0x2
201020c6:	97ba                	add	a5,a5,a4
201020c8:	439c                	lw	a5,0(a5)
201020ca:	f9442583          	lw	a1,-108(s0)
201020ce:	fac42503          	lw	a0,-84(s0)
201020d2:	9782                	jalr	a5
C:/VSD/FreedomStudio-3-1-1-x86_64-w64-mingw32/FreedomStudio-3-1-1/SiFive/freedom-e-sdk-v21.11.00.00/freedom-metal/src/drivers/riscv_cpu.c:211
        }
    }
}
201020d4:	50f6                	lw	ra,124(sp)
201020d6:	52e6                	lw	t0,120(sp)
201020d8:	5356                	lw	t1,116(sp)
201020da:	53c6                	lw	t2,112(sp)
201020dc:	5436                	lw	s0,108(sp)
201020de:	5526                	lw	a0,104(sp)
201020e0:	5596                	lw	a1,100(sp)
201020e2:	5606                	lw	a2,96(sp)
201020e4:	46f6                	lw	a3,92(sp)
201020e6:	4766                	lw	a4,88(sp)
201020e8:	47d6                	lw	a5,84(sp)
201020ea:	4846                	lw	a6,80(sp)
201020ec:	48b6                	lw	a7,76(sp)
201020ee:	4e26                	lw	t3,72(sp)
201020f0:	4e96                	lw	t4,68(sp)
201020f2:	4f06                	lw	t5,64(sp)
201020f4:	5ff2                	lw	t6,60(sp)
201020f6:	6109                	add	sp,sp,128
201020f8:	30200073          	mret
	...

20102176 <metal_lc0_interrupt_vector_handler>:
metal_lc0_interrupt_vector_handler():
C:/VSD/FreedomStudio-3-1-1-x86_64-w64-mingw32/FreedomStudio-3-1-1/SiFive/freedom-e-sdk-v21.11.00.00/freedom-metal/src/drivers/riscv_cpu.c:214

/* The metal_lc0_interrupt_vector_handler() function can be redefined. */
void __attribute__((weak, interrupt)) metal_lc0_interrupt_vector_handler(void) {
20102176:	711d                	add	sp,sp,-96
20102178:	ce86                	sw	ra,92(sp)
2010217a:	cc96                	sw	t0,88(sp)
2010217c:	ca9a                	sw	t1,84(sp)
2010217e:	c89e                	sw	t2,80(sp)
20102180:	c6a2                	sw	s0,76(sp)
20102182:	c4aa                	sw	a0,72(sp)
20102184:	c2ae                	sw	a1,68(sp)
20102186:	c0b2                	sw	a2,64(sp)
20102188:	de36                	sw	a3,60(sp)
2010218a:	dc3a                	sw	a4,56(sp)
2010218c:	da3e                	sw	a5,52(sp)
2010218e:	d842                	sw	a6,48(sp)
20102190:	d646                	sw	a7,44(sp)
20102192:	d472                	sw	t3,40(sp)
20102194:	d276                	sw	t4,36(sp)
20102196:	d07a                	sw	t5,32(sp)
20102198:	ce7e                	sw	t6,28(sp)
2010219a:	1080                	add	s0,sp,96
C:/VSD/FreedomStudio-3-1-1-x86_64-w64-mingw32/FreedomStudio-3-1-1/SiFive/freedom-e-sdk-v21.11.00.00/freedom-metal/src/drivers/riscv_cpu.c:215
    __METAL_IRQ_VECTOR_HANDLER(METAL_INTERRUPT_ID_LC0);
2010219c:	3c11                	jal	20101bb0 <__metal_myhart_id>
2010219e:	872a                	mv	a4,a0
C:/VSD/FreedomStudio-3-1-1-x86_64-w64-mingw32/FreedomStudio-3-1-1/SiFive/freedom-e-sdk-v21.11.00.00/freedom-metal/src/drivers/riscv_cpu.c:215 (discriminator 1)
201021a0:	800017b7          	lui	a5,0x80001
201021a4:	070a                	sll	a4,a4,0x2
201021a6:	a1878793          	add	a5,a5,-1512 # 80000a18 <__metal_cpu_table>
201021aa:	97ba                	add	a5,a5,a4
201021ac:	439c                	lw	a5,0(a5)
201021ae:	faf42623          	sw	a5,-84(s0)
201021b2:	fac42783          	lw	a5,-84(s0)
201021b6:	c78d                	beqz	a5,201021e0 <metal_lc0_interrupt_vector_handler+0x6a>
201021b8:	fac42503          	lw	a0,-84(s0)
201021bc:	96fff0ef          	jal	20101b2a <__metal_driver_cpu_interrupt_controller>
201021c0:	faa42423          	sw	a0,-88(s0)
201021c4:	fa842783          	lw	a5,-88(s0)
201021c8:	2187a783          	lw	a5,536(a5)
201021cc:	faf42223          	sw	a5,-92(s0)
201021d0:	fa842783          	lw	a5,-88(s0)
201021d4:	2107a783          	lw	a5,528(a5)
201021d8:	fa442583          	lw	a1,-92(s0)
201021dc:	4541                	li	a0,16
201021de:	9782                	jalr	a5
C:/VSD/FreedomStudio-3-1-1-x86_64-w64-mingw32/FreedomStudio-3-1-1/SiFive/freedom-e-sdk-v21.11.00.00/freedom-metal/src/drivers/riscv_cpu.c:216
}
201021e0:	0001                	nop
201021e2:	40f6                	lw	ra,92(sp)
201021e4:	42e6                	lw	t0,88(sp)
201021e6:	4356                	lw	t1,84(sp)
201021e8:	43c6                	lw	t2,80(sp)
201021ea:	4436                	lw	s0,76(sp)
201021ec:	4526                	lw	a0,72(sp)
201021ee:	4596                	lw	a1,68(sp)
201021f0:	4606                	lw	a2,64(sp)
201021f2:	56f2                	lw	a3,60(sp)
201021f4:	5762                	lw	a4,56(sp)
201021f6:	57d2                	lw	a5,52(sp)
201021f8:	5842                	lw	a6,48(sp)
201021fa:	58b2                	lw	a7,44(sp)
201021fc:	5e22                	lw	t3,40(sp)
201021fe:	5e92                	lw	t4,36(sp)
20102200:	5f02                	lw	t5,32(sp)
20102202:	4ff2                	lw	t6,28(sp)
20102204:	6125                	add	sp,sp,96
20102206:	30200073          	mret

2010220a <metal_lc1_interrupt_vector_handler>:
metal_lc1_interrupt_vector_handler():
C:/VSD/FreedomStudio-3-1-1-x86_64-w64-mingw32/FreedomStudio-3-1-1/SiFive/freedom-e-sdk-v21.11.00.00/freedom-metal/src/drivers/riscv_cpu.c:219

/* The metal_lc1_interrupt_vector_handler() function can be redefined. */
void __attribute__((weak, interrupt)) metal_lc1_interrupt_vector_handler(void) {
2010220a:	711d                	add	sp,sp,-96
2010220c:	ce86                	sw	ra,92(sp)
2010220e:	cc96                	sw	t0,88(sp)
20102210:	ca9a                	sw	t1,84(sp)
20102212:	c89e                	sw	t2,80(sp)
20102214:	c6a2                	sw	s0,76(sp)
20102216:	c4aa                	sw	a0,72(sp)
20102218:	c2ae                	sw	a1,68(sp)
2010221a:	c0b2                	sw	a2,64(sp)
2010221c:	de36                	sw	a3,60(sp)
2010221e:	dc3a                	sw	a4,56(sp)
20102220:	da3e                	sw	a5,52(sp)
20102222:	d842                	sw	a6,48(sp)
20102224:	d646                	sw	a7,44(sp)
20102226:	d472                	sw	t3,40(sp)
20102228:	d276                	sw	t4,36(sp)
2010222a:	d07a                	sw	t5,32(sp)
2010222c:	ce7e                	sw	t6,28(sp)
2010222e:	1080                	add	s0,sp,96
C:/VSD/FreedomStudio-3-1-1-x86_64-w64-mingw32/FreedomStudio-3-1-1/SiFive/freedom-e-sdk-v21.11.00.00/freedom-metal/src/drivers/riscv_cpu.c:220
    __METAL_IRQ_VECTOR_HANDLER(METAL_INTERRUPT_ID_LC1);
20102230:	981ff0ef          	jal	20101bb0 <__metal_myhart_id>
20102234:	872a                	mv	a4,a0
C:/VSD/FreedomStudio-3-1-1-x86_64-w64-mingw32/FreedomStudio-3-1-1/SiFive/freedom-e-sdk-v21.11.00.00/freedom-metal/src/drivers/riscv_cpu.c:220 (discriminator 1)
20102236:	800017b7          	lui	a5,0x80001
2010223a:	070a                	sll	a4,a4,0x2
2010223c:	a1878793          	add	a5,a5,-1512 # 80000a18 <__metal_cpu_table>
20102240:	97ba                	add	a5,a5,a4
20102242:	439c                	lw	a5,0(a5)
20102244:	faf42623          	sw	a5,-84(s0)
20102248:	fac42783          	lw	a5,-84(s0)
2010224c:	c78d                	beqz	a5,20102276 <metal_lc1_interrupt_vector_handler+0x6c>
2010224e:	fac42503          	lw	a0,-84(s0)
20102252:	8d9ff0ef          	jal	20101b2a <__metal_driver_cpu_interrupt_controller>
20102256:	faa42423          	sw	a0,-88(s0)
2010225a:	fa842783          	lw	a5,-88(s0)
2010225e:	2307a783          	lw	a5,560(a5)
20102262:	faf42223          	sw	a5,-92(s0)
20102266:	fa842783          	lw	a5,-88(s0)
2010226a:	2287a783          	lw	a5,552(a5)
2010226e:	fa442583          	lw	a1,-92(s0)
20102272:	4545                	li	a0,17
20102274:	9782                	jalr	a5
C:/VSD/FreedomStudio-3-1-1-x86_64-w64-mingw32/FreedomStudio-3-1-1/SiFive/freedom-e-sdk-v21.11.00.00/freedom-metal/src/drivers/riscv_cpu.c:221
}
20102276:	0001                	nop
20102278:	40f6                	lw	ra,92(sp)
2010227a:	42e6                	lw	t0,88(sp)
2010227c:	4356                	lw	t1,84(sp)
2010227e:	43c6                	lw	t2,80(sp)
20102280:	4436                	lw	s0,76(sp)
20102282:	4526                	lw	a0,72(sp)
20102284:	4596                	lw	a1,68(sp)
20102286:	4606                	lw	a2,64(sp)
20102288:	56f2                	lw	a3,60(sp)
2010228a:	5762                	lw	a4,56(sp)
2010228c:	57d2                	lw	a5,52(sp)
2010228e:	5842                	lw	a6,48(sp)
20102290:	58b2                	lw	a7,44(sp)
20102292:	5e22                	lw	t3,40(sp)
20102294:	5e92                	lw	t4,36(sp)
20102296:	5f02                	lw	t5,32(sp)
20102298:	4ff2                	lw	t6,28(sp)
2010229a:	6125                	add	sp,sp,96
2010229c:	30200073          	mret

201022a0 <metal_lc2_interrupt_vector_handler>:
metal_lc2_interrupt_vector_handler():
C:/VSD/FreedomStudio-3-1-1-x86_64-w64-mingw32/FreedomStudio-3-1-1/SiFive/freedom-e-sdk-v21.11.00.00/freedom-metal/src/drivers/riscv_cpu.c:224

/* The metal_lc2_interrupt_vector_handler() function can be redefined. */
void __attribute__((weak, interrupt)) metal_lc2_interrupt_vector_handler(void) {
201022a0:	711d                	add	sp,sp,-96
201022a2:	ce86                	sw	ra,92(sp)
201022a4:	cc96                	sw	t0,88(sp)
201022a6:	ca9a                	sw	t1,84(sp)
201022a8:	c89e                	sw	t2,80(sp)
201022aa:	c6a2                	sw	s0,76(sp)
201022ac:	c4aa                	sw	a0,72(sp)
201022ae:	c2ae                	sw	a1,68(sp)
201022b0:	c0b2                	sw	a2,64(sp)
201022b2:	de36                	sw	a3,60(sp)
201022b4:	dc3a                	sw	a4,56(sp)
201022b6:	da3e                	sw	a5,52(sp)
201022b8:	d842                	sw	a6,48(sp)
201022ba:	d646                	sw	a7,44(sp)
201022bc:	d472                	sw	t3,40(sp)
201022be:	d276                	sw	t4,36(sp)
201022c0:	d07a                	sw	t5,32(sp)
201022c2:	ce7e                	sw	t6,28(sp)
201022c4:	1080                	add	s0,sp,96
C:/VSD/FreedomStudio-3-1-1-x86_64-w64-mingw32/FreedomStudio-3-1-1/SiFive/freedom-e-sdk-v21.11.00.00/freedom-metal/src/drivers/riscv_cpu.c:225
    __METAL_IRQ_VECTOR_HANDLER(METAL_INTERRUPT_ID_LC2);
201022c6:	8ebff0ef          	jal	20101bb0 <__metal_myhart_id>
201022ca:	872a                	mv	a4,a0
C:/VSD/FreedomStudio-3-1-1-x86_64-w64-mingw32/FreedomStudio-3-1-1/SiFive/freedom-e-sdk-v21.11.00.00/freedom-metal/src/drivers/riscv_cpu.c:225 (discriminator 1)
201022cc:	800017b7          	lui	a5,0x80001
201022d0:	070a                	sll	a4,a4,0x2
201022d2:	a1878793          	add	a5,a5,-1512 # 80000a18 <__metal_cpu_table>
201022d6:	97ba                	add	a5,a5,a4
201022d8:	439c                	lw	a5,0(a5)
201022da:	faf42623          	sw	a5,-84(s0)
201022de:	fac42783          	lw	a5,-84(s0)
201022e2:	c78d                	beqz	a5,2010230c <metal_lc2_interrupt_vector_handler+0x6c>
201022e4:	fac42503          	lw	a0,-84(s0)
201022e8:	843ff0ef          	jal	20101b2a <__metal_driver_cpu_interrupt_controller>
201022ec:	faa42423          	sw	a0,-88(s0)
201022f0:	fa842783          	lw	a5,-88(s0)
201022f4:	2487a783          	lw	a5,584(a5)
201022f8:	faf42223          	sw	a5,-92(s0)
201022fc:	fa842783          	lw	a5,-88(s0)
20102300:	2407a783          	lw	a5,576(a5)
20102304:	fa442583          	lw	a1,-92(s0)
20102308:	4549                	li	a0,18
2010230a:	9782                	jalr	a5
C:/VSD/FreedomStudio-3-1-1-x86_64-w64-mingw32/FreedomStudio-3-1-1/SiFive/freedom-e-sdk-v21.11.00.00/freedom-metal/src/drivers/riscv_cpu.c:226
}
2010230c:	0001                	nop
2010230e:	40f6                	lw	ra,92(sp)
20102310:	42e6                	lw	t0,88(sp)
20102312:	4356                	lw	t1,84(sp)
20102314:	43c6                	lw	t2,80(sp)
20102316:	4436                	lw	s0,76(sp)
20102318:	4526                	lw	a0,72(sp)
2010231a:	4596                	lw	a1,68(sp)
2010231c:	4606                	lw	a2,64(sp)
2010231e:	56f2                	lw	a3,60(sp)
20102320:	5762                	lw	a4,56(sp)
20102322:	57d2                	lw	a5,52(sp)
20102324:	5842                	lw	a6,48(sp)
20102326:	58b2                	lw	a7,44(sp)
20102328:	5e22                	lw	t3,40(sp)
2010232a:	5e92                	lw	t4,36(sp)
2010232c:	5f02                	lw	t5,32(sp)
2010232e:	4ff2                	lw	t6,28(sp)
20102330:	6125                	add	sp,sp,96
20102332:	30200073          	mret

20102336 <metal_lc3_interrupt_vector_handler>:
metal_lc3_interrupt_vector_handler():
C:/VSD/FreedomStudio-3-1-1-x86_64-w64-mingw32/FreedomStudio-3-1-1/SiFive/freedom-e-sdk-v21.11.00.00/freedom-metal/src/drivers/riscv_cpu.c:229

/* The metal_lc3_interrupt_vector_handler() function can be redefined. */
void __attribute__((weak, interrupt)) metal_lc3_interrupt_vector_handler(void) {
20102336:	711d                	add	sp,sp,-96
20102338:	ce86                	sw	ra,92(sp)
2010233a:	cc96                	sw	t0,88(sp)
2010233c:	ca9a                	sw	t1,84(sp)
2010233e:	c89e                	sw	t2,80(sp)
20102340:	c6a2                	sw	s0,76(sp)
20102342:	c4aa                	sw	a0,72(sp)
20102344:	c2ae                	sw	a1,68(sp)
20102346:	c0b2                	sw	a2,64(sp)
20102348:	de36                	sw	a3,60(sp)
2010234a:	dc3a                	sw	a4,56(sp)
2010234c:	da3e                	sw	a5,52(sp)
2010234e:	d842                	sw	a6,48(sp)
20102350:	d646                	sw	a7,44(sp)
20102352:	d472                	sw	t3,40(sp)
20102354:	d276                	sw	t4,36(sp)
20102356:	d07a                	sw	t5,32(sp)
20102358:	ce7e                	sw	t6,28(sp)
2010235a:	1080                	add	s0,sp,96
C:/VSD/FreedomStudio-3-1-1-x86_64-w64-mingw32/FreedomStudio-3-1-1/SiFive/freedom-e-sdk-v21.11.00.00/freedom-metal/src/drivers/riscv_cpu.c:230
    __METAL_IRQ_VECTOR_HANDLER(METAL_INTERRUPT_ID_LC3);
2010235c:	855ff0ef          	jal	20101bb0 <__metal_myhart_id>
20102360:	872a                	mv	a4,a0
C:/VSD/FreedomStudio-3-1-1-x86_64-w64-mingw32/FreedomStudio-3-1-1/SiFive/freedom-e-sdk-v21.11.00.00/freedom-metal/src/drivers/riscv_cpu.c:230 (discriminator 1)
20102362:	800017b7          	lui	a5,0x80001
20102366:	070a                	sll	a4,a4,0x2
20102368:	a1878793          	add	a5,a5,-1512 # 80000a18 <__metal_cpu_table>
2010236c:	97ba                	add	a5,a5,a4
2010236e:	439c                	lw	a5,0(a5)
20102370:	faf42623          	sw	a5,-84(s0)
20102374:	fac42783          	lw	a5,-84(s0)
20102378:	c78d                	beqz	a5,201023a2 <metal_lc3_interrupt_vector_handler+0x6c>
2010237a:	fac42503          	lw	a0,-84(s0)
2010237e:	facff0ef          	jal	20101b2a <__metal_driver_cpu_interrupt_controller>
20102382:	faa42423          	sw	a0,-88(s0)
20102386:	fa842783          	lw	a5,-88(s0)
2010238a:	2607a783          	lw	a5,608(a5)
2010238e:	faf42223          	sw	a5,-92(s0)
20102392:	fa842783          	lw	a5,-88(s0)
20102396:	2587a783          	lw	a5,600(a5)
2010239a:	fa442583          	lw	a1,-92(s0)
2010239e:	454d                	li	a0,19
201023a0:	9782                	jalr	a5
C:/VSD/FreedomStudio-3-1-1-x86_64-w64-mingw32/FreedomStudio-3-1-1/SiFive/freedom-e-sdk-v21.11.00.00/freedom-metal/src/drivers/riscv_cpu.c:231
}
201023a2:	0001                	nop
201023a4:	40f6                	lw	ra,92(sp)
201023a6:	42e6                	lw	t0,88(sp)
201023a8:	4356                	lw	t1,84(sp)
201023aa:	43c6                	lw	t2,80(sp)
201023ac:	4436                	lw	s0,76(sp)
201023ae:	4526                	lw	a0,72(sp)
201023b0:	4596                	lw	a1,68(sp)
201023b2:	4606                	lw	a2,64(sp)
201023b4:	56f2                	lw	a3,60(sp)
201023b6:	5762                	lw	a4,56(sp)
201023b8:	57d2                	lw	a5,52(sp)
201023ba:	5842                	lw	a6,48(sp)
201023bc:	58b2                	lw	a7,44(sp)
201023be:	5e22                	lw	t3,40(sp)
201023c0:	5e92                	lw	t4,36(sp)
201023c2:	5f02                	lw	t5,32(sp)
201023c4:	4ff2                	lw	t6,28(sp)
201023c6:	6125                	add	sp,sp,96
201023c8:	30200073          	mret

201023cc <metal_lc4_interrupt_vector_handler>:
metal_lc4_interrupt_vector_handler():
C:/VSD/FreedomStudio-3-1-1-x86_64-w64-mingw32/FreedomStudio-3-1-1/SiFive/freedom-e-sdk-v21.11.00.00/freedom-metal/src/drivers/riscv_cpu.c:234

/* The metal_lc4_interrupt_vector_handler() function can be redefined. */
void __attribute__((weak, interrupt)) metal_lc4_interrupt_vector_handler(void) {
201023cc:	711d                	add	sp,sp,-96
201023ce:	ce86                	sw	ra,92(sp)
201023d0:	cc96                	sw	t0,88(sp)
201023d2:	ca9a                	sw	t1,84(sp)
201023d4:	c89e                	sw	t2,80(sp)
201023d6:	c6a2                	sw	s0,76(sp)
201023d8:	c4aa                	sw	a0,72(sp)
201023da:	c2ae                	sw	a1,68(sp)
201023dc:	c0b2                	sw	a2,64(sp)
201023de:	de36                	sw	a3,60(sp)
201023e0:	dc3a                	sw	a4,56(sp)
201023e2:	da3e                	sw	a5,52(sp)
201023e4:	d842                	sw	a6,48(sp)
201023e6:	d646                	sw	a7,44(sp)
201023e8:	d472                	sw	t3,40(sp)
201023ea:	d276                	sw	t4,36(sp)
201023ec:	d07a                	sw	t5,32(sp)
201023ee:	ce7e                	sw	t6,28(sp)
201023f0:	1080                	add	s0,sp,96
C:/VSD/FreedomStudio-3-1-1-x86_64-w64-mingw32/FreedomStudio-3-1-1/SiFive/freedom-e-sdk-v21.11.00.00/freedom-metal/src/drivers/riscv_cpu.c:235
    __METAL_IRQ_VECTOR_HANDLER(METAL_INTERRUPT_ID_LC4);
201023f2:	fbeff0ef          	jal	20101bb0 <__metal_myhart_id>
201023f6:	872a                	mv	a4,a0
C:/VSD/FreedomStudio-3-1-1-x86_64-w64-mingw32/FreedomStudio-3-1-1/SiFive/freedom-e-sdk-v21.11.00.00/freedom-metal/src/drivers/riscv_cpu.c:235 (discriminator 1)
201023f8:	800017b7          	lui	a5,0x80001
201023fc:	070a                	sll	a4,a4,0x2
201023fe:	a1878793          	add	a5,a5,-1512 # 80000a18 <__metal_cpu_table>
20102402:	97ba                	add	a5,a5,a4
20102404:	439c                	lw	a5,0(a5)
20102406:	faf42623          	sw	a5,-84(s0)
2010240a:	fac42783          	lw	a5,-84(s0)
2010240e:	c78d                	beqz	a5,20102438 <metal_lc4_interrupt_vector_handler+0x6c>
20102410:	fac42503          	lw	a0,-84(s0)
20102414:	f16ff0ef          	jal	20101b2a <__metal_driver_cpu_interrupt_controller>
20102418:	faa42423          	sw	a0,-88(s0)
2010241c:	fa842783          	lw	a5,-88(s0)
20102420:	2787a783          	lw	a5,632(a5)
20102424:	faf42223          	sw	a5,-92(s0)
20102428:	fa842783          	lw	a5,-88(s0)
2010242c:	2707a783          	lw	a5,624(a5)
20102430:	fa442583          	lw	a1,-92(s0)
20102434:	4551                	li	a0,20
20102436:	9782                	jalr	a5
C:/VSD/FreedomStudio-3-1-1-x86_64-w64-mingw32/FreedomStudio-3-1-1/SiFive/freedom-e-sdk-v21.11.00.00/freedom-metal/src/drivers/riscv_cpu.c:236
}
20102438:	0001                	nop
2010243a:	40f6                	lw	ra,92(sp)
2010243c:	42e6                	lw	t0,88(sp)
2010243e:	4356                	lw	t1,84(sp)
20102440:	43c6                	lw	t2,80(sp)
20102442:	4436                	lw	s0,76(sp)
20102444:	4526                	lw	a0,72(sp)
20102446:	4596                	lw	a1,68(sp)
20102448:	4606                	lw	a2,64(sp)
2010244a:	56f2                	lw	a3,60(sp)
2010244c:	5762                	lw	a4,56(sp)
2010244e:	57d2                	lw	a5,52(sp)
20102450:	5842                	lw	a6,48(sp)
20102452:	58b2                	lw	a7,44(sp)
20102454:	5e22                	lw	t3,40(sp)
20102456:	5e92                	lw	t4,36(sp)
20102458:	5f02                	lw	t5,32(sp)
2010245a:	4ff2                	lw	t6,28(sp)
2010245c:	6125                	add	sp,sp,96
2010245e:	30200073          	mret

20102462 <metal_lc5_interrupt_vector_handler>:
metal_lc5_interrupt_vector_handler():
C:/VSD/FreedomStudio-3-1-1-x86_64-w64-mingw32/FreedomStudio-3-1-1/SiFive/freedom-e-sdk-v21.11.00.00/freedom-metal/src/drivers/riscv_cpu.c:239

/* The metal_lc5_interrupt_vector_handler() function can be redefined. */
void __attribute__((weak, interrupt)) metal_lc5_interrupt_vector_handler(void) {
20102462:	711d                	add	sp,sp,-96
20102464:	ce86                	sw	ra,92(sp)
20102466:	cc96                	sw	t0,88(sp)
20102468:	ca9a                	sw	t1,84(sp)
2010246a:	c89e                	sw	t2,80(sp)
2010246c:	c6a2                	sw	s0,76(sp)
2010246e:	c4aa                	sw	a0,72(sp)
20102470:	c2ae                	sw	a1,68(sp)
20102472:	c0b2                	sw	a2,64(sp)
20102474:	de36                	sw	a3,60(sp)
20102476:	dc3a                	sw	a4,56(sp)
20102478:	da3e                	sw	a5,52(sp)
2010247a:	d842                	sw	a6,48(sp)
2010247c:	d646                	sw	a7,44(sp)
2010247e:	d472                	sw	t3,40(sp)
20102480:	d276                	sw	t4,36(sp)
20102482:	d07a                	sw	t5,32(sp)
20102484:	ce7e                	sw	t6,28(sp)
20102486:	1080                	add	s0,sp,96
C:/VSD/FreedomStudio-3-1-1-x86_64-w64-mingw32/FreedomStudio-3-1-1/SiFive/freedom-e-sdk-v21.11.00.00/freedom-metal/src/drivers/riscv_cpu.c:240
    __METAL_IRQ_VECTOR_HANDLER(METAL_INTERRUPT_ID_LC5);
20102488:	f28ff0ef          	jal	20101bb0 <__metal_myhart_id>
2010248c:	872a                	mv	a4,a0
C:/VSD/FreedomStudio-3-1-1-x86_64-w64-mingw32/FreedomStudio-3-1-1/SiFive/freedom-e-sdk-v21.11.00.00/freedom-metal/src/drivers/riscv_cpu.c:240 (discriminator 1)
2010248e:	800017b7          	lui	a5,0x80001
20102492:	070a                	sll	a4,a4,0x2
20102494:	a1878793          	add	a5,a5,-1512 # 80000a18 <__metal_cpu_table>
20102498:	97ba                	add	a5,a5,a4
2010249a:	439c                	lw	a5,0(a5)
2010249c:	faf42623          	sw	a5,-84(s0)
201024a0:	fac42783          	lw	a5,-84(s0)
201024a4:	c78d                	beqz	a5,201024ce <metal_lc5_interrupt_vector_handler+0x6c>
201024a6:	fac42503          	lw	a0,-84(s0)
201024aa:	e80ff0ef          	jal	20101b2a <__metal_driver_cpu_interrupt_controller>
201024ae:	faa42423          	sw	a0,-88(s0)
201024b2:	fa842783          	lw	a5,-88(s0)
201024b6:	2907a783          	lw	a5,656(a5)
201024ba:	faf42223          	sw	a5,-92(s0)
201024be:	fa842783          	lw	a5,-88(s0)
201024c2:	2887a783          	lw	a5,648(a5)
201024c6:	fa442583          	lw	a1,-92(s0)
201024ca:	4555                	li	a0,21
201024cc:	9782                	jalr	a5
C:/VSD/FreedomStudio-3-1-1-x86_64-w64-mingw32/FreedomStudio-3-1-1/SiFive/freedom-e-sdk-v21.11.00.00/freedom-metal/src/drivers/riscv_cpu.c:241
}
201024ce:	0001                	nop
201024d0:	40f6                	lw	ra,92(sp)
201024d2:	42e6                	lw	t0,88(sp)
201024d4:	4356                	lw	t1,84(sp)
201024d6:	43c6                	lw	t2,80(sp)
201024d8:	4436                	lw	s0,76(sp)
201024da:	4526                	lw	a0,72(sp)
201024dc:	4596                	lw	a1,68(sp)
201024de:	4606                	lw	a2,64(sp)
201024e0:	56f2                	lw	a3,60(sp)
201024e2:	5762                	lw	a4,56(sp)
201024e4:	57d2                	lw	a5,52(sp)
201024e6:	5842                	lw	a6,48(sp)
201024e8:	58b2                	lw	a7,44(sp)
201024ea:	5e22                	lw	t3,40(sp)
201024ec:	5e92                	lw	t4,36(sp)
201024ee:	5f02                	lw	t5,32(sp)
201024f0:	4ff2                	lw	t6,28(sp)
201024f2:	6125                	add	sp,sp,96
201024f4:	30200073          	mret

201024f8 <metal_lc6_interrupt_vector_handler>:
metal_lc6_interrupt_vector_handler():
C:/VSD/FreedomStudio-3-1-1-x86_64-w64-mingw32/FreedomStudio-3-1-1/SiFive/freedom-e-sdk-v21.11.00.00/freedom-metal/src/drivers/riscv_cpu.c:244

/* The metal_lc6_interrupt_vector_handler() function can be redefined. */
void __attribute__((weak, interrupt)) metal_lc6_interrupt_vector_handler(void) {
201024f8:	711d                	add	sp,sp,-96
201024fa:	ce86                	sw	ra,92(sp)
201024fc:	cc96                	sw	t0,88(sp)
201024fe:	ca9a                	sw	t1,84(sp)
20102500:	c89e                	sw	t2,80(sp)
20102502:	c6a2                	sw	s0,76(sp)
20102504:	c4aa                	sw	a0,72(sp)
20102506:	c2ae                	sw	a1,68(sp)
20102508:	c0b2                	sw	a2,64(sp)
2010250a:	de36                	sw	a3,60(sp)
2010250c:	dc3a                	sw	a4,56(sp)
2010250e:	da3e                	sw	a5,52(sp)
20102510:	d842                	sw	a6,48(sp)
20102512:	d646                	sw	a7,44(sp)
20102514:	d472                	sw	t3,40(sp)
20102516:	d276                	sw	t4,36(sp)
20102518:	d07a                	sw	t5,32(sp)
2010251a:	ce7e                	sw	t6,28(sp)
2010251c:	1080                	add	s0,sp,96
C:/VSD/FreedomStudio-3-1-1-x86_64-w64-mingw32/FreedomStudio-3-1-1/SiFive/freedom-e-sdk-v21.11.00.00/freedom-metal/src/drivers/riscv_cpu.c:245
    __METAL_IRQ_VECTOR_HANDLER(METAL_INTERRUPT_ID_LC6);
2010251e:	e92ff0ef          	jal	20101bb0 <__metal_myhart_id>
20102522:	872a                	mv	a4,a0
C:/VSD/FreedomStudio-3-1-1-x86_64-w64-mingw32/FreedomStudio-3-1-1/SiFive/freedom-e-sdk-v21.11.00.00/freedom-metal/src/drivers/riscv_cpu.c:245 (discriminator 1)
20102524:	800017b7          	lui	a5,0x80001
20102528:	070a                	sll	a4,a4,0x2
2010252a:	a1878793          	add	a5,a5,-1512 # 80000a18 <__metal_cpu_table>
2010252e:	97ba                	add	a5,a5,a4
20102530:	439c                	lw	a5,0(a5)
20102532:	faf42623          	sw	a5,-84(s0)
20102536:	fac42783          	lw	a5,-84(s0)
2010253a:	c78d                	beqz	a5,20102564 <metal_lc6_interrupt_vector_handler+0x6c>
2010253c:	fac42503          	lw	a0,-84(s0)
20102540:	deaff0ef          	jal	20101b2a <__metal_driver_cpu_interrupt_controller>
20102544:	faa42423          	sw	a0,-88(s0)
20102548:	fa842783          	lw	a5,-88(s0)
2010254c:	2a87a783          	lw	a5,680(a5)
20102550:	faf42223          	sw	a5,-92(s0)
20102554:	fa842783          	lw	a5,-88(s0)
20102558:	2a07a783          	lw	a5,672(a5)
2010255c:	fa442583          	lw	a1,-92(s0)
20102560:	4559                	li	a0,22
20102562:	9782                	jalr	a5
C:/VSD/FreedomStudio-3-1-1-x86_64-w64-mingw32/FreedomStudio-3-1-1/SiFive/freedom-e-sdk-v21.11.00.00/freedom-metal/src/drivers/riscv_cpu.c:246
}
20102564:	0001                	nop
20102566:	40f6                	lw	ra,92(sp)
20102568:	42e6                	lw	t0,88(sp)
2010256a:	4356                	lw	t1,84(sp)
2010256c:	43c6                	lw	t2,80(sp)
2010256e:	4436                	lw	s0,76(sp)
20102570:	4526                	lw	a0,72(sp)
20102572:	4596                	lw	a1,68(sp)
20102574:	4606                	lw	a2,64(sp)
20102576:	56f2                	lw	a3,60(sp)
20102578:	5762                	lw	a4,56(sp)
2010257a:	57d2                	lw	a5,52(sp)
2010257c:	5842                	lw	a6,48(sp)
2010257e:	58b2                	lw	a7,44(sp)
20102580:	5e22                	lw	t3,40(sp)
20102582:	5e92                	lw	t4,36(sp)
20102584:	5f02                	lw	t5,32(sp)
20102586:	4ff2                	lw	t6,28(sp)
20102588:	6125                	add	sp,sp,96
2010258a:	30200073          	mret

2010258e <metal_lc7_interrupt_vector_handler>:
metal_lc7_interrupt_vector_handler():
C:/VSD/FreedomStudio-3-1-1-x86_64-w64-mingw32/FreedomStudio-3-1-1/SiFive/freedom-e-sdk-v21.11.00.00/freedom-metal/src/drivers/riscv_cpu.c:249

/* The metal_lc7_interrupt_vector_handler() function can be redefined. */
void __attribute__((weak, interrupt)) metal_lc7_interrupt_vector_handler(void) {
2010258e:	711d                	add	sp,sp,-96
20102590:	ce86                	sw	ra,92(sp)
20102592:	cc96                	sw	t0,88(sp)
20102594:	ca9a                	sw	t1,84(sp)
20102596:	c89e                	sw	t2,80(sp)
20102598:	c6a2                	sw	s0,76(sp)
2010259a:	c4aa                	sw	a0,72(sp)
2010259c:	c2ae                	sw	a1,68(sp)
2010259e:	c0b2                	sw	a2,64(sp)
201025a0:	de36                	sw	a3,60(sp)
201025a2:	dc3a                	sw	a4,56(sp)
201025a4:	da3e                	sw	a5,52(sp)
201025a6:	d842                	sw	a6,48(sp)
201025a8:	d646                	sw	a7,44(sp)
201025aa:	d472                	sw	t3,40(sp)
201025ac:	d276                	sw	t4,36(sp)
201025ae:	d07a                	sw	t5,32(sp)
201025b0:	ce7e                	sw	t6,28(sp)
201025b2:	1080                	add	s0,sp,96
C:/VSD/FreedomStudio-3-1-1-x86_64-w64-mingw32/FreedomStudio-3-1-1/SiFive/freedom-e-sdk-v21.11.00.00/freedom-metal/src/drivers/riscv_cpu.c:250
    __METAL_IRQ_VECTOR_HANDLER(METAL_INTERRUPT_ID_LC7);
201025b4:	dfcff0ef          	jal	20101bb0 <__metal_myhart_id>
201025b8:	872a                	mv	a4,a0
C:/VSD/FreedomStudio-3-1-1-x86_64-w64-mingw32/FreedomStudio-3-1-1/SiFive/freedom-e-sdk-v21.11.00.00/freedom-metal/src/drivers/riscv_cpu.c:250 (discriminator 1)
201025ba:	800017b7          	lui	a5,0x80001
201025be:	070a                	sll	a4,a4,0x2
201025c0:	a1878793          	add	a5,a5,-1512 # 80000a18 <__metal_cpu_table>
201025c4:	97ba                	add	a5,a5,a4
201025c6:	439c                	lw	a5,0(a5)
201025c8:	faf42623          	sw	a5,-84(s0)
201025cc:	fac42783          	lw	a5,-84(s0)
201025d0:	c78d                	beqz	a5,201025fa <metal_lc7_interrupt_vector_handler+0x6c>
201025d2:	fac42503          	lw	a0,-84(s0)
201025d6:	d54ff0ef          	jal	20101b2a <__metal_driver_cpu_interrupt_controller>
201025da:	faa42423          	sw	a0,-88(s0)
201025de:	fa842783          	lw	a5,-88(s0)
201025e2:	2c07a783          	lw	a5,704(a5)
201025e6:	faf42223          	sw	a5,-92(s0)
201025ea:	fa842783          	lw	a5,-88(s0)
201025ee:	2b87a783          	lw	a5,696(a5)
201025f2:	fa442583          	lw	a1,-92(s0)
201025f6:	455d                	li	a0,23
201025f8:	9782                	jalr	a5
C:/VSD/FreedomStudio-3-1-1-x86_64-w64-mingw32/FreedomStudio-3-1-1/SiFive/freedom-e-sdk-v21.11.00.00/freedom-metal/src/drivers/riscv_cpu.c:251
}
201025fa:	0001                	nop
201025fc:	40f6                	lw	ra,92(sp)
201025fe:	42e6                	lw	t0,88(sp)
20102600:	4356                	lw	t1,84(sp)
20102602:	43c6                	lw	t2,80(sp)
20102604:	4436                	lw	s0,76(sp)
20102606:	4526                	lw	a0,72(sp)
20102608:	4596                	lw	a1,68(sp)
2010260a:	4606                	lw	a2,64(sp)
2010260c:	56f2                	lw	a3,60(sp)
2010260e:	5762                	lw	a4,56(sp)
20102610:	57d2                	lw	a5,52(sp)
20102612:	5842                	lw	a6,48(sp)
20102614:	58b2                	lw	a7,44(sp)
20102616:	5e22                	lw	t3,40(sp)
20102618:	5e92                	lw	t4,36(sp)
2010261a:	5f02                	lw	t5,32(sp)
2010261c:	4ff2                	lw	t6,28(sp)
2010261e:	6125                	add	sp,sp,96
20102620:	30200073          	mret

20102624 <metal_lc8_interrupt_vector_handler>:
metal_lc8_interrupt_vector_handler():
C:/VSD/FreedomStudio-3-1-1-x86_64-w64-mingw32/FreedomStudio-3-1-1/SiFive/freedom-e-sdk-v21.11.00.00/freedom-metal/src/drivers/riscv_cpu.c:254

/* The metal_lc8_interrupt_vector_handler() function can be redefined. */
void __attribute__((weak, interrupt)) metal_lc8_interrupt_vector_handler(void) {
20102624:	711d                	add	sp,sp,-96
20102626:	ce86                	sw	ra,92(sp)
20102628:	cc96                	sw	t0,88(sp)
2010262a:	ca9a                	sw	t1,84(sp)
2010262c:	c89e                	sw	t2,80(sp)
2010262e:	c6a2                	sw	s0,76(sp)
20102630:	c4aa                	sw	a0,72(sp)
20102632:	c2ae                	sw	a1,68(sp)
20102634:	c0b2                	sw	a2,64(sp)
20102636:	de36                	sw	a3,60(sp)
20102638:	dc3a                	sw	a4,56(sp)
2010263a:	da3e                	sw	a5,52(sp)
2010263c:	d842                	sw	a6,48(sp)
2010263e:	d646                	sw	a7,44(sp)
20102640:	d472                	sw	t3,40(sp)
20102642:	d276                	sw	t4,36(sp)
20102644:	d07a                	sw	t5,32(sp)
20102646:	ce7e                	sw	t6,28(sp)
20102648:	1080                	add	s0,sp,96
C:/VSD/FreedomStudio-3-1-1-x86_64-w64-mingw32/FreedomStudio-3-1-1/SiFive/freedom-e-sdk-v21.11.00.00/freedom-metal/src/drivers/riscv_cpu.c:255
    __METAL_IRQ_VECTOR_HANDLER(METAL_INTERRUPT_ID_LC8);
2010264a:	d66ff0ef          	jal	20101bb0 <__metal_myhart_id>
2010264e:	872a                	mv	a4,a0
C:/VSD/FreedomStudio-3-1-1-x86_64-w64-mingw32/FreedomStudio-3-1-1/SiFive/freedom-e-sdk-v21.11.00.00/freedom-metal/src/drivers/riscv_cpu.c:255 (discriminator 1)
20102650:	800017b7          	lui	a5,0x80001
20102654:	070a                	sll	a4,a4,0x2
20102656:	a1878793          	add	a5,a5,-1512 # 80000a18 <__metal_cpu_table>
2010265a:	97ba                	add	a5,a5,a4
2010265c:	439c                	lw	a5,0(a5)
2010265e:	faf42623          	sw	a5,-84(s0)
20102662:	fac42783          	lw	a5,-84(s0)
20102666:	c78d                	beqz	a5,20102690 <metal_lc8_interrupt_vector_handler+0x6c>
20102668:	fac42503          	lw	a0,-84(s0)
2010266c:	cbeff0ef          	jal	20101b2a <__metal_driver_cpu_interrupt_controller>
20102670:	faa42423          	sw	a0,-88(s0)
20102674:	fa842783          	lw	a5,-88(s0)
20102678:	2d87a783          	lw	a5,728(a5)
2010267c:	faf42223          	sw	a5,-92(s0)
20102680:	fa842783          	lw	a5,-88(s0)
20102684:	2d07a783          	lw	a5,720(a5)
20102688:	fa442583          	lw	a1,-92(s0)
2010268c:	4561                	li	a0,24
2010268e:	9782                	jalr	a5
C:/VSD/FreedomStudio-3-1-1-x86_64-w64-mingw32/FreedomStudio-3-1-1/SiFive/freedom-e-sdk-v21.11.00.00/freedom-metal/src/drivers/riscv_cpu.c:256
}
20102690:	0001                	nop
20102692:	40f6                	lw	ra,92(sp)
20102694:	42e6                	lw	t0,88(sp)
20102696:	4356                	lw	t1,84(sp)
20102698:	43c6                	lw	t2,80(sp)
2010269a:	4436                	lw	s0,76(sp)
2010269c:	4526                	lw	a0,72(sp)
2010269e:	4596                	lw	a1,68(sp)
201026a0:	4606                	lw	a2,64(sp)
201026a2:	56f2                	lw	a3,60(sp)
201026a4:	5762                	lw	a4,56(sp)
201026a6:	57d2                	lw	a5,52(sp)
201026a8:	5842                	lw	a6,48(sp)
201026aa:	58b2                	lw	a7,44(sp)
201026ac:	5e22                	lw	t3,40(sp)
201026ae:	5e92                	lw	t4,36(sp)
201026b0:	5f02                	lw	t5,32(sp)
201026b2:	4ff2                	lw	t6,28(sp)
201026b4:	6125                	add	sp,sp,96
201026b6:	30200073          	mret

201026ba <metal_lc9_interrupt_vector_handler>:
metal_lc9_interrupt_vector_handler():
C:/VSD/FreedomStudio-3-1-1-x86_64-w64-mingw32/FreedomStudio-3-1-1/SiFive/freedom-e-sdk-v21.11.00.00/freedom-metal/src/drivers/riscv_cpu.c:259

/* The metal_lc9_interrupt_vector_handler() function can be redefined. */
void __attribute__((weak, interrupt)) metal_lc9_interrupt_vector_handler(void) {
201026ba:	711d                	add	sp,sp,-96
201026bc:	ce86                	sw	ra,92(sp)
201026be:	cc96                	sw	t0,88(sp)
201026c0:	ca9a                	sw	t1,84(sp)
201026c2:	c89e                	sw	t2,80(sp)
201026c4:	c6a2                	sw	s0,76(sp)
201026c6:	c4aa                	sw	a0,72(sp)
201026c8:	c2ae                	sw	a1,68(sp)
201026ca:	c0b2                	sw	a2,64(sp)
201026cc:	de36                	sw	a3,60(sp)
201026ce:	dc3a                	sw	a4,56(sp)
201026d0:	da3e                	sw	a5,52(sp)
201026d2:	d842                	sw	a6,48(sp)
201026d4:	d646                	sw	a7,44(sp)
201026d6:	d472                	sw	t3,40(sp)
201026d8:	d276                	sw	t4,36(sp)
201026da:	d07a                	sw	t5,32(sp)
201026dc:	ce7e                	sw	t6,28(sp)
201026de:	1080                	add	s0,sp,96
C:/VSD/FreedomStudio-3-1-1-x86_64-w64-mingw32/FreedomStudio-3-1-1/SiFive/freedom-e-sdk-v21.11.00.00/freedom-metal/src/drivers/riscv_cpu.c:260
    __METAL_IRQ_VECTOR_HANDLER(METAL_INTERRUPT_ID_LC9);
201026e0:	cd0ff0ef          	jal	20101bb0 <__metal_myhart_id>
201026e4:	872a                	mv	a4,a0
C:/VSD/FreedomStudio-3-1-1-x86_64-w64-mingw32/FreedomStudio-3-1-1/SiFive/freedom-e-sdk-v21.11.00.00/freedom-metal/src/drivers/riscv_cpu.c:260 (discriminator 1)
201026e6:	800017b7          	lui	a5,0x80001
201026ea:	070a                	sll	a4,a4,0x2
201026ec:	a1878793          	add	a5,a5,-1512 # 80000a18 <__metal_cpu_table>
201026f0:	97ba                	add	a5,a5,a4
201026f2:	439c                	lw	a5,0(a5)
201026f4:	faf42623          	sw	a5,-84(s0)
201026f8:	fac42783          	lw	a5,-84(s0)
201026fc:	c78d                	beqz	a5,20102726 <metal_lc9_interrupt_vector_handler+0x6c>
201026fe:	fac42503          	lw	a0,-84(s0)
20102702:	c28ff0ef          	jal	20101b2a <__metal_driver_cpu_interrupt_controller>
20102706:	faa42423          	sw	a0,-88(s0)
2010270a:	fa842783          	lw	a5,-88(s0)
2010270e:	2f07a783          	lw	a5,752(a5)
20102712:	faf42223          	sw	a5,-92(s0)
20102716:	fa842783          	lw	a5,-88(s0)
2010271a:	2e87a783          	lw	a5,744(a5)
2010271e:	fa442583          	lw	a1,-92(s0)
20102722:	4565                	li	a0,25
20102724:	9782                	jalr	a5
C:/VSD/FreedomStudio-3-1-1-x86_64-w64-mingw32/FreedomStudio-3-1-1/SiFive/freedom-e-sdk-v21.11.00.00/freedom-metal/src/drivers/riscv_cpu.c:261
}
20102726:	0001                	nop
20102728:	40f6                	lw	ra,92(sp)
2010272a:	42e6                	lw	t0,88(sp)
2010272c:	4356                	lw	t1,84(sp)
2010272e:	43c6                	lw	t2,80(sp)
20102730:	4436                	lw	s0,76(sp)
20102732:	4526                	lw	a0,72(sp)
20102734:	4596                	lw	a1,68(sp)
20102736:	4606                	lw	a2,64(sp)
20102738:	56f2                	lw	a3,60(sp)
2010273a:	5762                	lw	a4,56(sp)
2010273c:	57d2                	lw	a5,52(sp)
2010273e:	5842                	lw	a6,48(sp)
20102740:	58b2                	lw	a7,44(sp)
20102742:	5e22                	lw	t3,40(sp)
20102744:	5e92                	lw	t4,36(sp)
20102746:	5f02                	lw	t5,32(sp)
20102748:	4ff2                	lw	t6,28(sp)
2010274a:	6125                	add	sp,sp,96
2010274c:	30200073          	mret

20102750 <metal_lc10_interrupt_vector_handler>:
metal_lc10_interrupt_vector_handler():
C:/VSD/FreedomStudio-3-1-1-x86_64-w64-mingw32/FreedomStudio-3-1-1/SiFive/freedom-e-sdk-v21.11.00.00/freedom-metal/src/drivers/riscv_cpu.c:265

/* The metal_lc10_interrupt_vector_handler() function can be redefined. */
void __attribute__((weak, interrupt))
metal_lc10_interrupt_vector_handler(void) {
20102750:	711d                	add	sp,sp,-96
20102752:	ce86                	sw	ra,92(sp)
20102754:	cc96                	sw	t0,88(sp)
20102756:	ca9a                	sw	t1,84(sp)
20102758:	c89e                	sw	t2,80(sp)
2010275a:	c6a2                	sw	s0,76(sp)
2010275c:	c4aa                	sw	a0,72(sp)
2010275e:	c2ae                	sw	a1,68(sp)
20102760:	c0b2                	sw	a2,64(sp)
20102762:	de36                	sw	a3,60(sp)
20102764:	dc3a                	sw	a4,56(sp)
20102766:	da3e                	sw	a5,52(sp)
20102768:	d842                	sw	a6,48(sp)
2010276a:	d646                	sw	a7,44(sp)
2010276c:	d472                	sw	t3,40(sp)
2010276e:	d276                	sw	t4,36(sp)
20102770:	d07a                	sw	t5,32(sp)
20102772:	ce7e                	sw	t6,28(sp)
20102774:	1080                	add	s0,sp,96
C:/VSD/FreedomStudio-3-1-1-x86_64-w64-mingw32/FreedomStudio-3-1-1/SiFive/freedom-e-sdk-v21.11.00.00/freedom-metal/src/drivers/riscv_cpu.c:266
    __METAL_IRQ_VECTOR_HANDLER(METAL_INTERRUPT_ID_LC10);
20102776:	c3aff0ef          	jal	20101bb0 <__metal_myhart_id>
2010277a:	872a                	mv	a4,a0
C:/VSD/FreedomStudio-3-1-1-x86_64-w64-mingw32/FreedomStudio-3-1-1/SiFive/freedom-e-sdk-v21.11.00.00/freedom-metal/src/drivers/riscv_cpu.c:266 (discriminator 1)
2010277c:	800017b7          	lui	a5,0x80001
20102780:	070a                	sll	a4,a4,0x2
20102782:	a1878793          	add	a5,a5,-1512 # 80000a18 <__metal_cpu_table>
20102786:	97ba                	add	a5,a5,a4
20102788:	439c                	lw	a5,0(a5)
2010278a:	faf42623          	sw	a5,-84(s0)
2010278e:	fac42783          	lw	a5,-84(s0)
20102792:	c78d                	beqz	a5,201027bc <metal_lc10_interrupt_vector_handler+0x6c>
20102794:	fac42503          	lw	a0,-84(s0)
20102798:	b92ff0ef          	jal	20101b2a <__metal_driver_cpu_interrupt_controller>
2010279c:	faa42423          	sw	a0,-88(s0)
201027a0:	fa842783          	lw	a5,-88(s0)
201027a4:	3087a783          	lw	a5,776(a5)
201027a8:	faf42223          	sw	a5,-92(s0)
201027ac:	fa842783          	lw	a5,-88(s0)
201027b0:	3007a783          	lw	a5,768(a5)
201027b4:	fa442583          	lw	a1,-92(s0)
201027b8:	4569                	li	a0,26
201027ba:	9782                	jalr	a5
C:/VSD/FreedomStudio-3-1-1-x86_64-w64-mingw32/FreedomStudio-3-1-1/SiFive/freedom-e-sdk-v21.11.00.00/freedom-metal/src/drivers/riscv_cpu.c:267
}
201027bc:	0001                	nop
201027be:	40f6                	lw	ra,92(sp)
201027c0:	42e6                	lw	t0,88(sp)
201027c2:	4356                	lw	t1,84(sp)
201027c4:	43c6                	lw	t2,80(sp)
201027c6:	4436                	lw	s0,76(sp)
201027c8:	4526                	lw	a0,72(sp)
201027ca:	4596                	lw	a1,68(sp)
201027cc:	4606                	lw	a2,64(sp)
201027ce:	56f2                	lw	a3,60(sp)
201027d0:	5762                	lw	a4,56(sp)
201027d2:	57d2                	lw	a5,52(sp)
201027d4:	5842                	lw	a6,48(sp)
201027d6:	58b2                	lw	a7,44(sp)
201027d8:	5e22                	lw	t3,40(sp)
201027da:	5e92                	lw	t4,36(sp)
201027dc:	5f02                	lw	t5,32(sp)
201027de:	4ff2                	lw	t6,28(sp)
201027e0:	6125                	add	sp,sp,96
201027e2:	30200073          	mret

201027e6 <metal_lc11_interrupt_vector_handler>:
metal_lc11_interrupt_vector_handler():
C:/VSD/FreedomStudio-3-1-1-x86_64-w64-mingw32/FreedomStudio-3-1-1/SiFive/freedom-e-sdk-v21.11.00.00/freedom-metal/src/drivers/riscv_cpu.c:271

/* The metal_lc11_interrupt_vector_handler() function can be redefined. */
void __attribute__((weak, interrupt))
metal_lc11_interrupt_vector_handler(void) {
201027e6:	711d                	add	sp,sp,-96
201027e8:	ce86                	sw	ra,92(sp)
201027ea:	cc96                	sw	t0,88(sp)
201027ec:	ca9a                	sw	t1,84(sp)
201027ee:	c89e                	sw	t2,80(sp)
201027f0:	c6a2                	sw	s0,76(sp)
201027f2:	c4aa                	sw	a0,72(sp)
201027f4:	c2ae                	sw	a1,68(sp)
201027f6:	c0b2                	sw	a2,64(sp)
201027f8:	de36                	sw	a3,60(sp)
201027fa:	dc3a                	sw	a4,56(sp)
201027fc:	da3e                	sw	a5,52(sp)
201027fe:	d842                	sw	a6,48(sp)
20102800:	d646                	sw	a7,44(sp)
20102802:	d472                	sw	t3,40(sp)
20102804:	d276                	sw	t4,36(sp)
20102806:	d07a                	sw	t5,32(sp)
20102808:	ce7e                	sw	t6,28(sp)
2010280a:	1080                	add	s0,sp,96
C:/VSD/FreedomStudio-3-1-1-x86_64-w64-mingw32/FreedomStudio-3-1-1/SiFive/freedom-e-sdk-v21.11.00.00/freedom-metal/src/drivers/riscv_cpu.c:272
    __METAL_IRQ_VECTOR_HANDLER(METAL_INTERRUPT_ID_LC11);
2010280c:	ba4ff0ef          	jal	20101bb0 <__metal_myhart_id>
20102810:	872a                	mv	a4,a0
C:/VSD/FreedomStudio-3-1-1-x86_64-w64-mingw32/FreedomStudio-3-1-1/SiFive/freedom-e-sdk-v21.11.00.00/freedom-metal/src/drivers/riscv_cpu.c:272 (discriminator 1)
20102812:	800017b7          	lui	a5,0x80001
20102816:	070a                	sll	a4,a4,0x2
20102818:	a1878793          	add	a5,a5,-1512 # 80000a18 <__metal_cpu_table>
2010281c:	97ba                	add	a5,a5,a4
2010281e:	439c                	lw	a5,0(a5)
20102820:	faf42623          	sw	a5,-84(s0)
20102824:	fac42783          	lw	a5,-84(s0)
20102828:	c78d                	beqz	a5,20102852 <metal_lc11_interrupt_vector_handler+0x6c>
2010282a:	fac42503          	lw	a0,-84(s0)
2010282e:	afcff0ef          	jal	20101b2a <__metal_driver_cpu_interrupt_controller>
20102832:	faa42423          	sw	a0,-88(s0)
20102836:	fa842783          	lw	a5,-88(s0)
2010283a:	3207a783          	lw	a5,800(a5)
2010283e:	faf42223          	sw	a5,-92(s0)
20102842:	fa842783          	lw	a5,-88(s0)
20102846:	3187a783          	lw	a5,792(a5)
2010284a:	fa442583          	lw	a1,-92(s0)
2010284e:	456d                	li	a0,27
20102850:	9782                	jalr	a5
C:/VSD/FreedomStudio-3-1-1-x86_64-w64-mingw32/FreedomStudio-3-1-1/SiFive/freedom-e-sdk-v21.11.00.00/freedom-metal/src/drivers/riscv_cpu.c:273
}
20102852:	0001                	nop
20102854:	40f6                	lw	ra,92(sp)
20102856:	42e6                	lw	t0,88(sp)
20102858:	4356                	lw	t1,84(sp)
2010285a:	43c6                	lw	t2,80(sp)
2010285c:	4436                	lw	s0,76(sp)
2010285e:	4526                	lw	a0,72(sp)
20102860:	4596                	lw	a1,68(sp)
20102862:	4606                	lw	a2,64(sp)
20102864:	56f2                	lw	a3,60(sp)
20102866:	5762                	lw	a4,56(sp)
20102868:	57d2                	lw	a5,52(sp)
2010286a:	5842                	lw	a6,48(sp)
2010286c:	58b2                	lw	a7,44(sp)
2010286e:	5e22                	lw	t3,40(sp)
20102870:	5e92                	lw	t4,36(sp)
20102872:	5f02                	lw	t5,32(sp)
20102874:	4ff2                	lw	t6,28(sp)
20102876:	6125                	add	sp,sp,96
20102878:	30200073          	mret

2010287c <metal_lc12_interrupt_vector_handler>:
metal_lc12_interrupt_vector_handler():
C:/VSD/FreedomStudio-3-1-1-x86_64-w64-mingw32/FreedomStudio-3-1-1/SiFive/freedom-e-sdk-v21.11.00.00/freedom-metal/src/drivers/riscv_cpu.c:277

/* The metal_lc12_interrupt_vector_handler() function can be redefined. */
void __attribute__((weak, interrupt))
metal_lc12_interrupt_vector_handler(void) {
2010287c:	711d                	add	sp,sp,-96
2010287e:	ce86                	sw	ra,92(sp)
20102880:	cc96                	sw	t0,88(sp)
20102882:	ca9a                	sw	t1,84(sp)
20102884:	c89e                	sw	t2,80(sp)
20102886:	c6a2                	sw	s0,76(sp)
20102888:	c4aa                	sw	a0,72(sp)
2010288a:	c2ae                	sw	a1,68(sp)
2010288c:	c0b2                	sw	a2,64(sp)
2010288e:	de36                	sw	a3,60(sp)
20102890:	dc3a                	sw	a4,56(sp)
20102892:	da3e                	sw	a5,52(sp)
20102894:	d842                	sw	a6,48(sp)
20102896:	d646                	sw	a7,44(sp)
20102898:	d472                	sw	t3,40(sp)
2010289a:	d276                	sw	t4,36(sp)
2010289c:	d07a                	sw	t5,32(sp)
2010289e:	ce7e                	sw	t6,28(sp)
201028a0:	1080                	add	s0,sp,96
C:/VSD/FreedomStudio-3-1-1-x86_64-w64-mingw32/FreedomStudio-3-1-1/SiFive/freedom-e-sdk-v21.11.00.00/freedom-metal/src/drivers/riscv_cpu.c:278
    __METAL_IRQ_VECTOR_HANDLER(METAL_INTERRUPT_ID_LC12);
201028a2:	b0eff0ef          	jal	20101bb0 <__metal_myhart_id>
201028a6:	872a                	mv	a4,a0
C:/VSD/FreedomStudio-3-1-1-x86_64-w64-mingw32/FreedomStudio-3-1-1/SiFive/freedom-e-sdk-v21.11.00.00/freedom-metal/src/drivers/riscv_cpu.c:278 (discriminator 1)
201028a8:	800017b7          	lui	a5,0x80001
201028ac:	070a                	sll	a4,a4,0x2
201028ae:	a1878793          	add	a5,a5,-1512 # 80000a18 <__metal_cpu_table>
201028b2:	97ba                	add	a5,a5,a4
201028b4:	439c                	lw	a5,0(a5)
201028b6:	faf42623          	sw	a5,-84(s0)
201028ba:	fac42783          	lw	a5,-84(s0)
201028be:	c78d                	beqz	a5,201028e8 <metal_lc12_interrupt_vector_handler+0x6c>
201028c0:	fac42503          	lw	a0,-84(s0)
201028c4:	a66ff0ef          	jal	20101b2a <__metal_driver_cpu_interrupt_controller>
201028c8:	faa42423          	sw	a0,-88(s0)
201028cc:	fa842783          	lw	a5,-88(s0)
201028d0:	3387a783          	lw	a5,824(a5)
201028d4:	faf42223          	sw	a5,-92(s0)
201028d8:	fa842783          	lw	a5,-88(s0)
201028dc:	3307a783          	lw	a5,816(a5)
201028e0:	fa442583          	lw	a1,-92(s0)
201028e4:	4571                	li	a0,28
201028e6:	9782                	jalr	a5
C:/VSD/FreedomStudio-3-1-1-x86_64-w64-mingw32/FreedomStudio-3-1-1/SiFive/freedom-e-sdk-v21.11.00.00/freedom-metal/src/drivers/riscv_cpu.c:279
}
201028e8:	0001                	nop
201028ea:	40f6                	lw	ra,92(sp)
201028ec:	42e6                	lw	t0,88(sp)
201028ee:	4356                	lw	t1,84(sp)
201028f0:	43c6                	lw	t2,80(sp)
201028f2:	4436                	lw	s0,76(sp)
201028f4:	4526                	lw	a0,72(sp)
201028f6:	4596                	lw	a1,68(sp)
201028f8:	4606                	lw	a2,64(sp)
201028fa:	56f2                	lw	a3,60(sp)
201028fc:	5762                	lw	a4,56(sp)
201028fe:	57d2                	lw	a5,52(sp)
20102900:	5842                	lw	a6,48(sp)
20102902:	58b2                	lw	a7,44(sp)
20102904:	5e22                	lw	t3,40(sp)
20102906:	5e92                	lw	t4,36(sp)
20102908:	5f02                	lw	t5,32(sp)
2010290a:	4ff2                	lw	t6,28(sp)
2010290c:	6125                	add	sp,sp,96
2010290e:	30200073          	mret

20102912 <metal_lc13_interrupt_vector_handler>:
metal_lc13_interrupt_vector_handler():
C:/VSD/FreedomStudio-3-1-1-x86_64-w64-mingw32/FreedomStudio-3-1-1/SiFive/freedom-e-sdk-v21.11.00.00/freedom-metal/src/drivers/riscv_cpu.c:283

/* The metal_lc13_interrupt_vector_handler() function can be redefined. */
void __attribute__((weak, interrupt))
metal_lc13_interrupt_vector_handler(void) {
20102912:	711d                	add	sp,sp,-96
20102914:	ce86                	sw	ra,92(sp)
20102916:	cc96                	sw	t0,88(sp)
20102918:	ca9a                	sw	t1,84(sp)
2010291a:	c89e                	sw	t2,80(sp)
2010291c:	c6a2                	sw	s0,76(sp)
2010291e:	c4aa                	sw	a0,72(sp)
20102920:	c2ae                	sw	a1,68(sp)
20102922:	c0b2                	sw	a2,64(sp)
20102924:	de36                	sw	a3,60(sp)
20102926:	dc3a                	sw	a4,56(sp)
20102928:	da3e                	sw	a5,52(sp)
2010292a:	d842                	sw	a6,48(sp)
2010292c:	d646                	sw	a7,44(sp)
2010292e:	d472                	sw	t3,40(sp)
20102930:	d276                	sw	t4,36(sp)
20102932:	d07a                	sw	t5,32(sp)
20102934:	ce7e                	sw	t6,28(sp)
20102936:	1080                	add	s0,sp,96
C:/VSD/FreedomStudio-3-1-1-x86_64-w64-mingw32/FreedomStudio-3-1-1/SiFive/freedom-e-sdk-v21.11.00.00/freedom-metal/src/drivers/riscv_cpu.c:284
    __METAL_IRQ_VECTOR_HANDLER(METAL_INTERRUPT_ID_LC13);
20102938:	a78ff0ef          	jal	20101bb0 <__metal_myhart_id>
2010293c:	872a                	mv	a4,a0
C:/VSD/FreedomStudio-3-1-1-x86_64-w64-mingw32/FreedomStudio-3-1-1/SiFive/freedom-e-sdk-v21.11.00.00/freedom-metal/src/drivers/riscv_cpu.c:284 (discriminator 1)
2010293e:	800017b7          	lui	a5,0x80001
20102942:	070a                	sll	a4,a4,0x2
20102944:	a1878793          	add	a5,a5,-1512 # 80000a18 <__metal_cpu_table>
20102948:	97ba                	add	a5,a5,a4
2010294a:	439c                	lw	a5,0(a5)
2010294c:	faf42623          	sw	a5,-84(s0)
20102950:	fac42783          	lw	a5,-84(s0)
20102954:	c78d                	beqz	a5,2010297e <metal_lc13_interrupt_vector_handler+0x6c>
20102956:	fac42503          	lw	a0,-84(s0)
2010295a:	9d0ff0ef          	jal	20101b2a <__metal_driver_cpu_interrupt_controller>
2010295e:	faa42423          	sw	a0,-88(s0)
20102962:	fa842783          	lw	a5,-88(s0)
20102966:	3507a783          	lw	a5,848(a5)
2010296a:	faf42223          	sw	a5,-92(s0)
2010296e:	fa842783          	lw	a5,-88(s0)
20102972:	3487a783          	lw	a5,840(a5)
20102976:	fa442583          	lw	a1,-92(s0)
2010297a:	4575                	li	a0,29
2010297c:	9782                	jalr	a5
C:/VSD/FreedomStudio-3-1-1-x86_64-w64-mingw32/FreedomStudio-3-1-1/SiFive/freedom-e-sdk-v21.11.00.00/freedom-metal/src/drivers/riscv_cpu.c:285
}
2010297e:	0001                	nop
20102980:	40f6                	lw	ra,92(sp)
20102982:	42e6                	lw	t0,88(sp)
20102984:	4356                	lw	t1,84(sp)
20102986:	43c6                	lw	t2,80(sp)
20102988:	4436                	lw	s0,76(sp)
2010298a:	4526                	lw	a0,72(sp)
2010298c:	4596                	lw	a1,68(sp)
2010298e:	4606                	lw	a2,64(sp)
20102990:	56f2                	lw	a3,60(sp)
20102992:	5762                	lw	a4,56(sp)
20102994:	57d2                	lw	a5,52(sp)
20102996:	5842                	lw	a6,48(sp)
20102998:	58b2                	lw	a7,44(sp)
2010299a:	5e22                	lw	t3,40(sp)
2010299c:	5e92                	lw	t4,36(sp)
2010299e:	5f02                	lw	t5,32(sp)
201029a0:	4ff2                	lw	t6,28(sp)
201029a2:	6125                	add	sp,sp,96
201029a4:	30200073          	mret

201029a8 <metal_lc14_interrupt_vector_handler>:
metal_lc14_interrupt_vector_handler():
C:/VSD/FreedomStudio-3-1-1-x86_64-w64-mingw32/FreedomStudio-3-1-1/SiFive/freedom-e-sdk-v21.11.00.00/freedom-metal/src/drivers/riscv_cpu.c:289

/* The metal_lc14_interrupt_vector_handler() function can be redefined. */
void __attribute__((weak, interrupt))
metal_lc14_interrupt_vector_handler(void) {
201029a8:	711d                	add	sp,sp,-96
201029aa:	ce86                	sw	ra,92(sp)
201029ac:	cc96                	sw	t0,88(sp)
201029ae:	ca9a                	sw	t1,84(sp)
201029b0:	c89e                	sw	t2,80(sp)
201029b2:	c6a2                	sw	s0,76(sp)
201029b4:	c4aa                	sw	a0,72(sp)
201029b6:	c2ae                	sw	a1,68(sp)
201029b8:	c0b2                	sw	a2,64(sp)
201029ba:	de36                	sw	a3,60(sp)
201029bc:	dc3a                	sw	a4,56(sp)
201029be:	da3e                	sw	a5,52(sp)
201029c0:	d842                	sw	a6,48(sp)
201029c2:	d646                	sw	a7,44(sp)
201029c4:	d472                	sw	t3,40(sp)
201029c6:	d276                	sw	t4,36(sp)
201029c8:	d07a                	sw	t5,32(sp)
201029ca:	ce7e                	sw	t6,28(sp)
201029cc:	1080                	add	s0,sp,96
C:/VSD/FreedomStudio-3-1-1-x86_64-w64-mingw32/FreedomStudio-3-1-1/SiFive/freedom-e-sdk-v21.11.00.00/freedom-metal/src/drivers/riscv_cpu.c:290
    __METAL_IRQ_VECTOR_HANDLER(METAL_INTERRUPT_ID_LC14);
201029ce:	9e2ff0ef          	jal	20101bb0 <__metal_myhart_id>
201029d2:	872a                	mv	a4,a0
C:/VSD/FreedomStudio-3-1-1-x86_64-w64-mingw32/FreedomStudio-3-1-1/SiFive/freedom-e-sdk-v21.11.00.00/freedom-metal/src/drivers/riscv_cpu.c:290 (discriminator 1)
201029d4:	800017b7          	lui	a5,0x80001
201029d8:	070a                	sll	a4,a4,0x2
201029da:	a1878793          	add	a5,a5,-1512 # 80000a18 <__metal_cpu_table>
201029de:	97ba                	add	a5,a5,a4
201029e0:	439c                	lw	a5,0(a5)
201029e2:	faf42623          	sw	a5,-84(s0)
201029e6:	fac42783          	lw	a5,-84(s0)
201029ea:	c78d                	beqz	a5,20102a14 <metal_lc14_interrupt_vector_handler+0x6c>
201029ec:	fac42503          	lw	a0,-84(s0)
201029f0:	93aff0ef          	jal	20101b2a <__metal_driver_cpu_interrupt_controller>
201029f4:	faa42423          	sw	a0,-88(s0)
201029f8:	fa842783          	lw	a5,-88(s0)
201029fc:	3687a783          	lw	a5,872(a5)
20102a00:	faf42223          	sw	a5,-92(s0)
20102a04:	fa842783          	lw	a5,-88(s0)
20102a08:	3607a783          	lw	a5,864(a5)
20102a0c:	fa442583          	lw	a1,-92(s0)
20102a10:	4579                	li	a0,30
20102a12:	9782                	jalr	a5
C:/VSD/FreedomStudio-3-1-1-x86_64-w64-mingw32/FreedomStudio-3-1-1/SiFive/freedom-e-sdk-v21.11.00.00/freedom-metal/src/drivers/riscv_cpu.c:291
}
20102a14:	0001                	nop
20102a16:	40f6                	lw	ra,92(sp)
20102a18:	42e6                	lw	t0,88(sp)
20102a1a:	4356                	lw	t1,84(sp)
20102a1c:	43c6                	lw	t2,80(sp)
20102a1e:	4436                	lw	s0,76(sp)
20102a20:	4526                	lw	a0,72(sp)
20102a22:	4596                	lw	a1,68(sp)
20102a24:	4606                	lw	a2,64(sp)
20102a26:	56f2                	lw	a3,60(sp)
20102a28:	5762                	lw	a4,56(sp)
20102a2a:	57d2                	lw	a5,52(sp)
20102a2c:	5842                	lw	a6,48(sp)
20102a2e:	58b2                	lw	a7,44(sp)
20102a30:	5e22                	lw	t3,40(sp)
20102a32:	5e92                	lw	t4,36(sp)
20102a34:	5f02                	lw	t5,32(sp)
20102a36:	4ff2                	lw	t6,28(sp)
20102a38:	6125                	add	sp,sp,96
20102a3a:	30200073          	mret

20102a3e <metal_lc15_interrupt_vector_handler>:
metal_lc15_interrupt_vector_handler():
C:/VSD/FreedomStudio-3-1-1-x86_64-w64-mingw32/FreedomStudio-3-1-1/SiFive/freedom-e-sdk-v21.11.00.00/freedom-metal/src/drivers/riscv_cpu.c:295

/* The metal_lc15_interrupt_vector_handler() function can be redefined. */
void __attribute__((weak, interrupt))
metal_lc15_interrupt_vector_handler(void) {
20102a3e:	711d                	add	sp,sp,-96
20102a40:	ce86                	sw	ra,92(sp)
20102a42:	cc96                	sw	t0,88(sp)
20102a44:	ca9a                	sw	t1,84(sp)
20102a46:	c89e                	sw	t2,80(sp)
20102a48:	c6a2                	sw	s0,76(sp)
20102a4a:	c4aa                	sw	a0,72(sp)
20102a4c:	c2ae                	sw	a1,68(sp)
20102a4e:	c0b2                	sw	a2,64(sp)
20102a50:	de36                	sw	a3,60(sp)
20102a52:	dc3a                	sw	a4,56(sp)
20102a54:	da3e                	sw	a5,52(sp)
20102a56:	d842                	sw	a6,48(sp)
20102a58:	d646                	sw	a7,44(sp)
20102a5a:	d472                	sw	t3,40(sp)
20102a5c:	d276                	sw	t4,36(sp)
20102a5e:	d07a                	sw	t5,32(sp)
20102a60:	ce7e                	sw	t6,28(sp)
20102a62:	1080                	add	s0,sp,96
C:/VSD/FreedomStudio-3-1-1-x86_64-w64-mingw32/FreedomStudio-3-1-1/SiFive/freedom-e-sdk-v21.11.00.00/freedom-metal/src/drivers/riscv_cpu.c:296
    __METAL_IRQ_VECTOR_HANDLER(METAL_INTERRUPT_ID_LC15);
20102a64:	94cff0ef          	jal	20101bb0 <__metal_myhart_id>
20102a68:	872a                	mv	a4,a0
C:/VSD/FreedomStudio-3-1-1-x86_64-w64-mingw32/FreedomStudio-3-1-1/SiFive/freedom-e-sdk-v21.11.00.00/freedom-metal/src/drivers/riscv_cpu.c:296 (discriminator 1)
20102a6a:	800017b7          	lui	a5,0x80001
20102a6e:	070a                	sll	a4,a4,0x2
20102a70:	a1878793          	add	a5,a5,-1512 # 80000a18 <__metal_cpu_table>
20102a74:	97ba                	add	a5,a5,a4
20102a76:	439c                	lw	a5,0(a5)
20102a78:	faf42623          	sw	a5,-84(s0)
20102a7c:	fac42783          	lw	a5,-84(s0)
20102a80:	c78d                	beqz	a5,20102aaa <metal_lc15_interrupt_vector_handler+0x6c>
20102a82:	fac42503          	lw	a0,-84(s0)
20102a86:	8a4ff0ef          	jal	20101b2a <__metal_driver_cpu_interrupt_controller>
20102a8a:	faa42423          	sw	a0,-88(s0)
20102a8e:	fa842783          	lw	a5,-88(s0)
20102a92:	3807a783          	lw	a5,896(a5)
20102a96:	faf42223          	sw	a5,-92(s0)
20102a9a:	fa842783          	lw	a5,-88(s0)
20102a9e:	3787a783          	lw	a5,888(a5)
20102aa2:	fa442583          	lw	a1,-92(s0)
20102aa6:	457d                	li	a0,31
20102aa8:	9782                	jalr	a5
C:/VSD/FreedomStudio-3-1-1-x86_64-w64-mingw32/FreedomStudio-3-1-1/SiFive/freedom-e-sdk-v21.11.00.00/freedom-metal/src/drivers/riscv_cpu.c:297
}
20102aaa:	0001                	nop
20102aac:	40f6                	lw	ra,92(sp)
20102aae:	42e6                	lw	t0,88(sp)
20102ab0:	4356                	lw	t1,84(sp)
20102ab2:	43c6                	lw	t2,80(sp)
20102ab4:	4436                	lw	s0,76(sp)
20102ab6:	4526                	lw	a0,72(sp)
20102ab8:	4596                	lw	a1,68(sp)
20102aba:	4606                	lw	a2,64(sp)
20102abc:	56f2                	lw	a3,60(sp)
20102abe:	5762                	lw	a4,56(sp)
20102ac0:	57d2                	lw	a5,52(sp)
20102ac2:	5842                	lw	a6,48(sp)
20102ac4:	58b2                	lw	a7,44(sp)
20102ac6:	5e22                	lw	t3,40(sp)
20102ac8:	5e92                	lw	t4,36(sp)
20102aca:	5f02                	lw	t5,32(sp)
20102acc:	4ff2                	lw	t6,28(sp)
20102ace:	6125                	add	sp,sp,96
20102ad0:	30200073          	mret

20102ad4 <__metal_controller_interrupt_vector_mode>:
__metal_controller_interrupt_vector_mode():
C:/VSD/FreedomStudio-3-1-1-x86_64-w64-mingw32/FreedomStudio-3-1-1/SiFive/freedom-e-sdk-v21.11.00.00/freedom-metal/src/drivers/riscv_cpu.c:299

metal_vector_mode __metal_controller_interrupt_vector_mode(void) {
20102ad4:	1101                	add	sp,sp,-32
20102ad6:	ce22                	sw	s0,28(sp)
20102ad8:	1000                	add	s0,sp,32
C:/VSD/FreedomStudio-3-1-1-x86_64-w64-mingw32/FreedomStudio-3-1-1/SiFive/freedom-e-sdk-v21.11.00.00/freedom-metal/src/drivers/riscv_cpu.c:302
    uintptr_t val;

    __asm__ volatile("csrr %0, mtvec" : "=r"(val));
20102ada:	305027f3          	csrr	a5,mtvec
20102ade:	fef42623          	sw	a5,-20(s0)
C:/VSD/FreedomStudio-3-1-1-x86_64-w64-mingw32/FreedomStudio-3-1-1/SiFive/freedom-e-sdk-v21.11.00.00/freedom-metal/src/drivers/riscv_cpu.c:303
    val &= METAL_MTVEC_MASK;
20102ae2:	fec42783          	lw	a5,-20(s0)
20102ae6:	03f7f793          	and	a5,a5,63
20102aea:	fef42623          	sw	a5,-20(s0)
C:/VSD/FreedomStudio-3-1-1-x86_64-w64-mingw32/FreedomStudio-3-1-1/SiFive/freedom-e-sdk-v21.11.00.00/freedom-metal/src/drivers/riscv_cpu.c:305

    switch (val) {
20102aee:	fec42703          	lw	a4,-20(s0)
20102af2:	478d                	li	a5,3
20102af4:	02f70363          	beq	a4,a5,20102b1a <__metal_controller_interrupt_vector_mode+0x46>
20102af8:	fec42703          	lw	a4,-20(s0)
20102afc:	478d                	li	a5,3
20102afe:	02e7e263          	bltu	a5,a4,20102b22 <__metal_controller_interrupt_vector_mode+0x4e>
20102b02:	fec42703          	lw	a4,-20(s0)
20102b06:	4785                	li	a5,1
20102b08:	00f70b63          	beq	a4,a5,20102b1e <__metal_controller_interrupt_vector_mode+0x4a>
20102b0c:	fec42703          	lw	a4,-20(s0)
20102b10:	4789                	li	a5,2
20102b12:	00f71863          	bne	a4,a5,20102b22 <__metal_controller_interrupt_vector_mode+0x4e>
C:/VSD/FreedomStudio-3-1-1-x86_64-w64-mingw32/FreedomStudio-3-1-1/SiFive/freedom-e-sdk-v21.11.00.00/freedom-metal/src/drivers/riscv_cpu.c:307
    case METAL_MTVEC_CLIC:
        return METAL_SELECTIVE_VECTOR_MODE;
20102b16:	478d                	li	a5,3
20102b18:	a031                	j	20102b24 <__metal_controller_interrupt_vector_mode+0x50>
C:/VSD/FreedomStudio-3-1-1-x86_64-w64-mingw32/FreedomStudio-3-1-1/SiFive/freedom-e-sdk-v21.11.00.00/freedom-metal/src/drivers/riscv_cpu.c:309
    case METAL_MTVEC_CLIC_VECTORED:
        return METAL_HARDWARE_VECTOR_MODE;
20102b1a:	4791                	li	a5,4
20102b1c:	a021                	j	20102b24 <__metal_controller_interrupt_vector_mode+0x50>
C:/VSD/FreedomStudio-3-1-1-x86_64-w64-mingw32/FreedomStudio-3-1-1/SiFive/freedom-e-sdk-v21.11.00.00/freedom-metal/src/drivers/riscv_cpu.c:311
    case METAL_MTVEC_VECTORED:
        return METAL_VECTOR_MODE;
20102b1e:	4785                	li	a5,1
20102b20:	a011                	j	20102b24 <__metal_controller_interrupt_vector_mode+0x50>
C:/VSD/FreedomStudio-3-1-1-x86_64-w64-mingw32/FreedomStudio-3-1-1/SiFive/freedom-e-sdk-v21.11.00.00/freedom-metal/src/drivers/riscv_cpu.c:313
    }
    return METAL_DIRECT_MODE;
20102b22:	4781                	li	a5,0
C:/VSD/FreedomStudio-3-1-1-x86_64-w64-mingw32/FreedomStudio-3-1-1/SiFive/freedom-e-sdk-v21.11.00.00/freedom-metal/src/drivers/riscv_cpu.c:314
}
20102b24:	853e                	mv	a0,a5
20102b26:	4472                	lw	s0,28(sp)
20102b28:	6105                	add	sp,sp,32
20102b2a:	8082                	ret

20102b2c <__metal_controller_interrupt_vector>:
__metal_controller_interrupt_vector():
C:/VSD/FreedomStudio-3-1-1-x86_64-w64-mingw32/FreedomStudio-3-1-1/SiFive/freedom-e-sdk-v21.11.00.00/freedom-metal/src/drivers/riscv_cpu.c:317

void __metal_controller_interrupt_vector(metal_vector_mode mode,
                                         void *vec_table) {
20102b2c:	7179                	add	sp,sp,-48
20102b2e:	d622                	sw	s0,44(sp)
20102b30:	1800                	add	s0,sp,48
20102b32:	fca42e23          	sw	a0,-36(s0)
20102b36:	fcb42c23          	sw	a1,-40(s0)
C:/VSD/FreedomStudio-3-1-1-x86_64-w64-mingw32/FreedomStudio-3-1-1/SiFive/freedom-e-sdk-v21.11.00.00/freedom-metal/src/drivers/riscv_cpu.c:320
    uintptr_t trap_entry, val;

    __asm__ volatile("csrr %0, mtvec" : "=r"(val));
20102b3a:	305027f3          	csrr	a5,mtvec
20102b3e:	fef42623          	sw	a5,-20(s0)
C:/VSD/FreedomStudio-3-1-1-x86_64-w64-mingw32/FreedomStudio-3-1-1/SiFive/freedom-e-sdk-v21.11.00.00/freedom-metal/src/drivers/riscv_cpu.c:321
    val &= ~(METAL_MTVEC_CLIC_VECTORED | METAL_MTVEC_CLIC_RESERVED);
20102b42:	fec42783          	lw	a5,-20(s0)
20102b46:	fc07f793          	and	a5,a5,-64
20102b4a:	fef42623          	sw	a5,-20(s0)
C:/VSD/FreedomStudio-3-1-1-x86_64-w64-mingw32/FreedomStudio-3-1-1/SiFive/freedom-e-sdk-v21.11.00.00/freedom-metal/src/drivers/riscv_cpu.c:322
    trap_entry = (uintptr_t)vec_table;
20102b4e:	fd842783          	lw	a5,-40(s0)
20102b52:	fef42423          	sw	a5,-24(s0)
C:/VSD/FreedomStudio-3-1-1-x86_64-w64-mingw32/FreedomStudio-3-1-1/SiFive/freedom-e-sdk-v21.11.00.00/freedom-metal/src/drivers/riscv_cpu.c:324

    switch (mode) {
20102b56:	fdc42703          	lw	a4,-36(s0)
20102b5a:	4791                	li	a5,4
20102b5c:	04f70563          	beq	a4,a5,20102ba6 <__metal_controller_interrupt_vector+0x7a>
20102b60:	fdc42703          	lw	a4,-36(s0)
20102b64:	4791                	li	a5,4
20102b66:	06e7e863          	bltu	a5,a4,20102bd6 <__metal_controller_interrupt_vector+0xaa>
20102b6a:	fdc42703          	lw	a4,-36(s0)
20102b6e:	478d                	li	a5,3
20102b70:	06e7e363          	bltu	a5,a4,20102bd6 <__metal_controller_interrupt_vector+0xaa>
20102b74:	fdc42703          	lw	a4,-36(s0)
20102b78:	4789                	li	a5,2
20102b7a:	00f77b63          	bgeu	a4,a5,20102b90 <__metal_controller_interrupt_vector+0x64>
20102b7e:	fdc42783          	lw	a5,-36(s0)
20102b82:	c7a1                	beqz	a5,20102bca <__metal_controller_interrupt_vector+0x9e>
20102b84:	fdc42703          	lw	a4,-36(s0)
20102b88:	4785                	li	a5,1
20102b8a:	02f70963          	beq	a4,a5,20102bbc <__metal_controller_interrupt_vector+0x90>
C:/VSD/FreedomStudio-3-1-1-x86_64-w64-mingw32/FreedomStudio-3-1-1/SiFive/freedom-e-sdk-v21.11.00.00/freedom-metal/src/drivers/riscv_cpu.c:344
    case METAL_DIRECT_MODE:
        __asm__ volatile(
            "csrw mtvec, %0" ::"r"(trap_entry & ~METAL_MTVEC_CLIC_VECTORED));
        break;
    }
}
20102b8e:	a0a1                	j	20102bd6 <__metal_controller_interrupt_vector+0xaa>
C:/VSD/FreedomStudio-3-1-1-x86_64-w64-mingw32/FreedomStudio-3-1-1/SiFive/freedom-e-sdk-v21.11.00.00/freedom-metal/src/drivers/riscv_cpu.c:327
        __asm__ volatile("csrw 0x307, %0" ::"r"(trap_entry));
20102b90:	fe842783          	lw	a5,-24(s0)
20102b94:	30779073          	csrw	mtvt,a5
C:/VSD/FreedomStudio-3-1-1-x86_64-w64-mingw32/FreedomStudio-3-1-1/SiFive/freedom-e-sdk-v21.11.00.00/freedom-metal/src/drivers/riscv_cpu.c:328
        __asm__ volatile("csrw mtvec, %0" ::"r"(val | METAL_MTVEC_CLIC));
20102b98:	fec42783          	lw	a5,-20(s0)
20102b9c:	0027e793          	or	a5,a5,2
20102ba0:	30579073          	csrw	mtvec,a5
C:/VSD/FreedomStudio-3-1-1-x86_64-w64-mingw32/FreedomStudio-3-1-1/SiFive/freedom-e-sdk-v21.11.00.00/freedom-metal/src/drivers/riscv_cpu.c:329
        break;
20102ba4:	a80d                	j	20102bd6 <__metal_controller_interrupt_vector+0xaa>
C:/VSD/FreedomStudio-3-1-1-x86_64-w64-mingw32/FreedomStudio-3-1-1/SiFive/freedom-e-sdk-v21.11.00.00/freedom-metal/src/drivers/riscv_cpu.c:331
        __asm__ volatile("csrw 0x307, %0" ::"r"(trap_entry));
20102ba6:	fe842783          	lw	a5,-24(s0)
20102baa:	30779073          	csrw	mtvt,a5
C:/VSD/FreedomStudio-3-1-1-x86_64-w64-mingw32/FreedomStudio-3-1-1/SiFive/freedom-e-sdk-v21.11.00.00/freedom-metal/src/drivers/riscv_cpu.c:333
            "csrw mtvec, %0" ::"r"(val | METAL_MTVEC_CLIC_VECTORED));
20102bae:	fec42783          	lw	a5,-20(s0)
20102bb2:	0037e793          	or	a5,a5,3
C:/VSD/FreedomStudio-3-1-1-x86_64-w64-mingw32/FreedomStudio-3-1-1/SiFive/freedom-e-sdk-v21.11.00.00/freedom-metal/src/drivers/riscv_cpu.c:332
        __asm__ volatile(
20102bb6:	30579073          	csrw	mtvec,a5
C:/VSD/FreedomStudio-3-1-1-x86_64-w64-mingw32/FreedomStudio-3-1-1/SiFive/freedom-e-sdk-v21.11.00.00/freedom-metal/src/drivers/riscv_cpu.c:334
        break;
20102bba:	a831                	j	20102bd6 <__metal_controller_interrupt_vector+0xaa>
C:/VSD/FreedomStudio-3-1-1-x86_64-w64-mingw32/FreedomStudio-3-1-1/SiFive/freedom-e-sdk-v21.11.00.00/freedom-metal/src/drivers/riscv_cpu.c:337
            "csrw mtvec, %0" ::"r"(trap_entry | METAL_MTVEC_VECTORED));
20102bbc:	fe842783          	lw	a5,-24(s0)
20102bc0:	0017e793          	or	a5,a5,1
C:/VSD/FreedomStudio-3-1-1-x86_64-w64-mingw32/FreedomStudio-3-1-1/SiFive/freedom-e-sdk-v21.11.00.00/freedom-metal/src/drivers/riscv_cpu.c:336
        __asm__ volatile(
20102bc4:	30579073          	csrw	mtvec,a5
C:/VSD/FreedomStudio-3-1-1-x86_64-w64-mingw32/FreedomStudio-3-1-1/SiFive/freedom-e-sdk-v21.11.00.00/freedom-metal/src/drivers/riscv_cpu.c:338
        break;
20102bc8:	a039                	j	20102bd6 <__metal_controller_interrupt_vector+0xaa>
C:/VSD/FreedomStudio-3-1-1-x86_64-w64-mingw32/FreedomStudio-3-1-1/SiFive/freedom-e-sdk-v21.11.00.00/freedom-metal/src/drivers/riscv_cpu.c:341
            "csrw mtvec, %0" ::"r"(trap_entry & ~METAL_MTVEC_CLIC_VECTORED));
20102bca:	fe842783          	lw	a5,-24(s0)
20102bce:	9bf1                	and	a5,a5,-4
C:/VSD/FreedomStudio-3-1-1-x86_64-w64-mingw32/FreedomStudio-3-1-1/SiFive/freedom-e-sdk-v21.11.00.00/freedom-metal/src/drivers/riscv_cpu.c:340
        __asm__ volatile(
20102bd0:	30579073          	csrw	mtvec,a5
C:/VSD/FreedomStudio-3-1-1-x86_64-w64-mingw32/FreedomStudio-3-1-1/SiFive/freedom-e-sdk-v21.11.00.00/freedom-metal/src/drivers/riscv_cpu.c:342
        break;
20102bd4:	0001                	nop
C:/VSD/FreedomStudio-3-1-1-x86_64-w64-mingw32/FreedomStudio-3-1-1/SiFive/freedom-e-sdk-v21.11.00.00/freedom-metal/src/drivers/riscv_cpu.c:344
}
20102bd6:	0001                	nop
20102bd8:	5432                	lw	s0,44(sp)
20102bda:	6145                	add	sp,sp,48
20102bdc:	8082                	ret

20102bde <__metal_valid_interrupt_id>:
__metal_valid_interrupt_id():
C:/VSD/FreedomStudio-3-1-1-x86_64-w64-mingw32/FreedomStudio-3-1-1/SiFive/freedom-e-sdk-v21.11.00.00/freedom-metal/src/drivers/riscv_cpu.c:346

int __metal_valid_interrupt_id(int id) {
20102bde:	1101                	add	sp,sp,-32
20102be0:	ce22                	sw	s0,28(sp)
20102be2:	1000                	add	s0,sp,32
20102be4:	fea42623          	sw	a0,-20(s0)
C:/VSD/FreedomStudio-3-1-1-x86_64-w64-mingw32/FreedomStudio-3-1-1/SiFive/freedom-e-sdk-v21.11.00.00/freedom-metal/src/drivers/riscv_cpu.c:347
    switch (id) {
20102be8:	fec42703          	lw	a4,-20(s0)
20102bec:	47fd                	li	a5,31
20102bee:	02e7c563          	blt	a5,a4,20102c18 <__metal_valid_interrupt_id+0x3a>
20102bf2:	fec42703          	lw	a4,-20(s0)
20102bf6:	478d                	li	a5,3
20102bf8:	02f74863          	blt	a4,a5,20102c28 <__metal_valid_interrupt_id+0x4a>
20102bfc:	fec42783          	lw	a5,-20(s0)
20102c00:	7745                	lui	a4,0xffff1
20102c02:	88870713          	add	a4,a4,-1912 # ffff0888 <metal_segment_heap_target_end+0x7ffef1a8>
20102c06:	00f757b3          	srl	a5,a4,a5
20102c0a:	8b85                	and	a5,a5,1
20102c0c:	00f037b3          	snez	a5,a5
20102c10:	0ff7f793          	zext.b	a5,a5
20102c14:	eb81                	bnez	a5,20102c24 <__metal_valid_interrupt_id+0x46>
C:/VSD/FreedomStudio-3-1-1-x86_64-w64-mingw32/FreedomStudio-3-1-1/SiFive/freedom-e-sdk-v21.11.00.00/freedom-metal/src/drivers/riscv_cpu.c:370
    case METAL_INTERRUPT_ID_LC14:
    case METAL_INTERRUPT_ID_LC15:
    case METAL_INTERRUPT_ID_BEU:
        return 1;
    default:
        break;
20102c16:	a809                	j	20102c28 <__metal_valid_interrupt_id+0x4a>
C:/VSD/FreedomStudio-3-1-1-x86_64-w64-mingw32/FreedomStudio-3-1-1/SiFive/freedom-e-sdk-v21.11.00.00/freedom-metal/src/drivers/riscv_cpu.c:347
    switch (id) {
20102c18:	fec42703          	lw	a4,-20(s0)
20102c1c:	08000793          	li	a5,128
20102c20:	00f71463          	bne	a4,a5,20102c28 <__metal_valid_interrupt_id+0x4a>
C:/VSD/FreedomStudio-3-1-1-x86_64-w64-mingw32/FreedomStudio-3-1-1/SiFive/freedom-e-sdk-v21.11.00.00/freedom-metal/src/drivers/riscv_cpu.c:368
        return 1;
20102c24:	4785                	li	a5,1
20102c26:	a019                	j	20102c2c <__metal_valid_interrupt_id+0x4e>
C:/VSD/FreedomStudio-3-1-1-x86_64-w64-mingw32/FreedomStudio-3-1-1/SiFive/freedom-e-sdk-v21.11.00.00/freedom-metal/src/drivers/riscv_cpu.c:370
        break;
20102c28:	0001                	nop
C:/VSD/FreedomStudio-3-1-1-x86_64-w64-mingw32/FreedomStudio-3-1-1/SiFive/freedom-e-sdk-v21.11.00.00/freedom-metal/src/drivers/riscv_cpu.c:373
    }

    return 0;
20102c2a:	4781                	li	a5,0
C:/VSD/FreedomStudio-3-1-1-x86_64-w64-mingw32/FreedomStudio-3-1-1/SiFive/freedom-e-sdk-v21.11.00.00/freedom-metal/src/drivers/riscv_cpu.c:374
}
20102c2c:	853e                	mv	a0,a5
20102c2e:	4472                	lw	s0,28(sp)
20102c30:	6105                	add	sp,sp,32
20102c32:	8082                	ret

20102c34 <__metal_local_interrupt_enable>:
__metal_local_interrupt_enable():
C:/VSD/FreedomStudio-3-1-1-x86_64-w64-mingw32/FreedomStudio-3-1-1/SiFive/freedom-e-sdk-v21.11.00.00/freedom-metal/src/drivers/riscv_cpu.c:377

int __metal_local_interrupt_enable(struct metal_interrupt *controller,
                                   metal_interrupt_id_e id, int enable) {
20102c34:	7179                	add	sp,sp,-48
20102c36:	d606                	sw	ra,44(sp)
20102c38:	d422                	sw	s0,40(sp)
20102c3a:	1800                	add	s0,sp,48
20102c3c:	fca42e23          	sw	a0,-36(s0)
20102c40:	fcb42c23          	sw	a1,-40(s0)
20102c44:	fcc42a23          	sw	a2,-44(s0)
C:/VSD/FreedomStudio-3-1-1-x86_64-w64-mingw32/FreedomStudio-3-1-1/SiFive/freedom-e-sdk-v21.11.00.00/freedom-metal/src/drivers/riscv_cpu.c:378
    int rc = 0;
20102c48:	fe042623          	sw	zero,-20(s0)
C:/VSD/FreedomStudio-3-1-1-x86_64-w64-mingw32/FreedomStudio-3-1-1/SiFive/freedom-e-sdk-v21.11.00.00/freedom-metal/src/drivers/riscv_cpu.c:380

    if (!controller) {
20102c4c:	fdc42783          	lw	a5,-36(s0)
20102c50:	e399                	bnez	a5,20102c56 <__metal_local_interrupt_enable+0x22>
C:/VSD/FreedomStudio-3-1-1-x86_64-w64-mingw32/FreedomStudio-3-1-1/SiFive/freedom-e-sdk-v21.11.00.00/freedom-metal/src/drivers/riscv_cpu.c:381
        return -1;
20102c52:	57fd                	li	a5,-1
20102c54:	a849                	j	20102ce6 <__metal_local_interrupt_enable+0xb2>
C:/VSD/FreedomStudio-3-1-1-x86_64-w64-mingw32/FreedomStudio-3-1-1/SiFive/freedom-e-sdk-v21.11.00.00/freedom-metal/src/drivers/riscv_cpu.c:384
    }

    switch (id) {
20102c56:	fd842703          	lw	a4,-40(s0)
20102c5a:	47fd                	li	a5,31
20102c5c:	08e7e063          	bltu	a5,a4,20102cdc <__metal_local_interrupt_enable+0xa8>
20102c60:	fd842783          	lw	a5,-40(s0)
20102c64:	00279713          	sll	a4,a5,0x2
20102c68:	201007b7          	lui	a5,0x20100
20102c6c:	3e078793          	add	a5,a5,992 # 201003e0 <__metal_driver_vtable_riscv_clint0+0x64>
20102c70:	97ba                	add	a5,a5,a4
20102c72:	439c                	lw	a5,0(a5)
20102c74:	8782                	jr	a5
C:/VSD/FreedomStudio-3-1-1-x86_64-w64-mingw32/FreedomStudio-3-1-1/SiFive/freedom-e-sdk-v21.11.00.00/freedom-metal/src/drivers/riscv_cpu.c:386
    case METAL_INTERRUPT_ID_BASE:
        if (enable) {
20102c76:	fd442783          	lw	a5,-44(s0)
20102c7a:	c781                	beqz	a5,20102c82 <__metal_local_interrupt_enable+0x4e>
C:/VSD/FreedomStudio-3-1-1-x86_64-w64-mingw32/FreedomStudio-3-1-1/SiFive/freedom-e-sdk-v21.11.00.00/freedom-metal/src/drivers/riscv_cpu.c:387
            __metal_interrupt_global_enable();
20102c7c:	f4ffe0ef          	jal	20101bca <__metal_interrupt_global_enable>
C:/VSD/FreedomStudio-3-1-1-x86_64-w64-mingw32/FreedomStudio-3-1-1/SiFive/freedom-e-sdk-v21.11.00.00/freedom-metal/src/drivers/riscv_cpu.c:391
        } else {
            __metal_interrupt_global_disable();
        }
        break;
20102c80:	a08d                	j	20102ce2 <__metal_local_interrupt_enable+0xae>
C:/VSD/FreedomStudio-3-1-1-x86_64-w64-mingw32/FreedomStudio-3-1-1/SiFive/freedom-e-sdk-v21.11.00.00/freedom-metal/src/drivers/riscv_cpu.c:389
            __metal_interrupt_global_disable();
20102c82:	f61fe0ef          	jal	20101be2 <__metal_interrupt_global_disable>
C:/VSD/FreedomStudio-3-1-1-x86_64-w64-mingw32/FreedomStudio-3-1-1/SiFive/freedom-e-sdk-v21.11.00.00/freedom-metal/src/drivers/riscv_cpu.c:391
        break;
20102c86:	a8b1                	j	20102ce2 <__metal_local_interrupt_enable+0xae>
C:/VSD/FreedomStudio-3-1-1-x86_64-w64-mingw32/FreedomStudio-3-1-1/SiFive/freedom-e-sdk-v21.11.00.00/freedom-metal/src/drivers/riscv_cpu.c:393
    case METAL_INTERRUPT_ID_SW:
        if (enable) {
20102c88:	fd442783          	lw	a5,-44(s0)
20102c8c:	c781                	beqz	a5,20102c94 <__metal_local_interrupt_enable+0x60>
C:/VSD/FreedomStudio-3-1-1-x86_64-w64-mingw32/FreedomStudio-3-1-1/SiFive/freedom-e-sdk-v21.11.00.00/freedom-metal/src/drivers/riscv_cpu.c:394
            __metal_interrupt_software_enable();
20102c8e:	f6dfe0ef          	jal	20101bfa <__metal_interrupt_software_enable>
C:/VSD/FreedomStudio-3-1-1-x86_64-w64-mingw32/FreedomStudio-3-1-1/SiFive/freedom-e-sdk-v21.11.00.00/freedom-metal/src/drivers/riscv_cpu.c:398
        } else {
            __metal_interrupt_software_disable();
        }
        break;
20102c92:	a881                	j	20102ce2 <__metal_local_interrupt_enable+0xae>
C:/VSD/FreedomStudio-3-1-1-x86_64-w64-mingw32/FreedomStudio-3-1-1/SiFive/freedom-e-sdk-v21.11.00.00/freedom-metal/src/drivers/riscv_cpu.c:396
            __metal_interrupt_software_disable();
20102c94:	f7ffe0ef          	jal	20101c12 <__metal_interrupt_software_disable>
C:/VSD/FreedomStudio-3-1-1-x86_64-w64-mingw32/FreedomStudio-3-1-1/SiFive/freedom-e-sdk-v21.11.00.00/freedom-metal/src/drivers/riscv_cpu.c:398
        break;
20102c98:	a0a9                	j	20102ce2 <__metal_local_interrupt_enable+0xae>
C:/VSD/FreedomStudio-3-1-1-x86_64-w64-mingw32/FreedomStudio-3-1-1/SiFive/freedom-e-sdk-v21.11.00.00/freedom-metal/src/drivers/riscv_cpu.c:400
    case METAL_INTERRUPT_ID_TMR:
        if (enable) {
20102c9a:	fd442783          	lw	a5,-44(s0)
20102c9e:	c781                	beqz	a5,20102ca6 <__metal_local_interrupt_enable+0x72>
C:/VSD/FreedomStudio-3-1-1-x86_64-w64-mingw32/FreedomStudio-3-1-1/SiFive/freedom-e-sdk-v21.11.00.00/freedom-metal/src/drivers/riscv_cpu.c:401
            __metal_interrupt_timer_enable();
20102ca0:	f8bfe0ef          	jal	20101c2a <__metal_interrupt_timer_enable>
C:/VSD/FreedomStudio-3-1-1-x86_64-w64-mingw32/FreedomStudio-3-1-1/SiFive/freedom-e-sdk-v21.11.00.00/freedom-metal/src/drivers/riscv_cpu.c:405
        } else {
            __metal_interrupt_timer_disable();
        }
        break;
20102ca4:	a83d                	j	20102ce2 <__metal_local_interrupt_enable+0xae>
C:/VSD/FreedomStudio-3-1-1-x86_64-w64-mingw32/FreedomStudio-3-1-1/SiFive/freedom-e-sdk-v21.11.00.00/freedom-metal/src/drivers/riscv_cpu.c:403
            __metal_interrupt_timer_disable();
20102ca6:	f9ffe0ef          	jal	20101c44 <__metal_interrupt_timer_disable>
C:/VSD/FreedomStudio-3-1-1-x86_64-w64-mingw32/FreedomStudio-3-1-1/SiFive/freedom-e-sdk-v21.11.00.00/freedom-metal/src/drivers/riscv_cpu.c:405
        break;
20102caa:	a825                	j	20102ce2 <__metal_local_interrupt_enable+0xae>
C:/VSD/FreedomStudio-3-1-1-x86_64-w64-mingw32/FreedomStudio-3-1-1/SiFive/freedom-e-sdk-v21.11.00.00/freedom-metal/src/drivers/riscv_cpu.c:407
    case METAL_INTERRUPT_ID_EXT:
        if (enable) {
20102cac:	fd442783          	lw	a5,-44(s0)
20102cb0:	c781                	beqz	a5,20102cb8 <__metal_local_interrupt_enable+0x84>
C:/VSD/FreedomStudio-3-1-1-x86_64-w64-mingw32/FreedomStudio-3-1-1/SiFive/freedom-e-sdk-v21.11.00.00/freedom-metal/src/drivers/riscv_cpu.c:408
            __metal_interrupt_external_enable();
20102cb2:	fadfe0ef          	jal	20101c5e <__metal_interrupt_external_enable>
C:/VSD/FreedomStudio-3-1-1-x86_64-w64-mingw32/FreedomStudio-3-1-1/SiFive/freedom-e-sdk-v21.11.00.00/freedom-metal/src/drivers/riscv_cpu.c:412
        } else {
            __metal_interrupt_external_disable();
        }
        break;
20102cb6:	a035                	j	20102ce2 <__metal_local_interrupt_enable+0xae>
C:/VSD/FreedomStudio-3-1-1-x86_64-w64-mingw32/FreedomStudio-3-1-1/SiFive/freedom-e-sdk-v21.11.00.00/freedom-metal/src/drivers/riscv_cpu.c:410
            __metal_interrupt_external_disable();
20102cb8:	fc3fe0ef          	jal	20101c7a <__metal_interrupt_external_disable>
C:/VSD/FreedomStudio-3-1-1-x86_64-w64-mingw32/FreedomStudio-3-1-1/SiFive/freedom-e-sdk-v21.11.00.00/freedom-metal/src/drivers/riscv_cpu.c:412
        break;
20102cbc:	a01d                	j	20102ce2 <__metal_local_interrupt_enable+0xae>
C:/VSD/FreedomStudio-3-1-1-x86_64-w64-mingw32/FreedomStudio-3-1-1/SiFive/freedom-e-sdk-v21.11.00.00/freedom-metal/src/drivers/riscv_cpu.c:429
    case METAL_INTERRUPT_ID_LC11:
    case METAL_INTERRUPT_ID_LC12:
    case METAL_INTERRUPT_ID_LC13:
    case METAL_INTERRUPT_ID_LC14:
    case METAL_INTERRUPT_ID_LC15:
        if (enable) {
20102cbe:	fd442783          	lw	a5,-44(s0)
20102cc2:	c799                	beqz	a5,20102cd0 <__metal_local_interrupt_enable+0x9c>
C:/VSD/FreedomStudio-3-1-1-x86_64-w64-mingw32/FreedomStudio-3-1-1/SiFive/freedom-e-sdk-v21.11.00.00/freedom-metal/src/drivers/riscv_cpu.c:430
            __metal_interrupt_local_enable(id);
20102cc4:	fd842783          	lw	a5,-40(s0)
20102cc8:	853e                	mv	a0,a5
20102cca:	fcdfe0ef          	jal	20101c96 <__metal_interrupt_local_enable>
C:/VSD/FreedomStudio-3-1-1-x86_64-w64-mingw32/FreedomStudio-3-1-1/SiFive/freedom-e-sdk-v21.11.00.00/freedom-metal/src/drivers/riscv_cpu.c:434
        } else {
            __metal_interrupt_local_disable(id);
        }
        break;
20102cce:	a811                	j	20102ce2 <__metal_local_interrupt_enable+0xae>
C:/VSD/FreedomStudio-3-1-1-x86_64-w64-mingw32/FreedomStudio-3-1-1/SiFive/freedom-e-sdk-v21.11.00.00/freedom-metal/src/drivers/riscv_cpu.c:432
            __metal_interrupt_local_disable(id);
20102cd0:	fd842783          	lw	a5,-40(s0)
20102cd4:	853e                	mv	a0,a5
20102cd6:	fedfe0ef          	jal	20101cc2 <__metal_interrupt_local_disable>
C:/VSD/FreedomStudio-3-1-1-x86_64-w64-mingw32/FreedomStudio-3-1-1/SiFive/freedom-e-sdk-v21.11.00.00/freedom-metal/src/drivers/riscv_cpu.c:434
        break;
20102cda:	a021                	j	20102ce2 <__metal_local_interrupt_enable+0xae>
C:/VSD/FreedomStudio-3-1-1-x86_64-w64-mingw32/FreedomStudio-3-1-1/SiFive/freedom-e-sdk-v21.11.00.00/freedom-metal/src/drivers/riscv_cpu.c:436
    default:
        rc = -1;
20102cdc:	57fd                	li	a5,-1
20102cde:	fef42623          	sw	a5,-20(s0)
C:/VSD/FreedomStudio-3-1-1-x86_64-w64-mingw32/FreedomStudio-3-1-1/SiFive/freedom-e-sdk-v21.11.00.00/freedom-metal/src/drivers/riscv_cpu.c:438
    }
    return rc;
20102ce2:	fec42783          	lw	a5,-20(s0)
C:/VSD/FreedomStudio-3-1-1-x86_64-w64-mingw32/FreedomStudio-3-1-1/SiFive/freedom-e-sdk-v21.11.00.00/freedom-metal/src/drivers/riscv_cpu.c:439
}
20102ce6:	853e                	mv	a0,a5
20102ce8:	50b2                	lw	ra,44(sp)
20102cea:	5422                	lw	s0,40(sp)
20102cec:	6145                	add	sp,sp,48
20102cee:	8082                	ret

20102cf0 <__metal_exception_register>:
__metal_exception_register():
C:/VSD/FreedomStudio-3-1-1-x86_64-w64-mingw32/FreedomStudio-3-1-1/SiFive/freedom-e-sdk-v21.11.00.00/freedom-metal/src/drivers/riscv_cpu.c:442

int __metal_exception_register(struct metal_interrupt *controller, int ecode,
                               metal_exception_handler_t isr) {
20102cf0:	7179                	add	sp,sp,-48
20102cf2:	d622                	sw	s0,44(sp)
20102cf4:	1800                	add	s0,sp,48
20102cf6:	fca42e23          	sw	a0,-36(s0)
20102cfa:	fcb42c23          	sw	a1,-40(s0)
20102cfe:	fcc42a23          	sw	a2,-44(s0)
C:/VSD/FreedomStudio-3-1-1-x86_64-w64-mingw32/FreedomStudio-3-1-1/SiFive/freedom-e-sdk-v21.11.00.00/freedom-metal/src/drivers/riscv_cpu.c:443
    struct __metal_driver_riscv_cpu_intc *intc = (void *)(controller);
20102d02:	fdc42783          	lw	a5,-36(s0)
20102d06:	fef42623          	sw	a5,-20(s0)
C:/VSD/FreedomStudio-3-1-1-x86_64-w64-mingw32/FreedomStudio-3-1-1/SiFive/freedom-e-sdk-v21.11.00.00/freedom-metal/src/drivers/riscv_cpu.c:445

    if ((ecode < METAL_MAX_EXCEPTION_CODE) && isr) {
20102d0a:	fd842703          	lw	a4,-40(s0)
20102d0e:	47ad                	li	a5,11
20102d10:	02e7c263          	blt	a5,a4,20102d34 <__metal_exception_register+0x44>
C:/VSD/FreedomStudio-3-1-1-x86_64-w64-mingw32/FreedomStudio-3-1-1/SiFive/freedom-e-sdk-v21.11.00.00/freedom-metal/src/drivers/riscv_cpu.c:445 (discriminator 1)
20102d14:	fd442783          	lw	a5,-44(s0)
20102d18:	cf91                	beqz	a5,20102d34 <__metal_exception_register+0x44>
C:/VSD/FreedomStudio-3-1-1-x86_64-w64-mingw32/FreedomStudio-3-1-1/SiFive/freedom-e-sdk-v21.11.00.00/freedom-metal/src/drivers/riscv_cpu.c:446
        intc->metal_exception_table[ecode] = isr;
20102d1a:	fec42703          	lw	a4,-20(s0)
20102d1e:	fd842783          	lw	a5,-40(s0)
20102d22:	0e878793          	add	a5,a5,232
20102d26:	078a                	sll	a5,a5,0x2
20102d28:	97ba                	add	a5,a5,a4
20102d2a:	fd442703          	lw	a4,-44(s0)
20102d2e:	c398                	sw	a4,0(a5)
C:/VSD/FreedomStudio-3-1-1-x86_64-w64-mingw32/FreedomStudio-3-1-1/SiFive/freedom-e-sdk-v21.11.00.00/freedom-metal/src/drivers/riscv_cpu.c:447
        return 0;
20102d30:	4781                	li	a5,0
20102d32:	a011                	j	20102d36 <__metal_exception_register+0x46>
C:/VSD/FreedomStudio-3-1-1-x86_64-w64-mingw32/FreedomStudio-3-1-1/SiFive/freedom-e-sdk-v21.11.00.00/freedom-metal/src/drivers/riscv_cpu.c:449
    }
    return -1;
20102d34:	57fd                	li	a5,-1
C:/VSD/FreedomStudio-3-1-1-x86_64-w64-mingw32/FreedomStudio-3-1-1/SiFive/freedom-e-sdk-v21.11.00.00/freedom-metal/src/drivers/riscv_cpu.c:450
}
20102d36:	853e                	mv	a0,a5
20102d38:	5432                	lw	s0,44(sp)
20102d3a:	6145                	add	sp,sp,48
20102d3c:	8082                	ret

20102d3e <__metal_driver_riscv_cpu_controller_interrupt_init>:
__metal_driver_riscv_cpu_controller_interrupt_init():
C:/VSD/FreedomStudio-3-1-1-x86_64-w64-mingw32/FreedomStudio-3-1-1/SiFive/freedom-e-sdk-v21.11.00.00/freedom-metal/src/drivers/riscv_cpu.c:454

extern void early_trap_vector(void);
void __metal_driver_riscv_cpu_controller_interrupt_init(
    struct metal_interrupt *controller) {
20102d3e:	7179                	add	sp,sp,-48
20102d40:	d606                	sw	ra,44(sp)
20102d42:	d422                	sw	s0,40(sp)
20102d44:	1800                	add	s0,sp,48
20102d46:	fca42e23          	sw	a0,-36(s0)
C:/VSD/FreedomStudio-3-1-1-x86_64-w64-mingw32/FreedomStudio-3-1-1/SiFive/freedom-e-sdk-v21.11.00.00/freedom-metal/src/drivers/riscv_cpu.c:455
    struct __metal_driver_riscv_cpu_intc *intc = (void *)(controller);
20102d4a:	fdc42783          	lw	a5,-36(s0)
20102d4e:	fef42223          	sw	a5,-28(s0)
C:/VSD/FreedomStudio-3-1-1-x86_64-w64-mingw32/FreedomStudio-3-1-1/SiFive/freedom-e-sdk-v21.11.00.00/freedom-metal/src/drivers/riscv_cpu.c:457

    if (!intc->init_done) {
20102d52:	fe442783          	lw	a5,-28(s0)
20102d56:	43dc                	lw	a5,4(a5)
20102d58:	efdd                	bnez	a5,20102e16 <__metal_driver_riscv_cpu_controller_interrupt_init+0xd8>
C:/VSD/FreedomStudio-3-1-1-x86_64-w64-mingw32/FreedomStudio-3-1-1/SiFive/freedom-e-sdk-v21.11.00.00/freedom-metal/src/drivers/riscv_cpu.c:459
        /* Default to use direct interrupt, setup sw cb table*/
        for (int i = 0; i < METAL_MAX_MI; i++) {
20102d5a:	fe042623          	sw	zero,-20(s0)
20102d5e:	a0b9                	j	20102dac <__metal_driver_riscv_cpu_controller_interrupt_init+0x6e>
C:/VSD/FreedomStudio-3-1-1-x86_64-w64-mingw32/FreedomStudio-3-1-1/SiFive/freedom-e-sdk-v21.11.00.00/freedom-metal/src/drivers/riscv_cpu.c:460
            intc->metal_int_table[i].handler = NULL;
20102d60:	fe442683          	lw	a3,-28(s0)
20102d64:	fec42703          	lw	a4,-20(s0)
20102d68:	87ba                	mv	a5,a4
20102d6a:	0786                	sll	a5,a5,0x1
20102d6c:	97ba                	add	a5,a5,a4
20102d6e:	078e                	sll	a5,a5,0x3
20102d70:	97b6                	add	a5,a5,a3
20102d72:	0807a823          	sw	zero,144(a5)
C:/VSD/FreedomStudio-3-1-1-x86_64-w64-mingw32/FreedomStudio-3-1-1/SiFive/freedom-e-sdk-v21.11.00.00/freedom-metal/src/drivers/riscv_cpu.c:461
            intc->metal_int_table[i].sub_int = NULL;
20102d76:	fe442683          	lw	a3,-28(s0)
20102d7a:	fec42703          	lw	a4,-20(s0)
20102d7e:	87ba                	mv	a5,a4
20102d80:	0786                	sll	a5,a5,0x1
20102d82:	97ba                	add	a5,a5,a4
20102d84:	078e                	sll	a5,a5,0x3
20102d86:	97b6                	add	a5,a5,a3
20102d88:	0807aa23          	sw	zero,148(a5)
C:/VSD/FreedomStudio-3-1-1-x86_64-w64-mingw32/FreedomStudio-3-1-1/SiFive/freedom-e-sdk-v21.11.00.00/freedom-metal/src/drivers/riscv_cpu.c:462
            intc->metal_int_table[i].exint_data = NULL;
20102d8c:	fe442683          	lw	a3,-28(s0)
20102d90:	fec42703          	lw	a4,-20(s0)
20102d94:	87ba                	mv	a5,a4
20102d96:	0786                	sll	a5,a5,0x1
20102d98:	97ba                	add	a5,a5,a4
20102d9a:	078e                	sll	a5,a5,0x3
20102d9c:	97b6                	add	a5,a5,a3
20102d9e:	0807ac23          	sw	zero,152(a5)
C:/VSD/FreedomStudio-3-1-1-x86_64-w64-mingw32/FreedomStudio-3-1-1/SiFive/freedom-e-sdk-v21.11.00.00/freedom-metal/src/drivers/riscv_cpu.c:459 (discriminator 3)
        for (int i = 0; i < METAL_MAX_MI; i++) {
20102da2:	fec42783          	lw	a5,-20(s0)
20102da6:	0785                	add	a5,a5,1
20102da8:	fef42623          	sw	a5,-20(s0)
C:/VSD/FreedomStudio-3-1-1-x86_64-w64-mingw32/FreedomStudio-3-1-1/SiFive/freedom-e-sdk-v21.11.00.00/freedom-metal/src/drivers/riscv_cpu.c:459 (discriminator 1)
20102dac:	fec42703          	lw	a4,-20(s0)
20102db0:	47fd                	li	a5,31
20102db2:	fae7d7e3          	bge	a5,a4,20102d60 <__metal_driver_riscv_cpu_controller_interrupt_init+0x22>
C:/VSD/FreedomStudio-3-1-1-x86_64-w64-mingw32/FreedomStudio-3-1-1/SiFive/freedom-e-sdk-v21.11.00.00/freedom-metal/src/drivers/riscv_cpu.c:465
        }

        for (int i = 0; i < METAL_MAX_ME; i++) {
20102db6:	fe042423          	sw	zero,-24(s0)
20102dba:	a01d                	j	20102de0 <__metal_driver_riscv_cpu_controller_interrupt_init+0xa2>
C:/VSD/FreedomStudio-3-1-1-x86_64-w64-mingw32/FreedomStudio-3-1-1/SiFive/freedom-e-sdk-v21.11.00.00/freedom-metal/src/drivers/riscv_cpu.c:466
            intc->metal_exception_table[i] = __metal_default_exception_handler;
20102dbc:	fe442703          	lw	a4,-28(s0)
20102dc0:	fe842783          	lw	a5,-24(s0)
20102dc4:	0e878793          	add	a5,a5,232
20102dc8:	078a                	sll	a5,a5,0x2
20102dca:	97ba                	add	a5,a5,a4
20102dcc:	20102737          	lui	a4,0x20102
20102dd0:	cee70713          	add	a4,a4,-786 # 20101cee <__metal_default_exception_handler>
20102dd4:	c398                	sw	a4,0(a5)
C:/VSD/FreedomStudio-3-1-1-x86_64-w64-mingw32/FreedomStudio-3-1-1/SiFive/freedom-e-sdk-v21.11.00.00/freedom-metal/src/drivers/riscv_cpu.c:465 (discriminator 3)
        for (int i = 0; i < METAL_MAX_ME; i++) {
20102dd6:	fe842783          	lw	a5,-24(s0)
20102dda:	0785                	add	a5,a5,1
20102ddc:	fef42423          	sw	a5,-24(s0)
C:/VSD/FreedomStudio-3-1-1-x86_64-w64-mingw32/FreedomStudio-3-1-1/SiFive/freedom-e-sdk-v21.11.00.00/freedom-metal/src/drivers/riscv_cpu.c:465 (discriminator 1)
20102de0:	fe842703          	lw	a4,-24(s0)
20102de4:	47ad                	li	a5,11
20102de6:	fce7dbe3          	bge	a5,a4,20102dbc <__metal_driver_riscv_cpu_controller_interrupt_init+0x7e>
C:/VSD/FreedomStudio-3-1-1-x86_64-w64-mingw32/FreedomStudio-3-1-1/SiFive/freedom-e-sdk-v21.11.00.00/freedom-metal/src/drivers/riscv_cpu.c:475
         * Set the real trap handler if the value of mtvec is equal to
         * early_trap_vector. If mtvec is not equal to early_trap_vector,
         * that means user has own trap handler, then we don't overwrite it.
         */
        uintptr_t mtvec;
        __asm__ volatile("csrr %0, mtvec" : "=r"(mtvec));
20102dea:	305027f3          	csrr	a5,mtvec
20102dee:	fef42023          	sw	a5,-32(s0)
C:/VSD/FreedomStudio-3-1-1-x86_64-w64-mingw32/FreedomStudio-3-1-1/SiFive/freedom-e-sdk-v21.11.00.00/freedom-metal/src/drivers/riscv_cpu.c:476
        if (mtvec == (uintptr_t)&early_trap_vector) {
20102df2:	201007b7          	lui	a5,0x20100
20102df6:	13478793          	add	a5,a5,308 # 20100134 <early_trap_vector>
20102dfa:	fe042703          	lw	a4,-32(s0)
20102dfe:	00f71863          	bne	a4,a5,20102e0e <__metal_driver_riscv_cpu_controller_interrupt_init+0xd0>
C:/VSD/FreedomStudio-3-1-1-x86_64-w64-mingw32/FreedomStudio-3-1-1/SiFive/freedom-e-sdk-v21.11.00.00/freedom-metal/src/drivers/riscv_cpu.c:477
            __metal_controller_interrupt_vector(
20102e02:	201027b7          	lui	a5,0x20102
20102e06:	f8078593          	add	a1,a5,-128 # 20101f80 <__metal_exception_handler>
20102e0a:	4501                	li	a0,0
20102e0c:	3305                	jal	20102b2c <__metal_controller_interrupt_vector>
C:/VSD/FreedomStudio-3-1-1-x86_64-w64-mingw32/FreedomStudio-3-1-1/SiFive/freedom-e-sdk-v21.11.00.00/freedom-metal/src/drivers/riscv_cpu.c:481
                METAL_DIRECT_MODE,
                (void *)(uintptr_t)&__metal_exception_handler);
        }
        intc->init_done = 1;
20102e0e:	fe442783          	lw	a5,-28(s0)
20102e12:	4705                	li	a4,1
20102e14:	c3d8                	sw	a4,4(a5)
C:/VSD/FreedomStudio-3-1-1-x86_64-w64-mingw32/FreedomStudio-3-1-1/SiFive/freedom-e-sdk-v21.11.00.00/freedom-metal/src/drivers/riscv_cpu.c:483
    }
}
20102e16:	0001                	nop
20102e18:	50b2                	lw	ra,44(sp)
20102e1a:	5422                	lw	s0,40(sp)
20102e1c:	6145                	add	sp,sp,48
20102e1e:	8082                	ret

20102e20 <__metal_driver_riscv_cpu_controller_interrupt_register>:
__metal_driver_riscv_cpu_controller_interrupt_register():
C:/VSD/FreedomStudio-3-1-1-x86_64-w64-mingw32/FreedomStudio-3-1-1/SiFive/freedom-e-sdk-v21.11.00.00/freedom-metal/src/drivers/riscv_cpu.c:487

int __metal_driver_riscv_cpu_controller_interrupt_register(
    struct metal_interrupt *controller, int id, metal_interrupt_handler_t isr,
    void *priv) {
20102e20:	7179                	add	sp,sp,-48
20102e22:	d606                	sw	ra,44(sp)
20102e24:	d422                	sw	s0,40(sp)
20102e26:	1800                	add	s0,sp,48
20102e28:	fca42e23          	sw	a0,-36(s0)
20102e2c:	fcb42c23          	sw	a1,-40(s0)
20102e30:	fcc42a23          	sw	a2,-44(s0)
20102e34:	fcd42823          	sw	a3,-48(s0)
C:/VSD/FreedomStudio-3-1-1-x86_64-w64-mingw32/FreedomStudio-3-1-1/SiFive/freedom-e-sdk-v21.11.00.00/freedom-metal/src/drivers/riscv_cpu.c:488
    int rc = 0;
20102e38:	fe042623          	sw	zero,-20(s0)
C:/VSD/FreedomStudio-3-1-1-x86_64-w64-mingw32/FreedomStudio-3-1-1/SiFive/freedom-e-sdk-v21.11.00.00/freedom-metal/src/drivers/riscv_cpu.c:489
    struct __metal_driver_riscv_cpu_intc *intc = (void *)(controller);
20102e3c:	fdc42783          	lw	a5,-36(s0)
20102e40:	fef42423          	sw	a5,-24(s0)
C:/VSD/FreedomStudio-3-1-1-x86_64-w64-mingw32/FreedomStudio-3-1-1/SiFive/freedom-e-sdk-v21.11.00.00/freedom-metal/src/drivers/riscv_cpu.c:491

    if (!__metal_valid_interrupt_id(id)) {
20102e44:	fd842503          	lw	a0,-40(s0)
20102e48:	3b59                	jal	20102bde <__metal_valid_interrupt_id>
20102e4a:	87aa                	mv	a5,a0
C:/VSD/FreedomStudio-3-1-1-x86_64-w64-mingw32/FreedomStudio-3-1-1/SiFive/freedom-e-sdk-v21.11.00.00/freedom-metal/src/drivers/riscv_cpu.c:491 (discriminator 1)
20102e4c:	e399                	bnez	a5,20102e52 <__metal_driver_riscv_cpu_controller_interrupt_register+0x32>
C:/VSD/FreedomStudio-3-1-1-x86_64-w64-mingw32/FreedomStudio-3-1-1/SiFive/freedom-e-sdk-v21.11.00.00/freedom-metal/src/drivers/riscv_cpu.c:492
        return -11;
20102e4e:	57d5                	li	a5,-11
20102e50:	a25d                	j	20102ff6 <__metal_driver_riscv_cpu_controller_interrupt_register+0x1d6>
C:/VSD/FreedomStudio-3-1-1-x86_64-w64-mingw32/FreedomStudio-3-1-1/SiFive/freedom-e-sdk-v21.11.00.00/freedom-metal/src/drivers/riscv_cpu.c:494
    }
    if ((id == METAL_INTERRUPT_ID_BEU) &&
20102e52:	fd842703          	lw	a4,-40(s0)
20102e56:	08000793          	li	a5,128
20102e5a:	00f71763          	bne	a4,a5,20102e68 <__metal_driver_riscv_cpu_controller_interrupt_register+0x48>
C:/VSD/FreedomStudio-3-1-1-x86_64-w64-mingw32/FreedomStudio-3-1-1/SiFive/freedom-e-sdk-v21.11.00.00/freedom-metal/src/drivers/riscv_cpu.c:495
        (__metal_controller_interrupt_vector_mode() != METAL_DIRECT_MODE)) {
20102e5e:	399d                	jal	20102ad4 <__metal_controller_interrupt_vector_mode>
20102e60:	87aa                	mv	a5,a0
C:/VSD/FreedomStudio-3-1-1-x86_64-w64-mingw32/FreedomStudio-3-1-1/SiFive/freedom-e-sdk-v21.11.00.00/freedom-metal/src/drivers/riscv_cpu.c:494 (discriminator 1)
    if ((id == METAL_INTERRUPT_ID_BEU) &&
20102e62:	c399                	beqz	a5,20102e68 <__metal_driver_riscv_cpu_controller_interrupt_register+0x48>
C:/VSD/FreedomStudio-3-1-1-x86_64-w64-mingw32/FreedomStudio-3-1-1/SiFive/freedom-e-sdk-v21.11.00.00/freedom-metal/src/drivers/riscv_cpu.c:498
        /* Only allow registration of the bus error unit interrupt if
         * interrupt vectoring if off */
        return -13;
20102e64:	57cd                	li	a5,-13
20102e66:	aa41                	j	20102ff6 <__metal_driver_riscv_cpu_controller_interrupt_register+0x1d6>
C:/VSD/FreedomStudio-3-1-1-x86_64-w64-mingw32/FreedomStudio-3-1-1/SiFive/freedom-e-sdk-v21.11.00.00/freedom-metal/src/drivers/riscv_cpu.c:501
    }

    if (isr) {
20102e68:	fd442783          	lw	a5,-44(s0)
20102e6c:	cfb9                	beqz	a5,20102eca <__metal_driver_riscv_cpu_controller_interrupt_register+0xaa>
C:/VSD/FreedomStudio-3-1-1-x86_64-w64-mingw32/FreedomStudio-3-1-1/SiFive/freedom-e-sdk-v21.11.00.00/freedom-metal/src/drivers/riscv_cpu.c:502
        if (id == METAL_INTERRUPT_ID_BEU) {
20102e6e:	fd842703          	lw	a4,-40(s0)
20102e72:	08000793          	li	a5,128
20102e76:	00f71f63          	bne	a4,a5,20102e94 <__metal_driver_riscv_cpu_controller_interrupt_register+0x74>
C:/VSD/FreedomStudio-3-1-1-x86_64-w64-mingw32/FreedomStudio-3-1-1/SiFive/freedom-e-sdk-v21.11.00.00/freedom-metal/src/drivers/riscv_cpu.c:503
            intc->metal_int_beu.handler = isr;
20102e7a:	fe842783          	lw	a5,-24(s0)
20102e7e:	fd442703          	lw	a4,-44(s0)
20102e82:	38e7a823          	sw	a4,912(a5)
C:/VSD/FreedomStudio-3-1-1-x86_64-w64-mingw32/FreedomStudio-3-1-1/SiFive/freedom-e-sdk-v21.11.00.00/freedom-metal/src/drivers/riscv_cpu.c:504
            intc->metal_int_beu.exint_data = priv;
20102e86:	fe842783          	lw	a5,-24(s0)
20102e8a:	fd042703          	lw	a4,-48(s0)
20102e8e:	38e7ac23          	sw	a4,920(a5)
20102e92:	a285                	j	20102ff2 <__metal_driver_riscv_cpu_controller_interrupt_register+0x1d2>
C:/VSD/FreedomStudio-3-1-1-x86_64-w64-mingw32/FreedomStudio-3-1-1/SiFive/freedom-e-sdk-v21.11.00.00/freedom-metal/src/drivers/riscv_cpu.c:506
        } else {
            intc->metal_int_table[id].handler = isr;
20102e94:	fe842683          	lw	a3,-24(s0)
20102e98:	fd842703          	lw	a4,-40(s0)
20102e9c:	87ba                	mv	a5,a4
20102e9e:	0786                	sll	a5,a5,0x1
20102ea0:	97ba                	add	a5,a5,a4
20102ea2:	078e                	sll	a5,a5,0x3
20102ea4:	97b6                	add	a5,a5,a3
20102ea6:	fd442703          	lw	a4,-44(s0)
20102eaa:	08e7a823          	sw	a4,144(a5)
C:/VSD/FreedomStudio-3-1-1-x86_64-w64-mingw32/FreedomStudio-3-1-1/SiFive/freedom-e-sdk-v21.11.00.00/freedom-metal/src/drivers/riscv_cpu.c:507
            intc->metal_int_table[id].exint_data = priv;
20102eae:	fe842683          	lw	a3,-24(s0)
20102eb2:	fd842703          	lw	a4,-40(s0)
20102eb6:	87ba                	mv	a5,a4
20102eb8:	0786                	sll	a5,a5,0x1
20102eba:	97ba                	add	a5,a5,a4
20102ebc:	078e                	sll	a5,a5,0x3
20102ebe:	97b6                	add	a5,a5,a3
20102ec0:	fd042703          	lw	a4,-48(s0)
20102ec4:	08e7ac23          	sw	a4,152(a5)
20102ec8:	a22d                	j	20102ff2 <__metal_driver_riscv_cpu_controller_interrupt_register+0x1d2>
C:/VSD/FreedomStudio-3-1-1-x86_64-w64-mingw32/FreedomStudio-3-1-1/SiFive/freedom-e-sdk-v21.11.00.00/freedom-metal/src/drivers/riscv_cpu.c:510
        }
    } else {
        switch (id) {
20102eca:	fd842703          	lw	a4,-40(s0)
20102ece:	08000793          	li	a5,128
20102ed2:	0cf70163          	beq	a4,a5,20102f94 <__metal_driver_riscv_cpu_controller_interrupt_register+0x174>
20102ed6:	fd842703          	lw	a4,-40(s0)
20102eda:	08000793          	li	a5,128
20102ede:	10e7c763          	blt	a5,a4,20102fec <__metal_driver_riscv_cpu_controller_interrupt_register+0x1cc>
20102ee2:	fd842703          	lw	a4,-40(s0)
20102ee6:	47fd                	li	a5,31
20102ee8:	10e7c263          	blt	a5,a4,20102fec <__metal_driver_riscv_cpu_controller_interrupt_register+0x1cc>
20102eec:	fd842703          	lw	a4,-40(s0)
20102ef0:	47c1                	li	a5,16
20102ef2:	0cf75063          	bge	a4,a5,20102fb2 <__metal_driver_riscv_cpu_controller_interrupt_register+0x192>
20102ef6:	fd842703          	lw	a4,-40(s0)
20102efa:	47ad                	li	a5,11
20102efc:	0af70b63          	beq	a4,a5,20102fb2 <__metal_driver_riscv_cpu_controller_interrupt_register+0x192>
20102f00:	fd842703          	lw	a4,-40(s0)
20102f04:	47ad                	li	a5,11
20102f06:	0ee7c363          	blt	a5,a4,20102fec <__metal_driver_riscv_cpu_controller_interrupt_register+0x1cc>
20102f0a:	fd842703          	lw	a4,-40(s0)
20102f0e:	478d                	li	a5,3
20102f10:	00f70863          	beq	a4,a5,20102f20 <__metal_driver_riscv_cpu_controller_interrupt_register+0x100>
20102f14:	fd842703          	lw	a4,-40(s0)
20102f18:	479d                	li	a5,7
20102f1a:	04f70063          	beq	a4,a5,20102f5a <__metal_driver_riscv_cpu_controller_interrupt_register+0x13a>
20102f1e:	a0f9                	j	20102fec <__metal_driver_riscv_cpu_controller_interrupt_register+0x1cc>
C:/VSD/FreedomStudio-3-1-1-x86_64-w64-mingw32/FreedomStudio-3-1-1/SiFive/freedom-e-sdk-v21.11.00.00/freedom-metal/src/drivers/riscv_cpu.c:512
        case METAL_INTERRUPT_ID_SW:
            intc->metal_int_table[id].handler = __metal_default_sw_handler;
20102f20:	fe842683          	lw	a3,-24(s0)
20102f24:	fd842703          	lw	a4,-40(s0)
20102f28:	87ba                	mv	a5,a4
20102f2a:	0786                	sll	a5,a5,0x1
20102f2c:	97ba                	add	a5,a5,a4
20102f2e:	078e                	sll	a5,a5,0x3
20102f30:	97b6                	add	a5,a5,a3
20102f32:	20102737          	lui	a4,0x20102
20102f36:	dde70713          	add	a4,a4,-546 # 20101dde <__metal_default_sw_handler>
20102f3a:	08e7a823          	sw	a4,144(a5)
C:/VSD/FreedomStudio-3-1-1-x86_64-w64-mingw32/FreedomStudio-3-1-1/SiFive/freedom-e-sdk-v21.11.00.00/freedom-metal/src/drivers/riscv_cpu.c:513
            intc->metal_int_table[id].sub_int = priv;
20102f3e:	fe842683          	lw	a3,-24(s0)
20102f42:	fd842703          	lw	a4,-40(s0)
20102f46:	87ba                	mv	a5,a4
20102f48:	0786                	sll	a5,a5,0x1
20102f4a:	97ba                	add	a5,a5,a4
20102f4c:	078e                	sll	a5,a5,0x3
20102f4e:	97b6                	add	a5,a5,a3
20102f50:	fd042703          	lw	a4,-48(s0)
20102f54:	08e7aa23          	sw	a4,148(a5)
C:/VSD/FreedomStudio-3-1-1-x86_64-w64-mingw32/FreedomStudio-3-1-1/SiFive/freedom-e-sdk-v21.11.00.00/freedom-metal/src/drivers/riscv_cpu.c:514
            break;
20102f58:	a869                	j	20102ff2 <__metal_driver_riscv_cpu_controller_interrupt_register+0x1d2>
C:/VSD/FreedomStudio-3-1-1-x86_64-w64-mingw32/FreedomStudio-3-1-1/SiFive/freedom-e-sdk-v21.11.00.00/freedom-metal/src/drivers/riscv_cpu.c:516
        case METAL_INTERRUPT_ID_TMR:
            intc->metal_int_table[id].handler = __metal_default_timer_handler;
20102f5a:	fe842683          	lw	a3,-24(s0)
20102f5e:	fd842703          	lw	a4,-40(s0)
20102f62:	87ba                	mv	a5,a4
20102f64:	0786                	sll	a5,a5,0x1
20102f66:	97ba                	add	a5,a5,a4
20102f68:	078e                	sll	a5,a5,0x3
20102f6a:	97b6                	add	a5,a5,a3
20102f6c:	20102737          	lui	a4,0x20102
20102f70:	eee70713          	add	a4,a4,-274 # 20101eee <__metal_default_timer_handler>
20102f74:	08e7a823          	sw	a4,144(a5)
C:/VSD/FreedomStudio-3-1-1-x86_64-w64-mingw32/FreedomStudio-3-1-1/SiFive/freedom-e-sdk-v21.11.00.00/freedom-metal/src/drivers/riscv_cpu.c:517
            intc->metal_int_table[id].sub_int = priv;
20102f78:	fe842683          	lw	a3,-24(s0)
20102f7c:	fd842703          	lw	a4,-40(s0)
20102f80:	87ba                	mv	a5,a4
20102f82:	0786                	sll	a5,a5,0x1
20102f84:	97ba                	add	a5,a5,a4
20102f86:	078e                	sll	a5,a5,0x3
20102f88:	97b6                	add	a5,a5,a3
20102f8a:	fd042703          	lw	a4,-48(s0)
20102f8e:	08e7aa23          	sw	a4,148(a5)
C:/VSD/FreedomStudio-3-1-1-x86_64-w64-mingw32/FreedomStudio-3-1-1/SiFive/freedom-e-sdk-v21.11.00.00/freedom-metal/src/drivers/riscv_cpu.c:518
            break;
20102f92:	a085                	j	20102ff2 <__metal_driver_riscv_cpu_controller_interrupt_register+0x1d2>
C:/VSD/FreedomStudio-3-1-1-x86_64-w64-mingw32/FreedomStudio-3-1-1/SiFive/freedom-e-sdk-v21.11.00.00/freedom-metal/src/drivers/riscv_cpu.c:520
        case METAL_INTERRUPT_ID_BEU:
            intc->metal_int_beu.handler = __metal_default_beu_handler;
20102f94:	fe842783          	lw	a5,-24(s0)
20102f98:	20102737          	lui	a4,0x20102
20102f9c:	ed870713          	add	a4,a4,-296 # 20101ed8 <__metal_default_beu_handler>
20102fa0:	38e7a823          	sw	a4,912(a5)
C:/VSD/FreedomStudio-3-1-1-x86_64-w64-mingw32/FreedomStudio-3-1-1/SiFive/freedom-e-sdk-v21.11.00.00/freedom-metal/src/drivers/riscv_cpu.c:521
            intc->metal_int_beu.exint_data = priv;
20102fa4:	fe842783          	lw	a5,-24(s0)
20102fa8:	fd042703          	lw	a4,-48(s0)
20102fac:	38e7ac23          	sw	a4,920(a5)
C:/VSD/FreedomStudio-3-1-1-x86_64-w64-mingw32/FreedomStudio-3-1-1/SiFive/freedom-e-sdk-v21.11.00.00/freedom-metal/src/drivers/riscv_cpu.c:522
            break;
20102fb0:	a089                	j	20102ff2 <__metal_driver_riscv_cpu_controller_interrupt_register+0x1d2>
C:/VSD/FreedomStudio-3-1-1-x86_64-w64-mingw32/FreedomStudio-3-1-1/SiFive/freedom-e-sdk-v21.11.00.00/freedom-metal/src/drivers/riscv_cpu.c:540
        case METAL_INTERRUPT_ID_LC11:
        case METAL_INTERRUPT_ID_LC12:
        case METAL_INTERRUPT_ID_LC13:
        case METAL_INTERRUPT_ID_LC14:
        case METAL_INTERRUPT_ID_LC15:
            intc->metal_int_table[id].handler =
20102fb2:	fe842683          	lw	a3,-24(s0)
20102fb6:	fd842703          	lw	a4,-40(s0)
20102fba:	87ba                	mv	a5,a4
20102fbc:	0786                	sll	a5,a5,0x1
20102fbe:	97ba                	add	a5,a5,a4
20102fc0:	078e                	sll	a5,a5,0x3
20102fc2:	97b6                	add	a5,a5,a3
20102fc4:	20102737          	lui	a4,0x20102
20102fc8:	d0670713          	add	a4,a4,-762 # 20101d06 <__metal_default_interrupt_handler>
20102fcc:	08e7a823          	sw	a4,144(a5)
C:/VSD/FreedomStudio-3-1-1-x86_64-w64-mingw32/FreedomStudio-3-1-1/SiFive/freedom-e-sdk-v21.11.00.00/freedom-metal/src/drivers/riscv_cpu.c:542
                __metal_default_interrupt_handler;
            intc->metal_int_table[id].sub_int = priv;
20102fd0:	fe842683          	lw	a3,-24(s0)
20102fd4:	fd842703          	lw	a4,-40(s0)
20102fd8:	87ba                	mv	a5,a4
20102fda:	0786                	sll	a5,a5,0x1
20102fdc:	97ba                	add	a5,a5,a4
20102fde:	078e                	sll	a5,a5,0x3
20102fe0:	97b6                	add	a5,a5,a3
20102fe2:	fd042703          	lw	a4,-48(s0)
20102fe6:	08e7aa23          	sw	a4,148(a5)
C:/VSD/FreedomStudio-3-1-1-x86_64-w64-mingw32/FreedomStudio-3-1-1/SiFive/freedom-e-sdk-v21.11.00.00/freedom-metal/src/drivers/riscv_cpu.c:543
            break;
20102fea:	a021                	j	20102ff2 <__metal_driver_riscv_cpu_controller_interrupt_register+0x1d2>
C:/VSD/FreedomStudio-3-1-1-x86_64-w64-mingw32/FreedomStudio-3-1-1/SiFive/freedom-e-sdk-v21.11.00.00/freedom-metal/src/drivers/riscv_cpu.c:545
        default:
            rc = -12;
20102fec:	57d1                	li	a5,-12
20102fee:	fef42623          	sw	a5,-20(s0)
C:/VSD/FreedomStudio-3-1-1-x86_64-w64-mingw32/FreedomStudio-3-1-1/SiFive/freedom-e-sdk-v21.11.00.00/freedom-metal/src/drivers/riscv_cpu.c:548
        }
    }
    return rc;
20102ff2:	fec42783          	lw	a5,-20(s0)
C:/VSD/FreedomStudio-3-1-1-x86_64-w64-mingw32/FreedomStudio-3-1-1/SiFive/freedom-e-sdk-v21.11.00.00/freedom-metal/src/drivers/riscv_cpu.c:549
}
20102ff6:	853e                	mv	a0,a5
20102ff8:	50b2                	lw	ra,44(sp)
20102ffa:	5422                	lw	s0,40(sp)
20102ffc:	6145                	add	sp,sp,48
20102ffe:	8082                	ret

20103000 <__metal_driver_riscv_cpu_controller_interrupt_enable>:
__metal_driver_riscv_cpu_controller_interrupt_enable():
C:/VSD/FreedomStudio-3-1-1-x86_64-w64-mingw32/FreedomStudio-3-1-1/SiFive/freedom-e-sdk-v21.11.00.00/freedom-metal/src/drivers/riscv_cpu.c:552

int __metal_driver_riscv_cpu_controller_interrupt_enable(
    struct metal_interrupt *controller, int id) {
20103000:	1101                	add	sp,sp,-32
20103002:	ce06                	sw	ra,28(sp)
20103004:	cc22                	sw	s0,24(sp)
20103006:	1000                	add	s0,sp,32
20103008:	fea42623          	sw	a0,-20(s0)
2010300c:	feb42423          	sw	a1,-24(s0)
C:/VSD/FreedomStudio-3-1-1-x86_64-w64-mingw32/FreedomStudio-3-1-1/SiFive/freedom-e-sdk-v21.11.00.00/freedom-metal/src/drivers/riscv_cpu.c:553
    return __metal_local_interrupt_enable(controller, id, METAL_ENABLE);
20103010:	fe842783          	lw	a5,-24(s0)
20103014:	4605                	li	a2,1
20103016:	85be                	mv	a1,a5
20103018:	fec42503          	lw	a0,-20(s0)
2010301c:	3921                	jal	20102c34 <__metal_local_interrupt_enable>
2010301e:	87aa                	mv	a5,a0
C:/VSD/FreedomStudio-3-1-1-x86_64-w64-mingw32/FreedomStudio-3-1-1/SiFive/freedom-e-sdk-v21.11.00.00/freedom-metal/src/drivers/riscv_cpu.c:554
}
20103020:	853e                	mv	a0,a5
20103022:	40f2                	lw	ra,28(sp)
20103024:	4462                	lw	s0,24(sp)
20103026:	6105                	add	sp,sp,32
20103028:	8082                	ret

2010302a <__metal_driver_riscv_cpu_controller_interrupt_disable>:
__metal_driver_riscv_cpu_controller_interrupt_disable():
C:/VSD/FreedomStudio-3-1-1-x86_64-w64-mingw32/FreedomStudio-3-1-1/SiFive/freedom-e-sdk-v21.11.00.00/freedom-metal/src/drivers/riscv_cpu.c:557

int __metal_driver_riscv_cpu_controller_interrupt_disable(
    struct metal_interrupt *controller, int id) {
2010302a:	1101                	add	sp,sp,-32
2010302c:	ce06                	sw	ra,28(sp)
2010302e:	cc22                	sw	s0,24(sp)
20103030:	1000                	add	s0,sp,32
20103032:	fea42623          	sw	a0,-20(s0)
20103036:	feb42423          	sw	a1,-24(s0)
C:/VSD/FreedomStudio-3-1-1-x86_64-w64-mingw32/FreedomStudio-3-1-1/SiFive/freedom-e-sdk-v21.11.00.00/freedom-metal/src/drivers/riscv_cpu.c:558
    return __metal_local_interrupt_enable(controller, id, METAL_DISABLE);
2010303a:	fe842783          	lw	a5,-24(s0)
2010303e:	4601                	li	a2,0
20103040:	85be                	mv	a1,a5
20103042:	fec42503          	lw	a0,-20(s0)
20103046:	36fd                	jal	20102c34 <__metal_local_interrupt_enable>
20103048:	87aa                	mv	a5,a0
C:/VSD/FreedomStudio-3-1-1-x86_64-w64-mingw32/FreedomStudio-3-1-1/SiFive/freedom-e-sdk-v21.11.00.00/freedom-metal/src/drivers/riscv_cpu.c:559
}
2010304a:	853e                	mv	a0,a5
2010304c:	40f2                	lw	ra,28(sp)
2010304e:	4462                	lw	s0,24(sp)
20103050:	6105                	add	sp,sp,32
20103052:	8082                	ret

20103054 <__metal_driver_riscv_cpu_controller_get_vector_mode>:
__metal_driver_riscv_cpu_controller_get_vector_mode():
C:/VSD/FreedomStudio-3-1-1-x86_64-w64-mingw32/FreedomStudio-3-1-1/SiFive/freedom-e-sdk-v21.11.00.00/freedom-metal/src/drivers/riscv_cpu.c:591
    }
    return -1;
}

metal_vector_mode __metal_driver_riscv_cpu_controller_get_vector_mode(
    struct metal_interrupt *controller) {
20103054:	1101                	add	sp,sp,-32
20103056:	ce06                	sw	ra,28(sp)
20103058:	cc22                	sw	s0,24(sp)
2010305a:	1000                	add	s0,sp,32
2010305c:	fea42623          	sw	a0,-20(s0)
C:/VSD/FreedomStudio-3-1-1-x86_64-w64-mingw32/FreedomStudio-3-1-1/SiFive/freedom-e-sdk-v21.11.00.00/freedom-metal/src/drivers/riscv_cpu.c:592
    return __metal_controller_interrupt_vector_mode();
20103060:	3c95                	jal	20102ad4 <__metal_controller_interrupt_vector_mode>
20103062:	87aa                	mv	a5,a0
C:/VSD/FreedomStudio-3-1-1-x86_64-w64-mingw32/FreedomStudio-3-1-1/SiFive/freedom-e-sdk-v21.11.00.00/freedom-metal/src/drivers/riscv_cpu.c:593
}
20103064:	853e                	mv	a0,a5
20103066:	40f2                	lw	ra,28(sp)
20103068:	4462                	lw	s0,24(sp)
2010306a:	6105                	add	sp,sp,32
2010306c:	8082                	ret

2010306e <__metal_driver_riscv_cpu_controller_set_vector_mode>:
__metal_driver_riscv_cpu_controller_set_vector_mode():
C:/VSD/FreedomStudio-3-1-1-x86_64-w64-mingw32/FreedomStudio-3-1-1/SiFive/freedom-e-sdk-v21.11.00.00/freedom-metal/src/drivers/riscv_cpu.c:596

int __metal_driver_riscv_cpu_controller_set_vector_mode(
    struct metal_interrupt *controller, metal_vector_mode mode) {
2010306e:	1101                	add	sp,sp,-32
20103070:	ce06                	sw	ra,28(sp)
20103072:	cc22                	sw	s0,24(sp)
20103074:	1000                	add	s0,sp,32
20103076:	fea42623          	sw	a0,-20(s0)
2010307a:	feb42423          	sw	a1,-24(s0)
C:/VSD/FreedomStudio-3-1-1-x86_64-w64-mingw32/FreedomStudio-3-1-1/SiFive/freedom-e-sdk-v21.11.00.00/freedom-metal/src/drivers/riscv_cpu.c:598

    if (mode == METAL_DIRECT_MODE) {
2010307e:	fe842783          	lw	a5,-24(s0)
20103082:	eb91                	bnez	a5,20103096 <__metal_driver_riscv_cpu_controller_set_vector_mode+0x28>
C:/VSD/FreedomStudio-3-1-1-x86_64-w64-mingw32/FreedomStudio-3-1-1/SiFive/freedom-e-sdk-v21.11.00.00/freedom-metal/src/drivers/riscv_cpu.c:599
        __metal_controller_interrupt_vector(
20103084:	201027b7          	lui	a5,0x20102
20103088:	f8078593          	add	a1,a5,-128 # 20101f80 <__metal_exception_handler>
2010308c:	fe842503          	lw	a0,-24(s0)
20103090:	3c71                	jal	20102b2c <__metal_controller_interrupt_vector>
C:/VSD/FreedomStudio-3-1-1-x86_64-w64-mingw32/FreedomStudio-3-1-1/SiFive/freedom-e-sdk-v21.11.00.00/freedom-metal/src/drivers/riscv_cpu.c:601
            mode, (void *)(uintptr_t)&__metal_exception_handler);
        return 0;
20103092:	4781                	li	a5,0
20103094:	a005                	j	201030b4 <__metal_driver_riscv_cpu_controller_set_vector_mode+0x46>
C:/VSD/FreedomStudio-3-1-1-x86_64-w64-mingw32/FreedomStudio-3-1-1/SiFive/freedom-e-sdk-v21.11.00.00/freedom-metal/src/drivers/riscv_cpu.c:603
    }
    if (mode == METAL_VECTOR_MODE) {
20103096:	fe842703          	lw	a4,-24(s0)
2010309a:	4785                	li	a5,1
2010309c:	00f71b63          	bne	a4,a5,201030b2 <__metal_driver_riscv_cpu_controller_set_vector_mode+0x44>
C:/VSD/FreedomStudio-3-1-1-x86_64-w64-mingw32/FreedomStudio-3-1-1/SiFive/freedom-e-sdk-v21.11.00.00/freedom-metal/src/drivers/riscv_cpu.c:604
        __metal_controller_interrupt_vector(
201030a0:	201067b7          	lui	a5,0x20106
201030a4:	88078593          	add	a1,a5,-1920 # 20105880 <__metal_vector_table>
201030a8:	fe842503          	lw	a0,-24(s0)
201030ac:	3441                	jal	20102b2c <__metal_controller_interrupt_vector>
C:/VSD/FreedomStudio-3-1-1-x86_64-w64-mingw32/FreedomStudio-3-1-1/SiFive/freedom-e-sdk-v21.11.00.00/freedom-metal/src/drivers/riscv_cpu.c:606
            mode, (void *)(uintptr_t)__metal_vector_table);
        return 0;
201030ae:	4781                	li	a5,0
201030b0:	a011                	j	201030b4 <__metal_driver_riscv_cpu_controller_set_vector_mode+0x46>
C:/VSD/FreedomStudio-3-1-1-x86_64-w64-mingw32/FreedomStudio-3-1-1/SiFive/freedom-e-sdk-v21.11.00.00/freedom-metal/src/drivers/riscv_cpu.c:608
    }
    return -1;
201030b2:	57fd                	li	a5,-1
C:/VSD/FreedomStudio-3-1-1-x86_64-w64-mingw32/FreedomStudio-3-1-1/SiFive/freedom-e-sdk-v21.11.00.00/freedom-metal/src/drivers/riscv_cpu.c:609
}
201030b4:	853e                	mv	a0,a5
201030b6:	40f2                	lw	ra,28(sp)
201030b8:	4462                	lw	s0,24(sp)
201030ba:	6105                	add	sp,sp,32
201030bc:	8082                	ret

201030be <__metal_driver_riscv_cpu_controller_command_request>:
__metal_driver_riscv_cpu_controller_command_request():
C:/VSD/FreedomStudio-3-1-1-x86_64-w64-mingw32/FreedomStudio-3-1-1/SiFive/freedom-e-sdk-v21.11.00.00/freedom-metal/src/drivers/riscv_cpu.c:612

int __metal_driver_riscv_cpu_controller_command_request(
    struct metal_interrupt *controller, int cmd, void *data) {
201030be:	1101                	add	sp,sp,-32
201030c0:	ce22                	sw	s0,28(sp)
201030c2:	1000                	add	s0,sp,32
201030c4:	fea42623          	sw	a0,-20(s0)
201030c8:	feb42423          	sw	a1,-24(s0)
201030cc:	fec42223          	sw	a2,-28(s0)
C:/VSD/FreedomStudio-3-1-1-x86_64-w64-mingw32/FreedomStudio-3-1-1/SiFive/freedom-e-sdk-v21.11.00.00/freedom-metal/src/drivers/riscv_cpu.c:615
    /* NOP for now, unless local interrupt lines the like of clic, clint, plic
     */
    return 0;
201030d0:	4781                	li	a5,0
C:/VSD/FreedomStudio-3-1-1-x86_64-w64-mingw32/FreedomStudio-3-1-1/SiFive/freedom-e-sdk-v21.11.00.00/freedom-metal/src/drivers/riscv_cpu.c:616
}
201030d2:	853e                	mv	a0,a5
201030d4:	4472                	lw	s0,28(sp)
201030d6:	6105                	add	sp,sp,32
201030d8:	8082                	ret

201030da <__metal_driver_cpu_mcycle_get>:
__metal_driver_cpu_mcycle_get():
C:/VSD/FreedomStudio-3-1-1-x86_64-w64-mingw32/FreedomStudio-3-1-1/SiFive/freedom-e-sdk-v21.11.00.00/freedom-metal/src/drivers/riscv_cpu.c:620

/* CPU driver !!! */

unsigned long long __metal_driver_cpu_mcycle_get(struct metal_cpu *cpu) {
201030da:	7139                	add	sp,sp,-64
201030dc:	de22                	sw	s0,60(sp)
201030de:	0080                	add	s0,sp,64
201030e0:	fca42623          	sw	a0,-52(s0)
C:/VSD/FreedomStudio-3-1-1-x86_64-w64-mingw32/FreedomStudio-3-1-1/SiFive/freedom-e-sdk-v21.11.00.00/freedom-metal/src/drivers/riscv_cpu.c:621
    unsigned long long val = 0;
201030e4:	4501                	li	a0,0
201030e6:	4581                	li	a1,0
201030e8:	fea42423          	sw	a0,-24(s0)
201030ec:	feb42623          	sw	a1,-20(s0)
C:/VSD/FreedomStudio-3-1-1-x86_64-w64-mingw32/FreedomStudio-3-1-1/SiFive/freedom-e-sdk-v21.11.00.00/freedom-metal/src/drivers/riscv_cpu.c:627

#if __riscv_xlen == 32
    unsigned long hi, hi1, lo;

    do {
        __asm__ volatile("csrr %0, mcycleh" : "=r"(hi));
201030f0:	b80025f3          	csrr	a1,mcycleh
201030f4:	feb42223          	sw	a1,-28(s0)
C:/VSD/FreedomStudio-3-1-1-x86_64-w64-mingw32/FreedomStudio-3-1-1/SiFive/freedom-e-sdk-v21.11.00.00/freedom-metal/src/drivers/riscv_cpu.c:628
        __asm__ volatile("csrr %0, mcycle" : "=r"(lo));
201030f8:	b00025f3          	csrr	a1,mcycle
201030fc:	feb42023          	sw	a1,-32(s0)
C:/VSD/FreedomStudio-3-1-1-x86_64-w64-mingw32/FreedomStudio-3-1-1/SiFive/freedom-e-sdk-v21.11.00.00/freedom-metal/src/drivers/riscv_cpu.c:629
        __asm__ volatile("csrr %0, mcycleh" : "=r"(hi1));
20103100:	b80025f3          	csrr	a1,mcycleh
20103104:	fcb42e23          	sw	a1,-36(s0)
C:/VSD/FreedomStudio-3-1-1-x86_64-w64-mingw32/FreedomStudio-3-1-1/SiFive/freedom-e-sdk-v21.11.00.00/freedom-metal/src/drivers/riscv_cpu.c:632 (discriminator 1)
        /* hi != hi1 means mcycle overflow during we get value,
         * so we must retry. */
    } while (hi != hi1);
20103108:	fe442503          	lw	a0,-28(s0)
2010310c:	fdc42583          	lw	a1,-36(s0)
20103110:	feb510e3          	bne	a0,a1,201030f0 <__metal_driver_cpu_mcycle_get+0x16>
C:/VSD/FreedomStudio-3-1-1-x86_64-w64-mingw32/FreedomStudio-3-1-1/SiFive/freedom-e-sdk-v21.11.00.00/freedom-metal/src/drivers/riscv_cpu.c:634

    val = ((unsigned long long)hi << 32) | lo;
20103114:	fe442583          	lw	a1,-28(s0)
20103118:	882e                	mv	a6,a1
2010311a:	4881                	li	a7,0
2010311c:	00081793          	sll	a5,a6,0x0
20103120:	4701                	li	a4,0
20103122:	fe042583          	lw	a1,-32(s0)
20103126:	862e                	mv	a2,a1
20103128:	4681                	li	a3,0
2010312a:	00c765b3          	or	a1,a4,a2
2010312e:	feb42423          	sw	a1,-24(s0)
20103132:	8fd5                	or	a5,a5,a3
20103134:	fef42623          	sw	a5,-20(s0)
C:/VSD/FreedomStudio-3-1-1-x86_64-w64-mingw32/FreedomStudio-3-1-1/SiFive/freedom-e-sdk-v21.11.00.00/freedom-metal/src/drivers/riscv_cpu.c:639
#else
    __asm__ volatile("csrr %0, mcycle" : "=r"(val));
#endif

    return val;
20103138:	fe842703          	lw	a4,-24(s0)
2010313c:	fec42783          	lw	a5,-20(s0)
C:/VSD/FreedomStudio-3-1-1-x86_64-w64-mingw32/FreedomStudio-3-1-1/SiFive/freedom-e-sdk-v21.11.00.00/freedom-metal/src/drivers/riscv_cpu.c:640
}
20103140:	853a                	mv	a0,a4
20103142:	85be                	mv	a1,a5
20103144:	5472                	lw	s0,60(sp)
20103146:	6121                	add	sp,sp,64
20103148:	8082                	ret

2010314a <__metal_driver_cpu_timebase_get>:
__metal_driver_cpu_timebase_get():
C:/VSD/FreedomStudio-3-1-1-x86_64-w64-mingw32/FreedomStudio-3-1-1/SiFive/freedom-e-sdk-v21.11.00.00/freedom-metal/src/drivers/riscv_cpu.c:642

unsigned long long __metal_driver_cpu_timebase_get(struct metal_cpu *cpu) {
2010314a:	7179                	add	sp,sp,-48
2010314c:	d606                	sw	ra,44(sp)
2010314e:	d422                	sw	s0,40(sp)
20103150:	d24a                	sw	s2,36(sp)
20103152:	d04e                	sw	s3,32(sp)
20103154:	1800                	add	s0,sp,48
20103156:	fca42e23          	sw	a0,-36(s0)
C:/VSD/FreedomStudio-3-1-1-x86_64-w64-mingw32/FreedomStudio-3-1-1/SiFive/freedom-e-sdk-v21.11.00.00/freedom-metal/src/drivers/riscv_cpu.c:644
    int timebase;
    if (!cpu) {
2010315a:	fdc42783          	lw	a5,-36(s0)
2010315e:	e781                	bnez	a5,20103166 <__metal_driver_cpu_timebase_get+0x1c>
C:/VSD/FreedomStudio-3-1-1-x86_64-w64-mingw32/FreedomStudio-3-1-1/SiFive/freedom-e-sdk-v21.11.00.00/freedom-metal/src/drivers/riscv_cpu.c:645
        return 0;
20103160:	4901                	li	s2,0
20103162:	4981                	li	s3,0
20103164:	a821                	j	2010317c <__metal_driver_cpu_timebase_get+0x32>
C:/VSD/FreedomStudio-3-1-1-x86_64-w64-mingw32/FreedomStudio-3-1-1/SiFive/freedom-e-sdk-v21.11.00.00/freedom-metal/src/drivers/riscv_cpu.c:648
    }

    timebase = __metal_driver_cpu_timebase((struct metal_cpu *)cpu);
20103166:	fdc42503          	lw	a0,-36(s0)
2010316a:	993fe0ef          	jal	20101afc <__metal_driver_cpu_timebase>
2010316e:	fea42623          	sw	a0,-20(s0)
C:/VSD/FreedomStudio-3-1-1-x86_64-w64-mingw32/FreedomStudio-3-1-1/SiFive/freedom-e-sdk-v21.11.00.00/freedom-metal/src/drivers/riscv_cpu.c:649
    return timebase;
20103172:	fec42783          	lw	a5,-20(s0)
20103176:	893e                	mv	s2,a5
20103178:	87fd                	sra	a5,a5,0x1f
2010317a:	89be                	mv	s3,a5
C:/VSD/FreedomStudio-3-1-1-x86_64-w64-mingw32/FreedomStudio-3-1-1/SiFive/freedom-e-sdk-v21.11.00.00/freedom-metal/src/drivers/riscv_cpu.c:650
}
2010317c:	874a                	mv	a4,s2
2010317e:	87ce                	mv	a5,s3
20103180:	853a                	mv	a0,a4
20103182:	85be                	mv	a1,a5
20103184:	50b2                	lw	ra,44(sp)
20103186:	5422                	lw	s0,40(sp)
20103188:	5912                	lw	s2,36(sp)
2010318a:	5982                	lw	s3,32(sp)
2010318c:	6145                	add	sp,sp,48
2010318e:	8082                	ret

20103190 <__metal_driver_cpu_mtime_get>:
__metal_driver_cpu_mtime_get():
C:/VSD/FreedomStudio-3-1-1-x86_64-w64-mingw32/FreedomStudio-3-1-1/SiFive/freedom-e-sdk-v21.11.00.00/freedom-metal/src/drivers/riscv_cpu.c:652

unsigned long long __metal_driver_cpu_mtime_get(struct metal_cpu *cpu) {
20103190:	7179                	add	sp,sp,-48
20103192:	d606                	sw	ra,44(sp)
20103194:	d422                	sw	s0,40(sp)
20103196:	1800                	add	s0,sp,48
20103198:	fca42e23          	sw	a0,-36(s0)
C:/VSD/FreedomStudio-3-1-1-x86_64-w64-mingw32/FreedomStudio-3-1-1/SiFive/freedom-e-sdk-v21.11.00.00/freedom-metal/src/drivers/riscv_cpu.c:653
    unsigned long long time = 0;
2010319c:	4781                	li	a5,0
2010319e:	4801                	li	a6,0
201031a0:	fef42023          	sw	a5,-32(s0)
201031a4:	ff042223          	sw	a6,-28(s0)
C:/VSD/FreedomStudio-3-1-1-x86_64-w64-mingw32/FreedomStudio-3-1-1/SiFive/freedom-e-sdk-v21.11.00.00/freedom-metal/src/drivers/riscv_cpu.c:657
    struct metal_interrupt *tmr_intc;
    struct __metal_driver_riscv_cpu_intc *intc =
        (struct __metal_driver_riscv_cpu_intc *)
            __metal_driver_cpu_interrupt_controller(cpu);
201031a8:	fdc42503          	lw	a0,-36(s0)
201031ac:	97ffe0ef          	jal	20101b2a <__metal_driver_cpu_interrupt_controller>
201031b0:	fea42623          	sw	a0,-20(s0)
C:/VSD/FreedomStudio-3-1-1-x86_64-w64-mingw32/FreedomStudio-3-1-1/SiFive/freedom-e-sdk-v21.11.00.00/freedom-metal/src/drivers/riscv_cpu.c:659

    if (intc) {
201031b4:	fec42783          	lw	a5,-20(s0)
201031b8:	c78d                	beqz	a5,201031e2 <__metal_driver_cpu_mtime_get+0x52>
C:/VSD/FreedomStudio-3-1-1-x86_64-w64-mingw32/FreedomStudio-3-1-1/SiFive/freedom-e-sdk-v21.11.00.00/freedom-metal/src/drivers/riscv_cpu.c:660
        tmr_intc = intc->metal_int_table[METAL_INTERRUPT_ID_TMR].sub_int;
201031ba:	fec42783          	lw	a5,-20(s0)
201031be:	13c7a783          	lw	a5,316(a5)
201031c2:	fef42423          	sw	a5,-24(s0)
C:/VSD/FreedomStudio-3-1-1-x86_64-w64-mingw32/FreedomStudio-3-1-1/SiFive/freedom-e-sdk-v21.11.00.00/freedom-metal/src/drivers/riscv_cpu.c:661
        if (tmr_intc) {
201031c6:	fe842783          	lw	a5,-24(s0)
201031ca:	cf81                	beqz	a5,201031e2 <__metal_driver_cpu_mtime_get+0x52>
C:/VSD/FreedomStudio-3-1-1-x86_64-w64-mingw32/FreedomStudio-3-1-1/SiFive/freedom-e-sdk-v21.11.00.00/freedom-metal/src/drivers/riscv_cpu.c:662
            tmr_intc->vtable->command_request(tmr_intc, METAL_TIMER_MTIME_GET,
201031cc:	fe842783          	lw	a5,-24(s0)
201031d0:	439c                	lw	a5,0(a5)
201031d2:	47fc                	lw	a5,76(a5)
201031d4:	fe040713          	add	a4,s0,-32
201031d8:	863a                	mv	a2,a4
201031da:	4585                	li	a1,1
201031dc:	fe842503          	lw	a0,-24(s0)
201031e0:	9782                	jalr	a5
C:/VSD/FreedomStudio-3-1-1-x86_64-w64-mingw32/FreedomStudio-3-1-1/SiFive/freedom-e-sdk-v21.11.00.00/freedom-metal/src/drivers/riscv_cpu.c:666
                                              &time);
        }
    }
    return time;
201031e2:	fe042703          	lw	a4,-32(s0)
201031e6:	fe442783          	lw	a5,-28(s0)
C:/VSD/FreedomStudio-3-1-1-x86_64-w64-mingw32/FreedomStudio-3-1-1/SiFive/freedom-e-sdk-v21.11.00.00/freedom-metal/src/drivers/riscv_cpu.c:667
}
201031ea:	853a                	mv	a0,a4
201031ec:	85be                	mv	a1,a5
201031ee:	50b2                	lw	ra,44(sp)
201031f0:	5422                	lw	s0,40(sp)
201031f2:	6145                	add	sp,sp,48
201031f4:	8082                	ret

201031f6 <__metal_driver_cpu_mtimecmp_set>:
__metal_driver_cpu_mtimecmp_set():
C:/VSD/FreedomStudio-3-1-1-x86_64-w64-mingw32/FreedomStudio-3-1-1/SiFive/freedom-e-sdk-v21.11.00.00/freedom-metal/src/drivers/riscv_cpu.c:670

int __metal_driver_cpu_mtimecmp_set(struct metal_cpu *cpu,
                                    unsigned long long time) {
201031f6:	7179                	add	sp,sp,-48
201031f8:	d606                	sw	ra,44(sp)
201031fa:	d422                	sw	s0,40(sp)
201031fc:	d226                	sw	s1,36(sp)
201031fe:	1800                	add	s0,sp,48
20103200:	fca42e23          	sw	a0,-36(s0)
20103204:	fcb42823          	sw	a1,-48(s0)
20103208:	fcc42a23          	sw	a2,-44(s0)
C:/VSD/FreedomStudio-3-1-1-x86_64-w64-mingw32/FreedomStudio-3-1-1/SiFive/freedom-e-sdk-v21.11.00.00/freedom-metal/src/drivers/riscv_cpu.c:671
    int rc = -1;
2010320c:	57fd                	li	a5,-1
2010320e:	fef42623          	sw	a5,-20(s0)
C:/VSD/FreedomStudio-3-1-1-x86_64-w64-mingw32/FreedomStudio-3-1-1/SiFive/freedom-e-sdk-v21.11.00.00/freedom-metal/src/drivers/riscv_cpu.c:675
    struct metal_interrupt *tmr_intc;
    struct __metal_driver_riscv_cpu_intc *intc =
        (struct __metal_driver_riscv_cpu_intc *)
            __metal_driver_cpu_interrupt_controller(cpu);
20103212:	fdc42503          	lw	a0,-36(s0)
20103216:	915fe0ef          	jal	20101b2a <__metal_driver_cpu_interrupt_controller>
2010321a:	fea42423          	sw	a0,-24(s0)
C:/VSD/FreedomStudio-3-1-1-x86_64-w64-mingw32/FreedomStudio-3-1-1/SiFive/freedom-e-sdk-v21.11.00.00/freedom-metal/src/drivers/riscv_cpu.c:677

    if (intc) {
2010321e:	fe842783          	lw	a5,-24(s0)
20103222:	cf8d                	beqz	a5,2010325c <__metal_driver_cpu_mtimecmp_set+0x66>
C:/VSD/FreedomStudio-3-1-1-x86_64-w64-mingw32/FreedomStudio-3-1-1/SiFive/freedom-e-sdk-v21.11.00.00/freedom-metal/src/drivers/riscv_cpu.c:678
        tmr_intc = intc->metal_int_table[METAL_INTERRUPT_ID_TMR].sub_int;
20103224:	fe842783          	lw	a5,-24(s0)
20103228:	13c7a783          	lw	a5,316(a5)
2010322c:	fef42223          	sw	a5,-28(s0)
C:/VSD/FreedomStudio-3-1-1-x86_64-w64-mingw32/FreedomStudio-3-1-1/SiFive/freedom-e-sdk-v21.11.00.00/freedom-metal/src/drivers/riscv_cpu.c:679
        if (tmr_intc) {
20103230:	fe442783          	lw	a5,-28(s0)
20103234:	c785                	beqz	a5,2010325c <__metal_driver_cpu_mtimecmp_set+0x66>
C:/VSD/FreedomStudio-3-1-1-x86_64-w64-mingw32/FreedomStudio-3-1-1/SiFive/freedom-e-sdk-v21.11.00.00/freedom-metal/src/drivers/riscv_cpu.c:680
            rc = tmr_intc->vtable->mtimecmp_set(
20103236:	fe442783          	lw	a5,-28(s0)
2010323a:	439c                	lw	a5,0(a5)
2010323c:	4ba4                	lw	s1,80(a5)
2010323e:	fdc42503          	lw	a0,-36(s0)
20103242:	893fe0ef          	jal	20101ad4 <__metal_driver_cpu_hartid>
20103246:	87aa                	mv	a5,a0
C:/VSD/FreedomStudio-3-1-1-x86_64-w64-mingw32/FreedomStudio-3-1-1/SiFive/freedom-e-sdk-v21.11.00.00/freedom-metal/src/drivers/riscv_cpu.c:680 (discriminator 1)
20103248:	fd042603          	lw	a2,-48(s0)
2010324c:	fd442683          	lw	a3,-44(s0)
20103250:	85be                	mv	a1,a5
20103252:	fe442503          	lw	a0,-28(s0)
20103256:	9482                	jalr	s1
20103258:	fea42623          	sw	a0,-20(s0)
C:/VSD/FreedomStudio-3-1-1-x86_64-w64-mingw32/FreedomStudio-3-1-1/SiFive/freedom-e-sdk-v21.11.00.00/freedom-metal/src/drivers/riscv_cpu.c:684
                tmr_intc, __metal_driver_cpu_hartid(cpu), time);
        }
    }
    return rc;
2010325c:	fec42783          	lw	a5,-20(s0)
C:/VSD/FreedomStudio-3-1-1-x86_64-w64-mingw32/FreedomStudio-3-1-1/SiFive/freedom-e-sdk-v21.11.00.00/freedom-metal/src/drivers/riscv_cpu.c:685
}
20103260:	853e                	mv	a0,a5
20103262:	50b2                	lw	ra,44(sp)
20103264:	5422                	lw	s0,40(sp)
20103266:	5492                	lw	s1,36(sp)
20103268:	6145                	add	sp,sp,48
2010326a:	8082                	ret

2010326c <__metal_driver_cpu_timer_controller_interrupt>:
__metal_driver_cpu_timer_controller_interrupt():
C:/VSD/FreedomStudio-3-1-1-x86_64-w64-mingw32/FreedomStudio-3-1-1/SiFive/freedom-e-sdk-v21.11.00.00/freedom-metal/src/drivers/riscv_cpu.c:688

struct metal_interrupt *
__metal_driver_cpu_timer_controller_interrupt(struct metal_cpu *cpu) {
2010326c:	1101                	add	sp,sp,-32
2010326e:	ce22                	sw	s0,28(sp)
20103270:	1000                	add	s0,sp,32
20103272:	fea42623          	sw	a0,-20(s0)
C:/VSD/FreedomStudio-3-1-1-x86_64-w64-mingw32/FreedomStudio-3-1-1/SiFive/freedom-e-sdk-v21.11.00.00/freedom-metal/src/drivers/riscv_cpu.c:690
#ifdef __METAL_DT_RISCV_CLINT0_HANDLE
    return __METAL_DT_RISCV_CLINT0_HANDLE;
20103276:	800017b7          	lui	a5,0x80001
2010327a:	a1c78793          	add	a5,a5,-1508 # 80000a1c <__metal_dt_clint_2000000>
C:/VSD/FreedomStudio-3-1-1-x86_64-w64-mingw32/FreedomStudio-3-1-1/SiFive/freedom-e-sdk-v21.11.00.00/freedom-metal/src/drivers/riscv_cpu.c:699
#else
#pragma message("There is no interrupt controller for Timer interrupt")
    return NULL;
#endif
#endif
}
2010327e:	853e                	mv	a0,a5
20103280:	4472                	lw	s0,28(sp)
20103282:	6105                	add	sp,sp,32
20103284:	8082                	ret

20103286 <__metal_driver_cpu_get_timer_interrupt_id>:
__metal_driver_cpu_get_timer_interrupt_id():
C:/VSD/FreedomStudio-3-1-1-x86_64-w64-mingw32/FreedomStudio-3-1-1/SiFive/freedom-e-sdk-v21.11.00.00/freedom-metal/src/drivers/riscv_cpu.c:701

int __metal_driver_cpu_get_timer_interrupt_id(struct metal_cpu *cpu) {
20103286:	1101                	add	sp,sp,-32
20103288:	ce22                	sw	s0,28(sp)
2010328a:	1000                	add	s0,sp,32
2010328c:	fea42623          	sw	a0,-20(s0)
C:/VSD/FreedomStudio-3-1-1-x86_64-w64-mingw32/FreedomStudio-3-1-1/SiFive/freedom-e-sdk-v21.11.00.00/freedom-metal/src/drivers/riscv_cpu.c:702
    return METAL_INTERRUPT_ID_TMR;
20103290:	479d                	li	a5,7
C:/VSD/FreedomStudio-3-1-1-x86_64-w64-mingw32/FreedomStudio-3-1-1/SiFive/freedom-e-sdk-v21.11.00.00/freedom-metal/src/drivers/riscv_cpu.c:703
}
20103292:	853e                	mv	a0,a5
20103294:	4472                	lw	s0,28(sp)
20103296:	6105                	add	sp,sp,32
20103298:	8082                	ret

2010329a <__metal_driver_cpu_sw_controller_interrupt>:
__metal_driver_cpu_sw_controller_interrupt():
C:/VSD/FreedomStudio-3-1-1-x86_64-w64-mingw32/FreedomStudio-3-1-1/SiFive/freedom-e-sdk-v21.11.00.00/freedom-metal/src/drivers/riscv_cpu.c:706

struct metal_interrupt *
__metal_driver_cpu_sw_controller_interrupt(struct metal_cpu *cpu) {
2010329a:	1101                	add	sp,sp,-32
2010329c:	ce22                	sw	s0,28(sp)
2010329e:	1000                	add	s0,sp,32
201032a0:	fea42623          	sw	a0,-20(s0)
C:/VSD/FreedomStudio-3-1-1-x86_64-w64-mingw32/FreedomStudio-3-1-1/SiFive/freedom-e-sdk-v21.11.00.00/freedom-metal/src/drivers/riscv_cpu.c:708
#ifdef __METAL_DT_RISCV_CLINT0_HANDLE
    return __METAL_DT_RISCV_CLINT0_HANDLE;
201032a4:	800017b7          	lui	a5,0x80001
201032a8:	a1c78793          	add	a5,a5,-1508 # 80000a1c <__metal_dt_clint_2000000>
C:/VSD/FreedomStudio-3-1-1-x86_64-w64-mingw32/FreedomStudio-3-1-1/SiFive/freedom-e-sdk-v21.11.00.00/freedom-metal/src/drivers/riscv_cpu.c:717
#else
#pragma message("There is no interrupt controller for Software interrupt")
    return NULL;
#endif
#endif
}
201032ac:	853e                	mv	a0,a5
201032ae:	4472                	lw	s0,28(sp)
201032b0:	6105                	add	sp,sp,32
201032b2:	8082                	ret

201032b4 <__metal_driver_cpu_get_sw_interrupt_id>:
__metal_driver_cpu_get_sw_interrupt_id():
C:/VSD/FreedomStudio-3-1-1-x86_64-w64-mingw32/FreedomStudio-3-1-1/SiFive/freedom-e-sdk-v21.11.00.00/freedom-metal/src/drivers/riscv_cpu.c:719

int __metal_driver_cpu_get_sw_interrupt_id(struct metal_cpu *cpu) {
201032b4:	1101                	add	sp,sp,-32
201032b6:	ce22                	sw	s0,28(sp)
201032b8:	1000                	add	s0,sp,32
201032ba:	fea42623          	sw	a0,-20(s0)
C:/VSD/FreedomStudio-3-1-1-x86_64-w64-mingw32/FreedomStudio-3-1-1/SiFive/freedom-e-sdk-v21.11.00.00/freedom-metal/src/drivers/riscv_cpu.c:720
    return METAL_INTERRUPT_ID_SW;
201032be:	478d                	li	a5,3
C:/VSD/FreedomStudio-3-1-1-x86_64-w64-mingw32/FreedomStudio-3-1-1/SiFive/freedom-e-sdk-v21.11.00.00/freedom-metal/src/drivers/riscv_cpu.c:721
}
201032c0:	853e                	mv	a0,a5
201032c2:	4472                	lw	s0,28(sp)
201032c4:	6105                	add	sp,sp,32
201032c6:	8082                	ret

201032c8 <__metal_driver_cpu_set_sw_ipi>:
__metal_driver_cpu_set_sw_ipi():
C:/VSD/FreedomStudio-3-1-1-x86_64-w64-mingw32/FreedomStudio-3-1-1/SiFive/freedom-e-sdk-v21.11.00.00/freedom-metal/src/drivers/riscv_cpu.c:723

int __metal_driver_cpu_set_sw_ipi(struct metal_cpu *cpu, int hartid) {
201032c8:	7179                	add	sp,sp,-48
201032ca:	d606                	sw	ra,44(sp)
201032cc:	d422                	sw	s0,40(sp)
201032ce:	1800                	add	s0,sp,48
201032d0:	fca42e23          	sw	a0,-36(s0)
201032d4:	fcb42c23          	sw	a1,-40(s0)
C:/VSD/FreedomStudio-3-1-1-x86_64-w64-mingw32/FreedomStudio-3-1-1/SiFive/freedom-e-sdk-v21.11.00.00/freedom-metal/src/drivers/riscv_cpu.c:724
    int rc = -1;
201032d8:	57fd                	li	a5,-1
201032da:	fef42623          	sw	a5,-20(s0)
C:/VSD/FreedomStudio-3-1-1-x86_64-w64-mingw32/FreedomStudio-3-1-1/SiFive/freedom-e-sdk-v21.11.00.00/freedom-metal/src/drivers/riscv_cpu.c:728
    struct metal_interrupt *sw_intc;
    struct __metal_driver_riscv_cpu_intc *intc =
        (struct __metal_driver_riscv_cpu_intc *)
            __metal_driver_cpu_interrupt_controller(cpu);
201032de:	fdc42503          	lw	a0,-36(s0)
201032e2:	849fe0ef          	jal	20101b2a <__metal_driver_cpu_interrupt_controller>
201032e6:	fea42423          	sw	a0,-24(s0)
C:/VSD/FreedomStudio-3-1-1-x86_64-w64-mingw32/FreedomStudio-3-1-1/SiFive/freedom-e-sdk-v21.11.00.00/freedom-metal/src/drivers/riscv_cpu.c:730

    if (intc) {
201032ea:	fe842783          	lw	a5,-24(s0)
201032ee:	c79d                	beqz	a5,2010331c <__metal_driver_cpu_set_sw_ipi+0x54>
C:/VSD/FreedomStudio-3-1-1-x86_64-w64-mingw32/FreedomStudio-3-1-1/SiFive/freedom-e-sdk-v21.11.00.00/freedom-metal/src/drivers/riscv_cpu.c:731
        sw_intc = intc->metal_int_table[METAL_INTERRUPT_ID_SW].sub_int;
201032f0:	fe842783          	lw	a5,-24(s0)
201032f4:	0dc7a783          	lw	a5,220(a5)
201032f8:	fef42223          	sw	a5,-28(s0)
C:/VSD/FreedomStudio-3-1-1-x86_64-w64-mingw32/FreedomStudio-3-1-1/SiFive/freedom-e-sdk-v21.11.00.00/freedom-metal/src/drivers/riscv_cpu.c:732
        if (sw_intc) {
201032fc:	fe442783          	lw	a5,-28(s0)
20103300:	cf91                	beqz	a5,2010331c <__metal_driver_cpu_set_sw_ipi+0x54>
C:/VSD/FreedomStudio-3-1-1-x86_64-w64-mingw32/FreedomStudio-3-1-1/SiFive/freedom-e-sdk-v21.11.00.00/freedom-metal/src/drivers/riscv_cpu.c:733
            rc = sw_intc->vtable->command_request(
20103302:	fe442783          	lw	a5,-28(s0)
20103306:	439c                	lw	a5,0(a5)
20103308:	47fc                	lw	a5,76(a5)
2010330a:	fd840713          	add	a4,s0,-40
2010330e:	863a                	mv	a2,a4
20103310:	458d                	li	a1,3
20103312:	fe442503          	lw	a0,-28(s0)
20103316:	9782                	jalr	a5
20103318:	fea42623          	sw	a0,-20(s0)
C:/VSD/FreedomStudio-3-1-1-x86_64-w64-mingw32/FreedomStudio-3-1-1/SiFive/freedom-e-sdk-v21.11.00.00/freedom-metal/src/drivers/riscv_cpu.c:737
                sw_intc, METAL_SOFTWARE_IPI_SET, &hartid);
        }
    }
    return rc;
2010331c:	fec42783          	lw	a5,-20(s0)
C:/VSD/FreedomStudio-3-1-1-x86_64-w64-mingw32/FreedomStudio-3-1-1/SiFive/freedom-e-sdk-v21.11.00.00/freedom-metal/src/drivers/riscv_cpu.c:738
}
20103320:	853e                	mv	a0,a5
20103322:	50b2                	lw	ra,44(sp)
20103324:	5422                	lw	s0,40(sp)
20103326:	6145                	add	sp,sp,48
20103328:	8082                	ret

2010332a <__metal_driver_cpu_clear_sw_ipi>:
__metal_driver_cpu_clear_sw_ipi():
C:/VSD/FreedomStudio-3-1-1-x86_64-w64-mingw32/FreedomStudio-3-1-1/SiFive/freedom-e-sdk-v21.11.00.00/freedom-metal/src/drivers/riscv_cpu.c:740

int __metal_driver_cpu_clear_sw_ipi(struct metal_cpu *cpu, int hartid) {
2010332a:	7179                	add	sp,sp,-48
2010332c:	d606                	sw	ra,44(sp)
2010332e:	d422                	sw	s0,40(sp)
20103330:	1800                	add	s0,sp,48
20103332:	fca42e23          	sw	a0,-36(s0)
20103336:	fcb42c23          	sw	a1,-40(s0)
C:/VSD/FreedomStudio-3-1-1-x86_64-w64-mingw32/FreedomStudio-3-1-1/SiFive/freedom-e-sdk-v21.11.00.00/freedom-metal/src/drivers/riscv_cpu.c:741
    int rc = -1;
2010333a:	57fd                	li	a5,-1
2010333c:	fef42623          	sw	a5,-20(s0)
C:/VSD/FreedomStudio-3-1-1-x86_64-w64-mingw32/FreedomStudio-3-1-1/SiFive/freedom-e-sdk-v21.11.00.00/freedom-metal/src/drivers/riscv_cpu.c:745
    struct metal_interrupt *sw_intc;
    struct __metal_driver_riscv_cpu_intc *intc =
        (struct __metal_driver_riscv_cpu_intc *)
            __metal_driver_cpu_interrupt_controller(cpu);
20103340:	fdc42503          	lw	a0,-36(s0)
20103344:	fe6fe0ef          	jal	20101b2a <__metal_driver_cpu_interrupt_controller>
20103348:	fea42423          	sw	a0,-24(s0)
C:/VSD/FreedomStudio-3-1-1-x86_64-w64-mingw32/FreedomStudio-3-1-1/SiFive/freedom-e-sdk-v21.11.00.00/freedom-metal/src/drivers/riscv_cpu.c:747

    if (intc) {
2010334c:	fe842783          	lw	a5,-24(s0)
20103350:	c79d                	beqz	a5,2010337e <__metal_driver_cpu_clear_sw_ipi+0x54>
C:/VSD/FreedomStudio-3-1-1-x86_64-w64-mingw32/FreedomStudio-3-1-1/SiFive/freedom-e-sdk-v21.11.00.00/freedom-metal/src/drivers/riscv_cpu.c:748
        sw_intc = intc->metal_int_table[METAL_INTERRUPT_ID_SW].sub_int;
20103352:	fe842783          	lw	a5,-24(s0)
20103356:	0dc7a783          	lw	a5,220(a5)
2010335a:	fef42223          	sw	a5,-28(s0)
C:/VSD/FreedomStudio-3-1-1-x86_64-w64-mingw32/FreedomStudio-3-1-1/SiFive/freedom-e-sdk-v21.11.00.00/freedom-metal/src/drivers/riscv_cpu.c:749
        if (sw_intc) {
2010335e:	fe442783          	lw	a5,-28(s0)
20103362:	cf91                	beqz	a5,2010337e <__metal_driver_cpu_clear_sw_ipi+0x54>
C:/VSD/FreedomStudio-3-1-1-x86_64-w64-mingw32/FreedomStudio-3-1-1/SiFive/freedom-e-sdk-v21.11.00.00/freedom-metal/src/drivers/riscv_cpu.c:750
            rc = sw_intc->vtable->command_request(
20103364:	fe442783          	lw	a5,-28(s0)
20103368:	439c                	lw	a5,0(a5)
2010336a:	47fc                	lw	a5,76(a5)
2010336c:	fd840713          	add	a4,s0,-40
20103370:	863a                	mv	a2,a4
20103372:	4589                	li	a1,2
20103374:	fe442503          	lw	a0,-28(s0)
20103378:	9782                	jalr	a5
2010337a:	fea42623          	sw	a0,-20(s0)
C:/VSD/FreedomStudio-3-1-1-x86_64-w64-mingw32/FreedomStudio-3-1-1/SiFive/freedom-e-sdk-v21.11.00.00/freedom-metal/src/drivers/riscv_cpu.c:754
                sw_intc, METAL_SOFTWARE_IPI_CLEAR, &hartid);
        }
    }
    return rc;
2010337e:	fec42783          	lw	a5,-20(s0)
C:/VSD/FreedomStudio-3-1-1-x86_64-w64-mingw32/FreedomStudio-3-1-1/SiFive/freedom-e-sdk-v21.11.00.00/freedom-metal/src/drivers/riscv_cpu.c:755
}
20103382:	853e                	mv	a0,a5
20103384:	50b2                	lw	ra,44(sp)
20103386:	5422                	lw	s0,40(sp)
20103388:	6145                	add	sp,sp,48
2010338a:	8082                	ret

2010338c <__metal_driver_cpu_get_msip>:
__metal_driver_cpu_get_msip():
C:/VSD/FreedomStudio-3-1-1-x86_64-w64-mingw32/FreedomStudio-3-1-1/SiFive/freedom-e-sdk-v21.11.00.00/freedom-metal/src/drivers/riscv_cpu.c:757

int __metal_driver_cpu_get_msip(struct metal_cpu *cpu, int hartid) {
2010338c:	7179                	add	sp,sp,-48
2010338e:	d606                	sw	ra,44(sp)
20103390:	d422                	sw	s0,40(sp)
20103392:	1800                	add	s0,sp,48
20103394:	fca42e23          	sw	a0,-36(s0)
20103398:	fcb42c23          	sw	a1,-40(s0)
C:/VSD/FreedomStudio-3-1-1-x86_64-w64-mingw32/FreedomStudio-3-1-1/SiFive/freedom-e-sdk-v21.11.00.00/freedom-metal/src/drivers/riscv_cpu.c:758
    int rc = 0;
2010339c:	fe042623          	sw	zero,-20(s0)
C:/VSD/FreedomStudio-3-1-1-x86_64-w64-mingw32/FreedomStudio-3-1-1/SiFive/freedom-e-sdk-v21.11.00.00/freedom-metal/src/drivers/riscv_cpu.c:762
    struct metal_interrupt *sw_intc;
    struct __metal_driver_riscv_cpu_intc *intc =
        (struct __metal_driver_riscv_cpu_intc *)
            __metal_driver_cpu_interrupt_controller(cpu);
201033a0:	fdc42503          	lw	a0,-36(s0)
201033a4:	f86fe0ef          	jal	20101b2a <__metal_driver_cpu_interrupt_controller>
201033a8:	fea42423          	sw	a0,-24(s0)
C:/VSD/FreedomStudio-3-1-1-x86_64-w64-mingw32/FreedomStudio-3-1-1/SiFive/freedom-e-sdk-v21.11.00.00/freedom-metal/src/drivers/riscv_cpu.c:764

    if (intc) {
201033ac:	fe842783          	lw	a5,-24(s0)
201033b0:	c79d                	beqz	a5,201033de <__metal_driver_cpu_get_msip+0x52>
C:/VSD/FreedomStudio-3-1-1-x86_64-w64-mingw32/FreedomStudio-3-1-1/SiFive/freedom-e-sdk-v21.11.00.00/freedom-metal/src/drivers/riscv_cpu.c:765
        sw_intc = intc->metal_int_table[METAL_INTERRUPT_ID_SW].sub_int;
201033b2:	fe842783          	lw	a5,-24(s0)
201033b6:	0dc7a783          	lw	a5,220(a5)
201033ba:	fef42223          	sw	a5,-28(s0)
C:/VSD/FreedomStudio-3-1-1-x86_64-w64-mingw32/FreedomStudio-3-1-1/SiFive/freedom-e-sdk-v21.11.00.00/freedom-metal/src/drivers/riscv_cpu.c:766
        if (sw_intc) {
201033be:	fe442783          	lw	a5,-28(s0)
201033c2:	cf91                	beqz	a5,201033de <__metal_driver_cpu_get_msip+0x52>
C:/VSD/FreedomStudio-3-1-1-x86_64-w64-mingw32/FreedomStudio-3-1-1/SiFive/freedom-e-sdk-v21.11.00.00/freedom-metal/src/drivers/riscv_cpu.c:767
            rc = sw_intc->vtable->command_request(
201033c4:	fe442783          	lw	a5,-28(s0)
201033c8:	439c                	lw	a5,0(a5)
201033ca:	47fc                	lw	a5,76(a5)
201033cc:	fd840713          	add	a4,s0,-40
201033d0:	863a                	mv	a2,a4
201033d2:	4591                	li	a1,4
201033d4:	fe442503          	lw	a0,-28(s0)
201033d8:	9782                	jalr	a5
201033da:	fea42623          	sw	a0,-20(s0)
C:/VSD/FreedomStudio-3-1-1-x86_64-w64-mingw32/FreedomStudio-3-1-1/SiFive/freedom-e-sdk-v21.11.00.00/freedom-metal/src/drivers/riscv_cpu.c:771
                sw_intc, METAL_SOFTWARE_MSIP_GET, &hartid);
        }
    }
    return rc;
201033de:	fec42783          	lw	a5,-20(s0)
C:/VSD/FreedomStudio-3-1-1-x86_64-w64-mingw32/FreedomStudio-3-1-1/SiFive/freedom-e-sdk-v21.11.00.00/freedom-metal/src/drivers/riscv_cpu.c:772
}
201033e2:	853e                	mv	a0,a5
201033e4:	50b2                	lw	ra,44(sp)
201033e6:	5422                	lw	s0,40(sp)
201033e8:	6145                	add	sp,sp,48
201033ea:	8082                	ret

201033ec <__metal_driver_cpu_controller_interrupt>:
__metal_driver_cpu_controller_interrupt():
C:/VSD/FreedomStudio-3-1-1-x86_64-w64-mingw32/FreedomStudio-3-1-1/SiFive/freedom-e-sdk-v21.11.00.00/freedom-metal/src/drivers/riscv_cpu.c:775

struct metal_interrupt *
__metal_driver_cpu_controller_interrupt(struct metal_cpu *cpu) {
201033ec:	1101                	add	sp,sp,-32
201033ee:	ce06                	sw	ra,28(sp)
201033f0:	cc22                	sw	s0,24(sp)
201033f2:	1000                	add	s0,sp,32
201033f4:	fea42623          	sw	a0,-20(s0)
C:/VSD/FreedomStudio-3-1-1-x86_64-w64-mingw32/FreedomStudio-3-1-1/SiFive/freedom-e-sdk-v21.11.00.00/freedom-metal/src/drivers/riscv_cpu.c:776
    return __metal_driver_cpu_interrupt_controller(cpu);
201033f8:	fec42503          	lw	a0,-20(s0)
201033fc:	f2efe0ef          	jal	20101b2a <__metal_driver_cpu_interrupt_controller>
20103400:	87aa                	mv	a5,a0
C:/VSD/FreedomStudio-3-1-1-x86_64-w64-mingw32/FreedomStudio-3-1-1/SiFive/freedom-e-sdk-v21.11.00.00/freedom-metal/src/drivers/riscv_cpu.c:777
}
20103402:	853e                	mv	a0,a5
20103404:	40f2                	lw	ra,28(sp)
20103406:	4462                	lw	s0,24(sp)
20103408:	6105                	add	sp,sp,32
2010340a:	8082                	ret

2010340c <__metal_driver_cpu_exception_register>:
__metal_driver_cpu_exception_register():
C:/VSD/FreedomStudio-3-1-1-x86_64-w64-mingw32/FreedomStudio-3-1-1/SiFive/freedom-e-sdk-v21.11.00.00/freedom-metal/src/drivers/riscv_cpu.c:798
    }
    return -1;
}

int __metal_driver_cpu_exception_register(struct metal_cpu *cpu, int ecode,
                                          metal_exception_handler_t isr) {
2010340c:	7179                	add	sp,sp,-48
2010340e:	d606                	sw	ra,44(sp)
20103410:	d422                	sw	s0,40(sp)
20103412:	1800                	add	s0,sp,48
20103414:	fca42e23          	sw	a0,-36(s0)
20103418:	fcb42c23          	sw	a1,-40(s0)
2010341c:	fcc42a23          	sw	a2,-44(s0)
C:/VSD/FreedomStudio-3-1-1-x86_64-w64-mingw32/FreedomStudio-3-1-1/SiFive/freedom-e-sdk-v21.11.00.00/freedom-metal/src/drivers/riscv_cpu.c:801
    struct __metal_driver_riscv_cpu_intc *intc =
        (struct __metal_driver_riscv_cpu_intc *)
            __metal_driver_cpu_interrupt_controller(cpu);
20103420:	fdc42503          	lw	a0,-36(s0)
20103424:	f06fe0ef          	jal	20101b2a <__metal_driver_cpu_interrupt_controller>
20103428:	fea42623          	sw	a0,-20(s0)
C:/VSD/FreedomStudio-3-1-1-x86_64-w64-mingw32/FreedomStudio-3-1-1/SiFive/freedom-e-sdk-v21.11.00.00/freedom-metal/src/drivers/riscv_cpu.c:803

    if (intc) {
2010342c:	fec42783          	lw	a5,-20(s0)
20103430:	cb99                	beqz	a5,20103446 <__metal_driver_cpu_exception_register+0x3a>
C:/VSD/FreedomStudio-3-1-1-x86_64-w64-mingw32/FreedomStudio-3-1-1/SiFive/freedom-e-sdk-v21.11.00.00/freedom-metal/src/drivers/riscv_cpu.c:804
        return __metal_exception_register((struct metal_interrupt *)intc, ecode,
20103432:	fd442603          	lw	a2,-44(s0)
20103436:	fd842583          	lw	a1,-40(s0)
2010343a:	fec42503          	lw	a0,-20(s0)
2010343e:	8b3ff0ef          	jal	20102cf0 <__metal_exception_register>
20103442:	87aa                	mv	a5,a0
20103444:	a011                	j	20103448 <__metal_driver_cpu_exception_register+0x3c>
C:/VSD/FreedomStudio-3-1-1-x86_64-w64-mingw32/FreedomStudio-3-1-1/SiFive/freedom-e-sdk-v21.11.00.00/freedom-metal/src/drivers/riscv_cpu.c:807
                                          isr);
    }
    return -1;
20103446:	57fd                	li	a5,-1
C:/VSD/FreedomStudio-3-1-1-x86_64-w64-mingw32/FreedomStudio-3-1-1/SiFive/freedom-e-sdk-v21.11.00.00/freedom-metal/src/drivers/riscv_cpu.c:808
}
20103448:	853e                	mv	a0,a5
2010344a:	50b2                	lw	ra,44(sp)
2010344c:	5422                	lw	s0,40(sp)
2010344e:	6145                	add	sp,sp,48
20103450:	8082                	ret

20103452 <__metal_driver_cpu_get_instruction_length>:
__metal_driver_cpu_get_instruction_length():
C:/VSD/FreedomStudio-3-1-1-x86_64-w64-mingw32/FreedomStudio-3-1-1/SiFive/freedom-e-sdk-v21.11.00.00/freedom-metal/src/drivers/riscv_cpu.c:811

int __metal_driver_cpu_get_instruction_length(struct metal_cpu *cpu,
                                              uintptr_t epc) {
20103452:	1101                	add	sp,sp,-32
20103454:	ce22                	sw	s0,28(sp)
20103456:	1000                	add	s0,sp,32
20103458:	fea42623          	sw	a0,-20(s0)
2010345c:	feb42423          	sw	a1,-24(s0)
C:/VSD/FreedomStudio-3-1-1-x86_64-w64-mingw32/FreedomStudio-3-1-1/SiFive/freedom-e-sdk-v21.11.00.00/freedom-metal/src/drivers/riscv_cpu.c:817
    /**
     * Per ISA compressed instruction has last two bits of opcode set.
     * The encoding '00' '01' '10' are used for compressed instruction.
     * Only enconding '11' isn't regarded as compressed instruction (>16b).
     */
    return ((*(unsigned short *)epc & METAL_INSN_LENGTH_MASK) ==
20103460:	fe842783          	lw	a5,-24(s0)
20103464:	0007d783          	lhu	a5,0(a5)
20103468:	0037f713          	and	a4,a5,3
C:/VSD/FreedomStudio-3-1-1-x86_64-w64-mingw32/FreedomStudio-3-1-1/SiFive/freedom-e-sdk-v21.11.00.00/freedom-metal/src/drivers/riscv_cpu.c:820
            METAL_INSN_NOT_COMPRESSED)
               ? 4
               : 2;
2010346c:	478d                	li	a5,3
2010346e:	00f71463          	bne	a4,a5,20103476 <__metal_driver_cpu_get_instruction_length+0x24>
C:/VSD/FreedomStudio-3-1-1-x86_64-w64-mingw32/FreedomStudio-3-1-1/SiFive/freedom-e-sdk-v21.11.00.00/freedom-metal/src/drivers/riscv_cpu.c:820 (discriminator 1)
20103472:	4791                	li	a5,4
C:/VSD/FreedomStudio-3-1-1-x86_64-w64-mingw32/FreedomStudio-3-1-1/SiFive/freedom-e-sdk-v21.11.00.00/freedom-metal/src/drivers/riscv_cpu.c:820
20103474:	a011                	j	20103478 <__metal_driver_cpu_get_instruction_length+0x26>
C:/VSD/FreedomStudio-3-1-1-x86_64-w64-mingw32/FreedomStudio-3-1-1/SiFive/freedom-e-sdk-v21.11.00.00/freedom-metal/src/drivers/riscv_cpu.c:820 (discriminator 2)
20103476:	4789                	li	a5,2
C:/VSD/FreedomStudio-3-1-1-x86_64-w64-mingw32/FreedomStudio-3-1-1/SiFive/freedom-e-sdk-v21.11.00.00/freedom-metal/src/drivers/riscv_cpu.c:821
}
20103478:	853e                	mv	a0,a5
2010347a:	4472                	lw	s0,28(sp)
2010347c:	6105                	add	sp,sp,32
2010347e:	8082                	ret

20103480 <__metal_driver_cpu_get_exception_pc>:
__metal_driver_cpu_get_exception_pc():
C:/VSD/FreedomStudio-3-1-1-x86_64-w64-mingw32/FreedomStudio-3-1-1/SiFive/freedom-e-sdk-v21.11.00.00/freedom-metal/src/drivers/riscv_cpu.c:823

uintptr_t __metal_driver_cpu_get_exception_pc(struct metal_cpu *cpu) {
20103480:	7179                	add	sp,sp,-48
20103482:	d622                	sw	s0,44(sp)
20103484:	1800                	add	s0,sp,48
20103486:	fca42e23          	sw	a0,-36(s0)
C:/VSD/FreedomStudio-3-1-1-x86_64-w64-mingw32/FreedomStudio-3-1-1/SiFive/freedom-e-sdk-v21.11.00.00/freedom-metal/src/drivers/riscv_cpu.c:825
    uintptr_t mepc;
    __asm__ volatile("csrr %0, mepc" : "=r"(mepc));
2010348a:	341027f3          	csrr	a5,mepc
2010348e:	fef42623          	sw	a5,-20(s0)
C:/VSD/FreedomStudio-3-1-1-x86_64-w64-mingw32/FreedomStudio-3-1-1/SiFive/freedom-e-sdk-v21.11.00.00/freedom-metal/src/drivers/riscv_cpu.c:826
    return mepc;
20103492:	fec42783          	lw	a5,-20(s0)
C:/VSD/FreedomStudio-3-1-1-x86_64-w64-mingw32/FreedomStudio-3-1-1/SiFive/freedom-e-sdk-v21.11.00.00/freedom-metal/src/drivers/riscv_cpu.c:827
}
20103496:	853e                	mv	a0,a5
20103498:	5432                	lw	s0,44(sp)
2010349a:	6145                	add	sp,sp,48
2010349c:	8082                	ret

2010349e <__metal_driver_cpu_set_exception_pc>:
__metal_driver_cpu_set_exception_pc():
C:/VSD/FreedomStudio-3-1-1-x86_64-w64-mingw32/FreedomStudio-3-1-1/SiFive/freedom-e-sdk-v21.11.00.00/freedom-metal/src/drivers/riscv_cpu.c:829

int __metal_driver_cpu_set_exception_pc(struct metal_cpu *cpu, uintptr_t mepc) {
2010349e:	1101                	add	sp,sp,-32
201034a0:	ce22                	sw	s0,28(sp)
201034a2:	1000                	add	s0,sp,32
201034a4:	fea42623          	sw	a0,-20(s0)
201034a8:	feb42423          	sw	a1,-24(s0)
C:/VSD/FreedomStudio-3-1-1-x86_64-w64-mingw32/FreedomStudio-3-1-1/SiFive/freedom-e-sdk-v21.11.00.00/freedom-metal/src/drivers/riscv_cpu.c:830
    __asm__ volatile("csrw mepc, %0" ::"r"(mepc));
201034ac:	fe842783          	lw	a5,-24(s0)
201034b0:	34179073          	csrw	mepc,a5
C:/VSD/FreedomStudio-3-1-1-x86_64-w64-mingw32/FreedomStudio-3-1-1/SiFive/freedom-e-sdk-v21.11.00.00/freedom-metal/src/drivers/riscv_cpu.c:831
    return 0;
201034b4:	4781                	li	a5,0
C:/VSD/FreedomStudio-3-1-1-x86_64-w64-mingw32/FreedomStudio-3-1-1/SiFive/freedom-e-sdk-v21.11.00.00/freedom-metal/src/drivers/riscv_cpu.c:832
}
201034b6:	853e                	mv	a0,a5
201034b8:	4472                	lw	s0,28(sp)
201034ba:	6105                	add	sp,sp,32
201034bc:	8082                	ret

201034be <__metal_driver_cpu_get_buserror>:
__metal_driver_cpu_get_buserror():
C:/VSD/FreedomStudio-3-1-1-x86_64-w64-mingw32/FreedomStudio-3-1-1/SiFive/freedom-e-sdk-v21.11.00.00/freedom-metal/src/drivers/riscv_cpu.c:834

struct metal_buserror *__metal_driver_cpu_get_buserror(struct metal_cpu *cpu) {
201034be:	1101                	add	sp,sp,-32
201034c0:	ce06                	sw	ra,28(sp)
201034c2:	cc22                	sw	s0,24(sp)
201034c4:	1000                	add	s0,sp,32
201034c6:	fea42623          	sw	a0,-20(s0)
C:/VSD/FreedomStudio-3-1-1-x86_64-w64-mingw32/FreedomStudio-3-1-1/SiFive/freedom-e-sdk-v21.11.00.00/freedom-metal/src/drivers/riscv_cpu.c:835
    return __metal_driver_cpu_buserror(cpu);
201034ca:	fec42503          	lw	a0,-20(s0)
201034ce:	e8afe0ef          	jal	20101b58 <__metal_driver_cpu_buserror>
201034d2:	87aa                	mv	a5,a0
C:/VSD/FreedomStudio-3-1-1-x86_64-w64-mingw32/FreedomStudio-3-1-1/SiFive/freedom-e-sdk-v21.11.00.00/freedom-metal/src/drivers/riscv_cpu.c:836
}
201034d4:	853e                	mv	a0,a5
201034d6:	40f2                	lw	ra,28(sp)
201034d8:	4462                	lw	s0,24(sp)
201034da:	6105                	add	sp,sp,32
201034dc:	8082                	ret

201034de <__metal_driver_sifive_plic0_control_base>:
__metal_driver_sifive_plic0_control_base():
C:\VSD\FreedomStudio-3-1-1-x86_64-w64-mingw32\FreedomStudio-3-1-1\SiFive\freedom-e-sdk-v21.11.00.00\bsp\sifive-hifive1\build\debug/./metal/machine.h:320



/* --------------------- sifive_plic0 ------------ */
static __inline__ unsigned long __metal_driver_sifive_plic0_control_base(struct metal_interrupt *controller)
{
201034de:	1101                	add	sp,sp,-32
201034e0:	ce22                	sw	s0,28(sp)
201034e2:	1000                	add	s0,sp,32
201034e4:	fea42623          	sw	a0,-20(s0)
C:\VSD\FreedomStudio-3-1-1-x86_64-w64-mingw32\FreedomStudio-3-1-1\SiFive\freedom-e-sdk-v21.11.00.00\bsp\sifive-hifive1\build\debug/./metal/machine.h:321
	if ((uintptr_t)controller == (uintptr_t)&__metal_dt_interrupt_controller_c000000) {
201034e8:	fec42703          	lw	a4,-20(s0)
201034ec:	800007b7          	lui	a5,0x80000
201034f0:	3f878793          	add	a5,a5,1016 # 800003f8 <__metal_dt_interrupt_controller_c000000>
201034f4:	00f71563          	bne	a4,a5,201034fe <__metal_driver_sifive_plic0_control_base+0x20>
C:\VSD\FreedomStudio-3-1-1-x86_64-w64-mingw32\FreedomStudio-3-1-1\SiFive\freedom-e-sdk-v21.11.00.00\bsp\sifive-hifive1\build\debug/./metal/machine.h:322
		return METAL_RISCV_PLIC0_C000000_BASE_ADDRESS;
201034f8:	0c0007b7          	lui	a5,0xc000
201034fc:	a011                	j	20103500 <__metal_driver_sifive_plic0_control_base+0x22>
C:\VSD\FreedomStudio-3-1-1-x86_64-w64-mingw32\FreedomStudio-3-1-1\SiFive\freedom-e-sdk-v21.11.00.00\bsp\sifive-hifive1\build\debug/./metal/machine.h:325
	}
	else {
		return 0;
201034fe:	4781                	li	a5,0
C:\VSD\FreedomStudio-3-1-1-x86_64-w64-mingw32\FreedomStudio-3-1-1\SiFive\freedom-e-sdk-v21.11.00.00\bsp\sifive-hifive1\build\debug/./metal/machine.h:327
	}
}
20103500:	853e                	mv	a0,a5
20103502:	4472                	lw	s0,28(sp)
20103504:	6105                	add	sp,sp,32
20103506:	8082                	ret

20103508 <__metal_driver_sifive_plic0_num_interrupts>:
__metal_driver_sifive_plic0_num_interrupts():
C:\VSD\FreedomStudio-3-1-1-x86_64-w64-mingw32\FreedomStudio-3-1-1\SiFive\freedom-e-sdk-v21.11.00.00\bsp\sifive-hifive1\build\debug/./metal/machine.h:340
		return 0;
	}
}

static __inline__ int __metal_driver_sifive_plic0_num_interrupts(struct metal_interrupt *controller)
{
20103508:	1101                	add	sp,sp,-32
2010350a:	ce22                	sw	s0,28(sp)
2010350c:	1000                	add	s0,sp,32
2010350e:	fea42623          	sw	a0,-20(s0)
C:\VSD\FreedomStudio-3-1-1-x86_64-w64-mingw32\FreedomStudio-3-1-1\SiFive\freedom-e-sdk-v21.11.00.00\bsp\sifive-hifive1\build\debug/./metal/machine.h:341
	if ((uintptr_t)controller == (uintptr_t)&__metal_dt_interrupt_controller_c000000) {
20103512:	fec42703          	lw	a4,-20(s0)
20103516:	800007b7          	lui	a5,0x80000
2010351a:	3f878793          	add	a5,a5,1016 # 800003f8 <__metal_dt_interrupt_controller_c000000>
2010351e:	00f71563          	bne	a4,a5,20103528 <__metal_driver_sifive_plic0_num_interrupts+0x20>
C:\VSD\FreedomStudio-3-1-1-x86_64-w64-mingw32\FreedomStudio-3-1-1\SiFive\freedom-e-sdk-v21.11.00.00\bsp\sifive-hifive1\build\debug/./metal/machine.h:342
		return METAL_RISCV_PLIC0_C000000_RISCV_NDEV;
20103522:	03500793          	li	a5,53
20103526:	a011                	j	2010352a <__metal_driver_sifive_plic0_num_interrupts+0x22>
C:\VSD\FreedomStudio-3-1-1-x86_64-w64-mingw32\FreedomStudio-3-1-1\SiFive\freedom-e-sdk-v21.11.00.00\bsp\sifive-hifive1\build\debug/./metal/machine.h:345
	}
	else {
		return 0;
20103528:	4781                	li	a5,0
C:\VSD\FreedomStudio-3-1-1-x86_64-w64-mingw32\FreedomStudio-3-1-1\SiFive\freedom-e-sdk-v21.11.00.00\bsp\sifive-hifive1\build\debug/./metal/machine.h:347
	}
}
2010352a:	853e                	mv	a0,a5
2010352c:	4472                	lw	s0,28(sp)
2010352e:	6105                	add	sp,sp,32
20103530:	8082                	ret

20103532 <__metal_driver_sifive_plic0_max_priority>:
__metal_driver_sifive_plic0_max_priority():
C:\VSD\FreedomStudio-3-1-1-x86_64-w64-mingw32\FreedomStudio-3-1-1\SiFive\freedom-e-sdk-v21.11.00.00\bsp\sifive-hifive1\build\debug/./metal/machine.h:350

static __inline__ int __metal_driver_sifive_plic0_max_priority(struct metal_interrupt *controller)
{
20103532:	1101                	add	sp,sp,-32
20103534:	ce22                	sw	s0,28(sp)
20103536:	1000                	add	s0,sp,32
20103538:	fea42623          	sw	a0,-20(s0)
C:\VSD\FreedomStudio-3-1-1-x86_64-w64-mingw32\FreedomStudio-3-1-1\SiFive\freedom-e-sdk-v21.11.00.00\bsp\sifive-hifive1\build\debug/./metal/machine.h:351
	if ((uintptr_t)controller == (uintptr_t)&__metal_dt_interrupt_controller_c000000) {
2010353c:	fec42703          	lw	a4,-20(s0)
20103540:	800007b7          	lui	a5,0x80000
20103544:	3f878793          	add	a5,a5,1016 # 800003f8 <__metal_dt_interrupt_controller_c000000>
20103548:	00f71463          	bne	a4,a5,20103550 <__metal_driver_sifive_plic0_max_priority+0x1e>
C:\VSD\FreedomStudio-3-1-1-x86_64-w64-mingw32\FreedomStudio-3-1-1\SiFive\freedom-e-sdk-v21.11.00.00\bsp\sifive-hifive1\build\debug/./metal/machine.h:352
		return METAL_RISCV_PLIC0_C000000_RISCV_MAX_PRIORITY;
2010354c:	479d                	li	a5,7
2010354e:	a011                	j	20103552 <__metal_driver_sifive_plic0_max_priority+0x20>
C:\VSD\FreedomStudio-3-1-1-x86_64-w64-mingw32\FreedomStudio-3-1-1\SiFive\freedom-e-sdk-v21.11.00.00\bsp\sifive-hifive1\build\debug/./metal/machine.h:355
	}
	else {
		return 0;
20103550:	4781                	li	a5,0
C:\VSD\FreedomStudio-3-1-1-x86_64-w64-mingw32\FreedomStudio-3-1-1\SiFive\freedom-e-sdk-v21.11.00.00\bsp\sifive-hifive1\build\debug/./metal/machine.h:357
	}
}
20103552:	853e                	mv	a0,a5
20103554:	4472                	lw	s0,28(sp)
20103556:	6105                	add	sp,sp,32
20103558:	8082                	ret

2010355a <__metal_driver_sifive_plic0_interrupt_parents>:
__metal_driver_sifive_plic0_interrupt_parents():
C:\VSD\FreedomStudio-3-1-1-x86_64-w64-mingw32\FreedomStudio-3-1-1\SiFive\freedom-e-sdk-v21.11.00.00\bsp\sifive-hifive1\build\debug/./metal/machine.h:360

static __inline__ struct metal_interrupt * __metal_driver_sifive_plic0_interrupt_parents(struct metal_interrupt *controller, int idx)
{
2010355a:	1101                	add	sp,sp,-32
2010355c:	ce22                	sw	s0,28(sp)
2010355e:	1000                	add	s0,sp,32
20103560:	fea42623          	sw	a0,-20(s0)
20103564:	feb42423          	sw	a1,-24(s0)
C:\VSD\FreedomStudio-3-1-1-x86_64-w64-mingw32\FreedomStudio-3-1-1\SiFive\freedom-e-sdk-v21.11.00.00\bsp\sifive-hifive1\build\debug/./metal/machine.h:361
	if (idx == 0) {
20103568:	fe842783          	lw	a5,-24(s0)
2010356c:	e791                	bnez	a5,20103578 <__metal_driver_sifive_plic0_interrupt_parents+0x1e>
C:\VSD\FreedomStudio-3-1-1-x86_64-w64-mingw32\FreedomStudio-3-1-1\SiFive\freedom-e-sdk-v21.11.00.00\bsp\sifive-hifive1\build\debug/./metal/machine.h:362
		return (struct metal_interrupt *)&__metal_dt_cpu_0_interrupt_controller.controller;
2010356e:	800007b7          	lui	a5,0x80000
20103572:	02878793          	add	a5,a5,40 # 80000028 <__metal_dt_cpu_0_interrupt_controller>
20103576:	a011                	j	2010357a <__metal_driver_sifive_plic0_interrupt_parents+0x20>
C:\VSD\FreedomStudio-3-1-1-x86_64-w64-mingw32\FreedomStudio-3-1-1\SiFive\freedom-e-sdk-v21.11.00.00\bsp\sifive-hifive1\build\debug/./metal/machine.h:365
	}
	else {
		return NULL;
20103578:	4781                	li	a5,0
C:\VSD\FreedomStudio-3-1-1-x86_64-w64-mingw32\FreedomStudio-3-1-1\SiFive\freedom-e-sdk-v21.11.00.00\bsp\sifive-hifive1\build\debug/./metal/machine.h:367
	}
}
2010357a:	853e                	mv	a0,a5
2010357c:	4472                	lw	s0,28(sp)
2010357e:	6105                	add	sp,sp,32
20103580:	8082                	ret

20103582 <__metal_driver_sifive_plic0_interrupt_lines>:
__metal_driver_sifive_plic0_interrupt_lines():
C:\VSD\FreedomStudio-3-1-1-x86_64-w64-mingw32\FreedomStudio-3-1-1\SiFive\freedom-e-sdk-v21.11.00.00\bsp\sifive-hifive1\build\debug/./metal/machine.h:370

static __inline__ int __metal_driver_sifive_plic0_interrupt_lines(struct metal_interrupt *controller, int idx)
{
20103582:	1101                	add	sp,sp,-32
20103584:	ce22                	sw	s0,28(sp)
20103586:	1000                	add	s0,sp,32
20103588:	fea42623          	sw	a0,-20(s0)
2010358c:	feb42423          	sw	a1,-24(s0)
C:\VSD\FreedomStudio-3-1-1-x86_64-w64-mingw32\FreedomStudio-3-1-1\SiFive\freedom-e-sdk-v21.11.00.00\bsp\sifive-hifive1\build\debug/./metal/machine.h:371
	if (idx == 0) {
20103590:	fe842783          	lw	a5,-24(s0)
20103594:	e399                	bnez	a5,2010359a <__metal_driver_sifive_plic0_interrupt_lines+0x18>
C:\VSD\FreedomStudio-3-1-1-x86_64-w64-mingw32\FreedomStudio-3-1-1\SiFive\freedom-e-sdk-v21.11.00.00\bsp\sifive-hifive1\build\debug/./metal/machine.h:372
		return 11;
20103596:	47ad                	li	a5,11
20103598:	a011                	j	2010359c <__metal_driver_sifive_plic0_interrupt_lines+0x1a>
C:\VSD\FreedomStudio-3-1-1-x86_64-w64-mingw32\FreedomStudio-3-1-1\SiFive\freedom-e-sdk-v21.11.00.00\bsp\sifive-hifive1\build\debug/./metal/machine.h:375
	}
	else {
		return 0;
2010359a:	4781                	li	a5,0
C:\VSD\FreedomStudio-3-1-1-x86_64-w64-mingw32\FreedomStudio-3-1-1\SiFive\freedom-e-sdk-v21.11.00.00\bsp\sifive-hifive1\build\debug/./metal/machine.h:377
	}
}
2010359c:	853e                	mv	a0,a5
2010359e:	4472                	lw	s0,28(sp)
201035a0:	6105                	add	sp,sp,32
201035a2:	8082                	ret

201035a4 <__metal_driver_sifive_plic0_context_ids>:
__metal_driver_sifive_plic0_context_ids():
C:\VSD\FreedomStudio-3-1-1-x86_64-w64-mingw32\FreedomStudio-3-1-1\SiFive\freedom-e-sdk-v21.11.00.00\bsp\sifive-hifive1\build\debug/./metal/machine.h:380

static __inline__ int __metal_driver_sifive_plic0_context_ids(int hartid)
{
201035a4:	1101                	add	sp,sp,-32
201035a6:	ce22                	sw	s0,28(sp)
201035a8:	1000                	add	s0,sp,32
201035aa:	fea42623          	sw	a0,-20(s0)
C:\VSD\FreedomStudio-3-1-1-x86_64-w64-mingw32\FreedomStudio-3-1-1\SiFive\freedom-e-sdk-v21.11.00.00\bsp\sifive-hifive1\build\debug/./metal/machine.h:381
	if (hartid == 0) {
201035ae:	fec42783          	lw	a5,-20(s0)
201035b2:	e399                	bnez	a5,201035b8 <__metal_driver_sifive_plic0_context_ids+0x14>
C:\VSD\FreedomStudio-3-1-1-x86_64-w64-mingw32\FreedomStudio-3-1-1\SiFive\freedom-e-sdk-v21.11.00.00\bsp\sifive-hifive1\build\debug/./metal/machine.h:382
		return 0;
201035b4:	4781                	li	a5,0
201035b6:	a011                	j	201035ba <__metal_driver_sifive_plic0_context_ids+0x16>
C:\VSD\FreedomStudio-3-1-1-x86_64-w64-mingw32\FreedomStudio-3-1-1\SiFive\freedom-e-sdk-v21.11.00.00\bsp\sifive-hifive1\build\debug/./metal/machine.h:385
	}
	else {
		return -1;
201035b8:	57fd                	li	a5,-1
C:\VSD\FreedomStudio-3-1-1-x86_64-w64-mingw32\FreedomStudio-3-1-1\SiFive\freedom-e-sdk-v21.11.00.00\bsp\sifive-hifive1\build\debug/./metal/machine.h:387
	}
}
201035ba:	853e                	mv	a0,a5
201035bc:	4472                	lw	s0,28(sp)
201035be:	6105                	add	sp,sp,32
201035c0:	8082                	ret

201035c2 <__metal_plic0_claim_interrupt>:
__metal_plic0_claim_interrupt():
C:/VSD/FreedomStudio-3-1-1-x86_64-w64-mingw32/FreedomStudio-3-1-1/SiFive/freedom-e-sdk-v21.11.00.00/freedom-metal/src/drivers/riscv_plic0.c:18
#include <metal/machine.h>
#include <metal/shutdown.h>

unsigned int
__metal_plic0_claim_interrupt(struct __metal_driver_riscv_plic0 *plic,
                              int context_id) {
201035c2:	7179                	add	sp,sp,-48
201035c4:	d606                	sw	ra,44(sp)
201035c6:	d422                	sw	s0,40(sp)
201035c8:	1800                	add	s0,sp,48
201035ca:	fca42e23          	sw	a0,-36(s0)
201035ce:	fcb42c23          	sw	a1,-40(s0)
C:/VSD/FreedomStudio-3-1-1-x86_64-w64-mingw32/FreedomStudio-3-1-1/SiFive/freedom-e-sdk-v21.11.00.00/freedom-metal/src/drivers/riscv_plic0.c:19
    unsigned long control_base = __metal_driver_sifive_plic0_control_base(
201035d2:	fdc42503          	lw	a0,-36(s0)
201035d6:	3721                	jal	201034de <__metal_driver_sifive_plic0_control_base>
201035d8:	fea42623          	sw	a0,-20(s0)
C:/VSD/FreedomStudio-3-1-1-x86_64-w64-mingw32/FreedomStudio-3-1-1/SiFive/freedom-e-sdk-v21.11.00.00/freedom-metal/src/drivers/riscv_plic0.c:21
        (struct metal_interrupt *)plic);
    return __METAL_ACCESS_ONCE(
201035dc:	fd842783          	lw	a5,-40(s0)
201035e0:	00c79713          	sll	a4,a5,0xc
201035e4:	fec42783          	lw	a5,-20(s0)
201035e8:	973e                	add	a4,a4,a5
201035ea:	002007b7          	lui	a5,0x200
201035ee:	0791                	add	a5,a5,4 # 200004 <__heap_size+0x1ff804>
201035f0:	97ba                	add	a5,a5,a4
201035f2:	439c                	lw	a5,0(a5)
C:/VSD/FreedomStudio-3-1-1-x86_64-w64-mingw32/FreedomStudio-3-1-1/SiFive/freedom-e-sdk-v21.11.00.00/freedom-metal/src/drivers/riscv_plic0.c:25
        (__metal_io_u32 *)(control_base + METAL_RISCV_PLIC0_CONTEXT_BASE +
                           (context_id * METAL_RISCV_PLIC0_CONTEXT_PER_HART) +
                           METAL_RISCV_PLIC0_CONTEXT_CLAIM));
}
201035f4:	853e                	mv	a0,a5
201035f6:	50b2                	lw	ra,44(sp)
201035f8:	5422                	lw	s0,40(sp)
201035fa:	6145                	add	sp,sp,48
201035fc:	8082                	ret

201035fe <__metal_plic0_complete_interrupt>:
__metal_plic0_complete_interrupt():
C:/VSD/FreedomStudio-3-1-1-x86_64-w64-mingw32/FreedomStudio-3-1-1/SiFive/freedom-e-sdk-v21.11.00.00/freedom-metal/src/drivers/riscv_plic0.c:28

void __metal_plic0_complete_interrupt(struct __metal_driver_riscv_plic0 *plic,
                                      int context_id, unsigned int id) {
201035fe:	7179                	add	sp,sp,-48
20103600:	d606                	sw	ra,44(sp)
20103602:	d422                	sw	s0,40(sp)
20103604:	1800                	add	s0,sp,48
20103606:	fca42e23          	sw	a0,-36(s0)
2010360a:	fcb42c23          	sw	a1,-40(s0)
2010360e:	fcc42a23          	sw	a2,-44(s0)
C:/VSD/FreedomStudio-3-1-1-x86_64-w64-mingw32/FreedomStudio-3-1-1/SiFive/freedom-e-sdk-v21.11.00.00/freedom-metal/src/drivers/riscv_plic0.c:29
    unsigned long control_base = __metal_driver_sifive_plic0_control_base(
20103612:	fdc42503          	lw	a0,-36(s0)
20103616:	35e1                	jal	201034de <__metal_driver_sifive_plic0_control_base>
20103618:	fea42623          	sw	a0,-20(s0)
C:/VSD/FreedomStudio-3-1-1-x86_64-w64-mingw32/FreedomStudio-3-1-1/SiFive/freedom-e-sdk-v21.11.00.00/freedom-metal/src/drivers/riscv_plic0.c:31
        (struct metal_interrupt *)plic);
    __METAL_ACCESS_ONCE(
2010361c:	fd842783          	lw	a5,-40(s0)
20103620:	00c79713          	sll	a4,a5,0xc
20103624:	fec42783          	lw	a5,-20(s0)
20103628:	973e                	add	a4,a4,a5
2010362a:	002007b7          	lui	a5,0x200
2010362e:	0791                	add	a5,a5,4 # 200004 <__heap_size+0x1ff804>
20103630:	97ba                	add	a5,a5,a4
20103632:	873e                	mv	a4,a5
C:/VSD/FreedomStudio-3-1-1-x86_64-w64-mingw32/FreedomStudio-3-1-1/SiFive/freedom-e-sdk-v21.11.00.00/freedom-metal/src/drivers/riscv_plic0.c:34
        (__metal_io_u32 *)(control_base + METAL_RISCV_PLIC0_CONTEXT_BASE +
                           (context_id * METAL_RISCV_PLIC0_CONTEXT_PER_HART) +
                           METAL_RISCV_PLIC0_CONTEXT_CLAIM)) = id;
20103634:	fd442783          	lw	a5,-44(s0)
20103638:	c31c                	sw	a5,0(a4)
C:/VSD/FreedomStudio-3-1-1-x86_64-w64-mingw32/FreedomStudio-3-1-1/SiFive/freedom-e-sdk-v21.11.00.00/freedom-metal/src/drivers/riscv_plic0.c:35
}
2010363a:	0001                	nop
2010363c:	50b2                	lw	ra,44(sp)
2010363e:	5422                	lw	s0,40(sp)
20103640:	6145                	add	sp,sp,48
20103642:	8082                	ret

20103644 <__metal_plic0_set_threshold>:
__metal_plic0_set_threshold():
C:/VSD/FreedomStudio-3-1-1-x86_64-w64-mingw32/FreedomStudio-3-1-1/SiFive/freedom-e-sdk-v21.11.00.00/freedom-metal/src/drivers/riscv_plic0.c:38

int __metal_plic0_set_threshold(struct metal_interrupt *controller,
                                int context_id, unsigned int threshold) {
20103644:	7179                	add	sp,sp,-48
20103646:	d606                	sw	ra,44(sp)
20103648:	d422                	sw	s0,40(sp)
2010364a:	1800                	add	s0,sp,48
2010364c:	fca42e23          	sw	a0,-36(s0)
20103650:	fcb42c23          	sw	a1,-40(s0)
20103654:	fcc42a23          	sw	a2,-44(s0)
C:/VSD/FreedomStudio-3-1-1-x86_64-w64-mingw32/FreedomStudio-3-1-1/SiFive/freedom-e-sdk-v21.11.00.00/freedom-metal/src/drivers/riscv_plic0.c:40
    unsigned long control_base =
        __metal_driver_sifive_plic0_control_base(controller);
20103658:	fdc42503          	lw	a0,-36(s0)
2010365c:	3549                	jal	201034de <__metal_driver_sifive_plic0_control_base>
2010365e:	fea42623          	sw	a0,-20(s0)
C:/VSD/FreedomStudio-3-1-1-x86_64-w64-mingw32/FreedomStudio-3-1-1/SiFive/freedom-e-sdk-v21.11.00.00/freedom-metal/src/drivers/riscv_plic0.c:41
    __METAL_ACCESS_ONCE(
20103662:	fd842783          	lw	a5,-40(s0)
20103666:	00c79713          	sll	a4,a5,0xc
2010366a:	fec42783          	lw	a5,-20(s0)
2010366e:	973e                	add	a4,a4,a5
20103670:	002007b7          	lui	a5,0x200
20103674:	97ba                	add	a5,a5,a4
20103676:	873e                	mv	a4,a5
C:/VSD/FreedomStudio-3-1-1-x86_64-w64-mingw32/FreedomStudio-3-1-1/SiFive/freedom-e-sdk-v21.11.00.00/freedom-metal/src/drivers/riscv_plic0.c:44
        (__metal_io_u32 *)(control_base + METAL_RISCV_PLIC0_CONTEXT_BASE +
                           (context_id * METAL_RISCV_PLIC0_CONTEXT_PER_HART) +
                           METAL_RISCV_PLIC0_CONTEXT_THRESHOLD)) = threshold;
20103678:	fd442783          	lw	a5,-44(s0)
2010367c:	c31c                	sw	a5,0(a4)
C:/VSD/FreedomStudio-3-1-1-x86_64-w64-mingw32/FreedomStudio-3-1-1/SiFive/freedom-e-sdk-v21.11.00.00/freedom-metal/src/drivers/riscv_plic0.c:45
    return 0;
2010367e:	4781                	li	a5,0
C:/VSD/FreedomStudio-3-1-1-x86_64-w64-mingw32/FreedomStudio-3-1-1/SiFive/freedom-e-sdk-v21.11.00.00/freedom-metal/src/drivers/riscv_plic0.c:46
}
20103680:	853e                	mv	a0,a5
20103682:	50b2                	lw	ra,44(sp)
20103684:	5422                	lw	s0,40(sp)
20103686:	6145                	add	sp,sp,48
20103688:	8082                	ret

2010368a <__metal_plic0_get_threshold>:
__metal_plic0_get_threshold():
C:/VSD/FreedomStudio-3-1-1-x86_64-w64-mingw32/FreedomStudio-3-1-1/SiFive/freedom-e-sdk-v21.11.00.00/freedom-metal/src/drivers/riscv_plic0.c:49

unsigned int __metal_plic0_get_threshold(struct metal_interrupt *controller,
                                         int context_id) {
2010368a:	7179                	add	sp,sp,-48
2010368c:	d606                	sw	ra,44(sp)
2010368e:	d422                	sw	s0,40(sp)
20103690:	1800                	add	s0,sp,48
20103692:	fca42e23          	sw	a0,-36(s0)
20103696:	fcb42c23          	sw	a1,-40(s0)
C:/VSD/FreedomStudio-3-1-1-x86_64-w64-mingw32/FreedomStudio-3-1-1/SiFive/freedom-e-sdk-v21.11.00.00/freedom-metal/src/drivers/riscv_plic0.c:51
    unsigned long control_base =
        __metal_driver_sifive_plic0_control_base(controller);
2010369a:	fdc42503          	lw	a0,-36(s0)
2010369e:	3581                	jal	201034de <__metal_driver_sifive_plic0_control_base>
201036a0:	fea42623          	sw	a0,-20(s0)
C:/VSD/FreedomStudio-3-1-1-x86_64-w64-mingw32/FreedomStudio-3-1-1/SiFive/freedom-e-sdk-v21.11.00.00/freedom-metal/src/drivers/riscv_plic0.c:52
    return __METAL_ACCESS_ONCE(
201036a4:	fd842783          	lw	a5,-40(s0)
201036a8:	00c79713          	sll	a4,a5,0xc
201036ac:	fec42783          	lw	a5,-20(s0)
201036b0:	973e                	add	a4,a4,a5
201036b2:	002007b7          	lui	a5,0x200
201036b6:	97ba                	add	a5,a5,a4
201036b8:	439c                	lw	a5,0(a5)
C:/VSD/FreedomStudio-3-1-1-x86_64-w64-mingw32/FreedomStudio-3-1-1/SiFive/freedom-e-sdk-v21.11.00.00/freedom-metal/src/drivers/riscv_plic0.c:56
        (__metal_io_u32 *)(control_base + METAL_RISCV_PLIC0_CONTEXT_BASE +
                           (context_id * METAL_RISCV_PLIC0_CONTEXT_PER_HART) +
                           METAL_RISCV_PLIC0_CONTEXT_THRESHOLD));
}
201036ba:	853e                	mv	a0,a5
201036bc:	50b2                	lw	ra,44(sp)
201036be:	5422                	lw	s0,40(sp)
201036c0:	6145                	add	sp,sp,48
201036c2:	8082                	ret

201036c4 <__metal_driver_riscv_plic0_set_priority>:
__metal_driver_riscv_plic0_set_priority():
C:/VSD/FreedomStudio-3-1-1-x86_64-w64-mingw32/FreedomStudio-3-1-1/SiFive/freedom-e-sdk-v21.11.00.00/freedom-metal/src/drivers/riscv_plic0.c:59

int __metal_driver_riscv_plic0_set_priority(struct metal_interrupt *controller,
                                            int id, unsigned int priority) {
201036c4:	7179                	add	sp,sp,-48
201036c6:	d606                	sw	ra,44(sp)
201036c8:	d422                	sw	s0,40(sp)
201036ca:	1800                	add	s0,sp,48
201036cc:	fca42e23          	sw	a0,-36(s0)
201036d0:	fcb42c23          	sw	a1,-40(s0)
201036d4:	fcc42a23          	sw	a2,-44(s0)
C:/VSD/FreedomStudio-3-1-1-x86_64-w64-mingw32/FreedomStudio-3-1-1/SiFive/freedom-e-sdk-v21.11.00.00/freedom-metal/src/drivers/riscv_plic0.c:60
    unsigned long control_base = __metal_driver_sifive_plic0_control_base(
201036d8:	fdc42503          	lw	a0,-36(s0)
201036dc:	3509                	jal	201034de <__metal_driver_sifive_plic0_control_base>
201036de:	fea42623          	sw	a0,-20(s0)
C:/VSD/FreedomStudio-3-1-1-x86_64-w64-mingw32/FreedomStudio-3-1-1/SiFive/freedom-e-sdk-v21.11.00.00/freedom-metal/src/drivers/riscv_plic0.c:62
        (struct metal_interrupt *)controller);
    unsigned int max_priority = __metal_driver_sifive_plic0_max_priority(
201036e2:	fdc42503          	lw	a0,-36(s0)
201036e6:	35b1                	jal	20103532 <__metal_driver_sifive_plic0_max_priority>
201036e8:	87aa                	mv	a5,a0
C:/VSD/FreedomStudio-3-1-1-x86_64-w64-mingw32/FreedomStudio-3-1-1/SiFive/freedom-e-sdk-v21.11.00.00/freedom-metal/src/drivers/riscv_plic0.c:62 (discriminator 1)
201036ea:	fef42423          	sw	a5,-24(s0)
C:/VSD/FreedomStudio-3-1-1-x86_64-w64-mingw32/FreedomStudio-3-1-1/SiFive/freedom-e-sdk-v21.11.00.00/freedom-metal/src/drivers/riscv_plic0.c:64
        (struct metal_interrupt *)controller);
    if ((max_priority) && (priority < max_priority)) {
201036ee:	fe842783          	lw	a5,-24(s0)
201036f2:	c785                	beqz	a5,2010371a <__metal_driver_riscv_plic0_set_priority+0x56>
C:/VSD/FreedomStudio-3-1-1-x86_64-w64-mingw32/FreedomStudio-3-1-1/SiFive/freedom-e-sdk-v21.11.00.00/freedom-metal/src/drivers/riscv_plic0.c:64 (discriminator 1)
201036f4:	fd442703          	lw	a4,-44(s0)
201036f8:	fe842783          	lw	a5,-24(s0)
201036fc:	00f77f63          	bgeu	a4,a5,2010371a <__metal_driver_riscv_plic0_set_priority+0x56>
C:/VSD/FreedomStudio-3-1-1-x86_64-w64-mingw32/FreedomStudio-3-1-1/SiFive/freedom-e-sdk-v21.11.00.00/freedom-metal/src/drivers/riscv_plic0.c:65
        __METAL_ACCESS_ONCE(
20103700:	fd842783          	lw	a5,-40(s0)
20103704:	00279713          	sll	a4,a5,0x2
20103708:	fec42783          	lw	a5,-20(s0)
2010370c:	97ba                	add	a5,a5,a4
2010370e:	873e                	mv	a4,a5
C:/VSD/FreedomStudio-3-1-1-x86_64-w64-mingw32/FreedomStudio-3-1-1/SiFive/freedom-e-sdk-v21.11.00.00/freedom-metal/src/drivers/riscv_plic0.c:67
            (__metal_io_u32 *)(control_base + METAL_RISCV_PLIC0_PRIORITY_BASE +
                               (id << METAL_PLIC_SOURCE_PRIORITY_SHIFT))) =
20103710:	fd442783          	lw	a5,-44(s0)
20103714:	c31c                	sw	a5,0(a4)
C:/VSD/FreedomStudio-3-1-1-x86_64-w64-mingw32/FreedomStudio-3-1-1/SiFive/freedom-e-sdk-v21.11.00.00/freedom-metal/src/drivers/riscv_plic0.c:69
            priority;
        return 0;
20103716:	4781                	li	a5,0
20103718:	a011                	j	2010371c <__metal_driver_riscv_plic0_set_priority+0x58>
C:/VSD/FreedomStudio-3-1-1-x86_64-w64-mingw32/FreedomStudio-3-1-1/SiFive/freedom-e-sdk-v21.11.00.00/freedom-metal/src/drivers/riscv_plic0.c:71
    }
    return -1;
2010371a:	57fd                	li	a5,-1
C:/VSD/FreedomStudio-3-1-1-x86_64-w64-mingw32/FreedomStudio-3-1-1/SiFive/freedom-e-sdk-v21.11.00.00/freedom-metal/src/drivers/riscv_plic0.c:72
}
2010371c:	853e                	mv	a0,a5
2010371e:	50b2                	lw	ra,44(sp)
20103720:	5422                	lw	s0,40(sp)
20103722:	6145                	add	sp,sp,48
20103724:	8082                	ret

20103726 <__metal_driver_riscv_plic0_get_priority>:
__metal_driver_riscv_plic0_get_priority():
C:/VSD/FreedomStudio-3-1-1-x86_64-w64-mingw32/FreedomStudio-3-1-1/SiFive/freedom-e-sdk-v21.11.00.00/freedom-metal/src/drivers/riscv_plic0.c:76

unsigned int
__metal_driver_riscv_plic0_get_priority(struct metal_interrupt *controller,
                                        int id) {
20103726:	7179                	add	sp,sp,-48
20103728:	d606                	sw	ra,44(sp)
2010372a:	d422                	sw	s0,40(sp)
2010372c:	1800                	add	s0,sp,48
2010372e:	fca42e23          	sw	a0,-36(s0)
20103732:	fcb42c23          	sw	a1,-40(s0)
C:/VSD/FreedomStudio-3-1-1-x86_64-w64-mingw32/FreedomStudio-3-1-1/SiFive/freedom-e-sdk-v21.11.00.00/freedom-metal/src/drivers/riscv_plic0.c:78
    unsigned long control_base =
        __metal_driver_sifive_plic0_control_base(controller);
20103736:	fdc42503          	lw	a0,-36(s0)
2010373a:	3355                	jal	201034de <__metal_driver_sifive_plic0_control_base>
2010373c:	fea42623          	sw	a0,-20(s0)
C:/VSD/FreedomStudio-3-1-1-x86_64-w64-mingw32/FreedomStudio-3-1-1/SiFive/freedom-e-sdk-v21.11.00.00/freedom-metal/src/drivers/riscv_plic0.c:80

    return __METAL_ACCESS_ONCE(
20103740:	fd842783          	lw	a5,-40(s0)
20103744:	00279713          	sll	a4,a5,0x2
20103748:	fec42783          	lw	a5,-20(s0)
2010374c:	97ba                	add	a5,a5,a4
2010374e:	439c                	lw	a5,0(a5)
C:/VSD/FreedomStudio-3-1-1-x86_64-w64-mingw32/FreedomStudio-3-1-1/SiFive/freedom-e-sdk-v21.11.00.00/freedom-metal/src/drivers/riscv_plic0.c:83
        (__metal_io_u32 *)(control_base + METAL_RISCV_PLIC0_PRIORITY_BASE +
                           (id << METAL_PLIC_SOURCE_PRIORITY_SHIFT)));
}
20103750:	853e                	mv	a0,a5
20103752:	50b2                	lw	ra,44(sp)
20103754:	5422                	lw	s0,40(sp)
20103756:	6145                	add	sp,sp,48
20103758:	8082                	ret

2010375a <__metal_plic0_enable>:
__metal_plic0_enable():
C:/VSD/FreedomStudio-3-1-1-x86_64-w64-mingw32/FreedomStudio-3-1-1/SiFive/freedom-e-sdk-v21.11.00.00/freedom-metal/src/drivers/riscv_plic0.c:86

int __metal_plic0_enable(struct __metal_driver_riscv_plic0 *plic,
                         int context_id, int id, int enable) {
2010375a:	7179                	add	sp,sp,-48
2010375c:	d606                	sw	ra,44(sp)
2010375e:	d422                	sw	s0,40(sp)
20103760:	1800                	add	s0,sp,48
20103762:	fca42e23          	sw	a0,-36(s0)
20103766:	fcb42c23          	sw	a1,-40(s0)
2010376a:	fcc42a23          	sw	a2,-44(s0)
2010376e:	fcd42823          	sw	a3,-48(s0)
C:/VSD/FreedomStudio-3-1-1-x86_64-w64-mingw32/FreedomStudio-3-1-1/SiFive/freedom-e-sdk-v21.11.00.00/freedom-metal/src/drivers/riscv_plic0.c:88
    unsigned int current;
    unsigned long control_base = __metal_driver_sifive_plic0_control_base(
20103772:	fdc42503          	lw	a0,-36(s0)
20103776:	33a5                	jal	201034de <__metal_driver_sifive_plic0_control_base>
20103778:	fea42623          	sw	a0,-20(s0)
C:/VSD/FreedomStudio-3-1-1-x86_64-w64-mingw32/FreedomStudio-3-1-1/SiFive/freedom-e-sdk-v21.11.00.00/freedom-metal/src/drivers/riscv_plic0.c:91
        (struct metal_interrupt *)plic);

    current = __METAL_ACCESS_ONCE(
2010377c:	fd842783          	lw	a5,-40(s0)
20103780:	00779713          	sll	a4,a5,0x7
20103784:	fec42783          	lw	a5,-20(s0)
20103788:	97ba                	add	a5,a5,a4
2010378a:	fd442703          	lw	a4,-44(s0)
2010378e:	8715                	sra	a4,a4,0x5
20103790:	070a                	sll	a4,a4,0x2
20103792:	973e                	add	a4,a4,a5
20103794:	6789                	lui	a5,0x2
20103796:	97ba                	add	a5,a5,a4
20103798:	439c                	lw	a5,0(a5)
2010379a:	fef42423          	sw	a5,-24(s0)
C:/VSD/FreedomStudio-3-1-1-x86_64-w64-mingw32/FreedomStudio-3-1-1/SiFive/freedom-e-sdk-v21.11.00.00/freedom-metal/src/drivers/riscv_plic0.c:100
    __METAL_ACCESS_ONCE(
        (__metal_io_u32 *)(control_base + METAL_RISCV_PLIC0_ENABLE_BASE +
                           (context_id * METAL_RISCV_PLIC0_ENABLE_PER_HART) +
                           ((id >> METAL_PLIC_SOURCE_SHIFT) * 4))) =
        enable ? (current | (1 << (id & METAL_PLIC_SOURCE_MASK)))
               : (current & ~(1 << (id & METAL_PLIC_SOURCE_MASK)));
2010379e:	fd042783          	lw	a5,-48(s0)
201037a2:	cf81                	beqz	a5,201037ba <__metal_plic0_enable+0x60>
C:/VSD/FreedomStudio-3-1-1-x86_64-w64-mingw32/FreedomStudio-3-1-1/SiFive/freedom-e-sdk-v21.11.00.00/freedom-metal/src/drivers/riscv_plic0.c:99
        enable ? (current | (1 << (id & METAL_PLIC_SOURCE_MASK)))
201037a4:	fd442783          	lw	a5,-44(s0)
201037a8:	8bfd                	and	a5,a5,31
201037aa:	4705                	li	a4,1
201037ac:	00f717b3          	sll	a5,a4,a5
201037b0:	873e                	mv	a4,a5
C:/VSD/FreedomStudio-3-1-1-x86_64-w64-mingw32/FreedomStudio-3-1-1/SiFive/freedom-e-sdk-v21.11.00.00/freedom-metal/src/drivers/riscv_plic0.c:100 (discriminator 1)
               : (current & ~(1 << (id & METAL_PLIC_SOURCE_MASK)));
201037b2:	fe842783          	lw	a5,-24(s0)
201037b6:	8fd9                	or	a5,a5,a4
201037b8:	a829                	j	201037d2 <__metal_plic0_enable+0x78>
C:/VSD/FreedomStudio-3-1-1-x86_64-w64-mingw32/FreedomStudio-3-1-1/SiFive/freedom-e-sdk-v21.11.00.00/freedom-metal/src/drivers/riscv_plic0.c:100 (discriminator 2)
201037ba:	fd442783          	lw	a5,-44(s0)
201037be:	8bfd                	and	a5,a5,31
201037c0:	4705                	li	a4,1
201037c2:	00f717b3          	sll	a5,a4,a5
201037c6:	fff7c793          	not	a5,a5
201037ca:	873e                	mv	a4,a5
201037cc:	fe842783          	lw	a5,-24(s0)
201037d0:	8ff9                	and	a5,a5,a4
C:/VSD/FreedomStudio-3-1-1-x86_64-w64-mingw32/FreedomStudio-3-1-1/SiFive/freedom-e-sdk-v21.11.00.00/freedom-metal/src/drivers/riscv_plic0.c:95
    __METAL_ACCESS_ONCE(
201037d2:	fd842703          	lw	a4,-40(s0)
201037d6:	00771693          	sll	a3,a4,0x7
201037da:	fec42703          	lw	a4,-20(s0)
201037de:	9736                	add	a4,a4,a3
201037e0:	fd442683          	lw	a3,-44(s0)
201037e4:	8695                	sra	a3,a3,0x5
201037e6:	068a                	sll	a3,a3,0x2
201037e8:	96ba                	add	a3,a3,a4
201037ea:	6709                	lui	a4,0x2
201037ec:	9736                	add	a4,a4,a3
C:/VSD/FreedomStudio-3-1-1-x86_64-w64-mingw32/FreedomStudio-3-1-1/SiFive/freedom-e-sdk-v21.11.00.00/freedom-metal/src/drivers/riscv_plic0.c:98
                           ((id >> METAL_PLIC_SOURCE_SHIFT) * 4))) =
201037ee:	c31c                	sw	a5,0(a4)
C:/VSD/FreedomStudio-3-1-1-x86_64-w64-mingw32/FreedomStudio-3-1-1/SiFive/freedom-e-sdk-v21.11.00.00/freedom-metal/src/drivers/riscv_plic0.c:102

    return 0;
201037f0:	4781                	li	a5,0
C:/VSD/FreedomStudio-3-1-1-x86_64-w64-mingw32/FreedomStudio-3-1-1/SiFive/freedom-e-sdk-v21.11.00.00/freedom-metal/src/drivers/riscv_plic0.c:103
}
201037f2:	853e                	mv	a0,a5
201037f4:	50b2                	lw	ra,44(sp)
201037f6:	5422                	lw	s0,40(sp)
201037f8:	6145                	add	sp,sp,48
201037fa:	8082                	ret

201037fc <__metal_plic0_default_handler>:
__metal_plic0_default_handler():
C:/VSD/FreedomStudio-3-1-1-x86_64-w64-mingw32/FreedomStudio-3-1-1/SiFive/freedom-e-sdk-v21.11.00.00/freedom-metal/src/drivers/riscv_plic0.c:105

void __metal_plic0_default_handler(int id, void *priv) { metal_shutdown(300); }
201037fc:	1101                	add	sp,sp,-32
201037fe:	ce06                	sw	ra,28(sp)
20103800:	cc22                	sw	s0,24(sp)
20103802:	1000                	add	s0,sp,32
20103804:	fea42623          	sw	a0,-20(s0)
20103808:	feb42423          	sw	a1,-24(s0)
2010380c:	12c00513          	li	a0,300
20103810:	7c3010ef          	jal	201057d2 <metal_shutdown>

20103814 <__metal_plic0_handler>:
__metal_plic0_handler():
C:/VSD/FreedomStudio-3-1-1-x86_64-w64-mingw32/FreedomStudio-3-1-1/SiFive/freedom-e-sdk-v21.11.00.00/freedom-metal/src/drivers/riscv_plic0.c:107

void __metal_plic0_handler(int id, void *priv) {
20103814:	7179                	add	sp,sp,-48
20103816:	d606                	sw	ra,44(sp)
20103818:	d422                	sw	s0,40(sp)
2010381a:	1800                	add	s0,sp,48
2010381c:	fca42e23          	sw	a0,-36(s0)
20103820:	fcb42c23          	sw	a1,-40(s0)
C:/VSD/FreedomStudio-3-1-1-x86_64-w64-mingw32/FreedomStudio-3-1-1/SiFive/freedom-e-sdk-v21.11.00.00/freedom-metal/src/drivers/riscv_plic0.c:108
    struct __metal_driver_riscv_plic0 *plic = priv;
20103824:	fd842783          	lw	a5,-40(s0)
20103828:	fef42623          	sw	a5,-20(s0)
C:/VSD/FreedomStudio-3-1-1-x86_64-w64-mingw32/FreedomStudio-3-1-1/SiFive/freedom-e-sdk-v21.11.00.00/freedom-metal/src/drivers/riscv_plic0.c:110
    int contextid =
        __metal_driver_sifive_plic0_context_ids(__metal_myhart_id());
2010382c:	b84fe0ef          	jal	20101bb0 <__metal_myhart_id>
20103830:	87aa                	mv	a5,a0
C:/VSD/FreedomStudio-3-1-1-x86_64-w64-mingw32/FreedomStudio-3-1-1/SiFive/freedom-e-sdk-v21.11.00.00/freedom-metal/src/drivers/riscv_plic0.c:110 (discriminator 1)
20103832:	853e                	mv	a0,a5
20103834:	3b85                	jal	201035a4 <__metal_driver_sifive_plic0_context_ids>
20103836:	fea42423          	sw	a0,-24(s0)
C:/VSD/FreedomStudio-3-1-1-x86_64-w64-mingw32/FreedomStudio-3-1-1/SiFive/freedom-e-sdk-v21.11.00.00/freedom-metal/src/drivers/riscv_plic0.c:111
    unsigned int idx = __metal_plic0_claim_interrupt(plic, contextid);
2010383a:	fe842583          	lw	a1,-24(s0)
2010383e:	fec42503          	lw	a0,-20(s0)
20103842:	3341                	jal	201035c2 <__metal_plic0_claim_interrupt>
20103844:	fea42223          	sw	a0,-28(s0)
C:/VSD/FreedomStudio-3-1-1-x86_64-w64-mingw32/FreedomStudio-3-1-1/SiFive/freedom-e-sdk-v21.11.00.00/freedom-metal/src/drivers/riscv_plic0.c:112
    unsigned int num_interrupts = __metal_driver_sifive_plic0_num_interrupts(
20103848:	fec42503          	lw	a0,-20(s0)
2010384c:	3975                	jal	20103508 <__metal_driver_sifive_plic0_num_interrupts>
2010384e:	87aa                	mv	a5,a0
C:/VSD/FreedomStudio-3-1-1-x86_64-w64-mingw32/FreedomStudio-3-1-1/SiFive/freedom-e-sdk-v21.11.00.00/freedom-metal/src/drivers/riscv_plic0.c:112 (discriminator 1)
20103850:	fef42023          	sw	a5,-32(s0)
C:/VSD/FreedomStudio-3-1-1-x86_64-w64-mingw32/FreedomStudio-3-1-1/SiFive/freedom-e-sdk-v21.11.00.00/freedom-metal/src/drivers/riscv_plic0.c:115
        (struct metal_interrupt *)plic);

    if ((idx < num_interrupts) && (plic->metal_exint_table[idx])) {
20103854:	fe442703          	lw	a4,-28(s0)
20103858:	fe042783          	lw	a5,-32(s0)
2010385c:	04f77063          	bgeu	a4,a5,2010389c <__metal_plic0_handler+0x88>
C:/VSD/FreedomStudio-3-1-1-x86_64-w64-mingw32/FreedomStudio-3-1-1/SiFive/freedom-e-sdk-v21.11.00.00/freedom-metal/src/drivers/riscv_plic0.c:115 (discriminator 1)
20103860:	fec42703          	lw	a4,-20(s0)
20103864:	fe442783          	lw	a5,-28(s0)
20103868:	078a                	sll	a5,a5,0x2
2010386a:	97ba                	add	a5,a5,a4
2010386c:	479c                	lw	a5,8(a5)
2010386e:	c79d                	beqz	a5,2010389c <__metal_plic0_handler+0x88>
C:/VSD/FreedomStudio-3-1-1-x86_64-w64-mingw32/FreedomStudio-3-1-1/SiFive/freedom-e-sdk-v21.11.00.00/freedom-metal/src/drivers/riscv_plic0.c:116
        plic->metal_exint_table[idx](idx,
20103870:	fec42703          	lw	a4,-20(s0)
20103874:	fe442783          	lw	a5,-28(s0)
20103878:	078a                	sll	a5,a5,0x2
2010387a:	97ba                	add	a5,a5,a4
2010387c:	4794                	lw	a3,8(a5)
2010387e:	fe442503          	lw	a0,-28(s0)
20103882:	fec42603          	lw	a2,-20(s0)
20103886:	fe442703          	lw	a4,-28(s0)
2010388a:	87ba                	mv	a5,a4
2010388c:	0786                	sll	a5,a5,0x1
2010388e:	97ba                	add	a5,a5,a4
20103890:	078e                	sll	a5,a5,0x3
20103892:	97b2                	add	a5,a5,a2
20103894:	0f07a783          	lw	a5,240(a5) # 20f0 <__heap_size+0x18f0>
20103898:	85be                	mv	a1,a5
2010389a:	9682                	jalr	a3
C:/VSD/FreedomStudio-3-1-1-x86_64-w64-mingw32/FreedomStudio-3-1-1/SiFive/freedom-e-sdk-v21.11.00.00/freedom-metal/src/drivers/riscv_plic0.c:120
                                     plic->metal_exdata_table[idx].exint_data);
    }

    __metal_plic0_complete_interrupt(plic, contextid, idx);
2010389c:	fe442603          	lw	a2,-28(s0)
201038a0:	fe842583          	lw	a1,-24(s0)
201038a4:	fec42503          	lw	a0,-20(s0)
201038a8:	3b99                	jal	201035fe <__metal_plic0_complete_interrupt>
C:/VSD/FreedomStudio-3-1-1-x86_64-w64-mingw32/FreedomStudio-3-1-1/SiFive/freedom-e-sdk-v21.11.00.00/freedom-metal/src/drivers/riscv_plic0.c:121
}
201038aa:	0001                	nop
201038ac:	50b2                	lw	ra,44(sp)
201038ae:	5422                	lw	s0,40(sp)
201038b0:	6145                	add	sp,sp,48
201038b2:	8082                	ret

201038b4 <__metal_driver_riscv_plic0_init>:
__metal_driver_riscv_plic0_init():
C:/VSD/FreedomStudio-3-1-1-x86_64-w64-mingw32/FreedomStudio-3-1-1/SiFive/freedom-e-sdk-v21.11.00.00/freedom-metal/src/drivers/riscv_plic0.c:123

void __metal_driver_riscv_plic0_init(struct metal_interrupt *controller) {
201038b4:	7139                	add	sp,sp,-64
201038b6:	de06                	sw	ra,60(sp)
201038b8:	dc22                	sw	s0,56(sp)
201038ba:	0080                	add	s0,sp,64
201038bc:	fca42623          	sw	a0,-52(s0)
C:/VSD/FreedomStudio-3-1-1-x86_64-w64-mingw32/FreedomStudio-3-1-1/SiFive/freedom-e-sdk-v21.11.00.00/freedom-metal/src/drivers/riscv_plic0.c:124
    struct __metal_driver_riscv_plic0 *plic = (void *)(controller);
201038c0:	fcc42783          	lw	a5,-52(s0)
201038c4:	fef42223          	sw	a5,-28(s0)
C:/VSD/FreedomStudio-3-1-1-x86_64-w64-mingw32/FreedomStudio-3-1-1/SiFive/freedom-e-sdk-v21.11.00.00/freedom-metal/src/drivers/riscv_plic0.c:126

    if (!plic->init_done) {
201038c8:	fe442783          	lw	a5,-28(s0)
201038cc:	43dc                	lw	a5,4(a5)
201038ce:	12079663          	bnez	a5,201039fa <__metal_driver_riscv_plic0_init+0x146>
C:/VSD/FreedomStudio-3-1-1-x86_64-w64-mingw32/FreedomStudio-3-1-1/SiFive/freedom-e-sdk-v21.11.00.00/freedom-metal/src/drivers/riscv_plic0.c:130
        int num_interrupts, line;
        struct metal_interrupt *intc;

        for (int parent = 0; parent < __METAL_PLIC_NUM_PARENTS; parent++) {
201038d2:	fe042623          	sw	zero,-20(s0)
201038d6:	aa11                	j	201039ea <__metal_driver_riscv_plic0_init+0x136>
C:/VSD/FreedomStudio-3-1-1-x86_64-w64-mingw32/FreedomStudio-3-1-1/SiFive/freedom-e-sdk-v21.11.00.00/freedom-metal/src/drivers/riscv_plic0.c:132
            num_interrupts =
                __metal_driver_sifive_plic0_num_interrupts(controller);
201038d8:	fcc42503          	lw	a0,-52(s0)
201038dc:	3135                	jal	20103508 <__metal_driver_sifive_plic0_num_interrupts>
201038de:	fea42023          	sw	a0,-32(s0)
C:/VSD/FreedomStudio-3-1-1-x86_64-w64-mingw32/FreedomStudio-3-1-1/SiFive/freedom-e-sdk-v21.11.00.00/freedom-metal/src/drivers/riscv_plic0.c:133
            intc = __metal_driver_sifive_plic0_interrupt_parents(controller,
201038e2:	fec42583          	lw	a1,-20(s0)
201038e6:	fcc42503          	lw	a0,-52(s0)
201038ea:	3985                	jal	2010355a <__metal_driver_sifive_plic0_interrupt_parents>
201038ec:	fca42e23          	sw	a0,-36(s0)
C:/VSD/FreedomStudio-3-1-1-x86_64-w64-mingw32/FreedomStudio-3-1-1/SiFive/freedom-e-sdk-v21.11.00.00/freedom-metal/src/drivers/riscv_plic0.c:136
                                                                 parent);
            line =
                __metal_driver_sifive_plic0_interrupt_lines(controller, parent);
201038f0:	fec42583          	lw	a1,-20(s0)
201038f4:	fcc42503          	lw	a0,-52(s0)
201038f8:	3169                	jal	20103582 <__metal_driver_sifive_plic0_interrupt_lines>
201038fa:	fca42c23          	sw	a0,-40(s0)
C:/VSD/FreedomStudio-3-1-1-x86_64-w64-mingw32/FreedomStudio-3-1-1/SiFive/freedom-e-sdk-v21.11.00.00/freedom-metal/src/drivers/riscv_plic0.c:139

            /* Initialize ist parent controller, aka cpu_intc. */
            intc->vtable->interrupt_init(intc);
201038fe:	fdc42783          	lw	a5,-36(s0)
20103902:	439c                	lw	a5,0(a5)
20103904:	439c                	lw	a5,0(a5)
20103906:	fdc42503          	lw	a0,-36(s0)
2010390a:	9782                	jalr	a5
C:/VSD/FreedomStudio-3-1-1-x86_64-w64-mingw32/FreedomStudio-3-1-1/SiFive/freedom-e-sdk-v21.11.00.00/freedom-metal/src/drivers/riscv_plic0.c:141

            for (int i = 0; i < PLIC0_MAX_INTERRUPTS; i++) {
2010390c:	fe042423          	sw	zero,-24(s0)
20103910:	a885                	j	20103980 <__metal_driver_riscv_plic0_init+0xcc>
C:/VSD/FreedomStudio-3-1-1-x86_64-w64-mingw32/FreedomStudio-3-1-1/SiFive/freedom-e-sdk-v21.11.00.00/freedom-metal/src/drivers/riscv_plic0.c:142
                __metal_plic0_enable(plic, parent, i, METAL_DISABLE);
20103912:	4681                	li	a3,0
20103914:	fe842603          	lw	a2,-24(s0)
20103918:	fec42583          	lw	a1,-20(s0)
2010391c:	fe442503          	lw	a0,-28(s0)
20103920:	3d2d                	jal	2010375a <__metal_plic0_enable>
C:/VSD/FreedomStudio-3-1-1-x86_64-w64-mingw32/FreedomStudio-3-1-1/SiFive/freedom-e-sdk-v21.11.00.00/freedom-metal/src/drivers/riscv_plic0.c:143
                if (i < num_interrupts) {
20103922:	fe842703          	lw	a4,-24(s0)
20103926:	fe042783          	lw	a5,-32(s0)
2010392a:	04f75663          	bge	a4,a5,20103976 <__metal_driver_riscv_plic0_init+0xc2>
C:/VSD/FreedomStudio-3-1-1-x86_64-w64-mingw32/FreedomStudio-3-1-1/SiFive/freedom-e-sdk-v21.11.00.00/freedom-metal/src/drivers/riscv_plic0.c:144
                    __metal_driver_riscv_plic0_set_priority(controller, i, 0);
2010392e:	4601                	li	a2,0
20103930:	fe842583          	lw	a1,-24(s0)
20103934:	fcc42503          	lw	a0,-52(s0)
20103938:	3371                	jal	201036c4 <__metal_driver_riscv_plic0_set_priority>
C:/VSD/FreedomStudio-3-1-1-x86_64-w64-mingw32/FreedomStudio-3-1-1/SiFive/freedom-e-sdk-v21.11.00.00/freedom-metal/src/drivers/riscv_plic0.c:145
                    plic->metal_exint_table[i] = NULL;
2010393a:	fe442703          	lw	a4,-28(s0)
2010393e:	fe842783          	lw	a5,-24(s0)
20103942:	078a                	sll	a5,a5,0x2
20103944:	97ba                	add	a5,a5,a4
20103946:	0007a423          	sw	zero,8(a5)
C:/VSD/FreedomStudio-3-1-1-x86_64-w64-mingw32/FreedomStudio-3-1-1/SiFive/freedom-e-sdk-v21.11.00.00/freedom-metal/src/drivers/riscv_plic0.c:146
                    plic->metal_exdata_table[i].sub_int = NULL;
2010394a:	fe442683          	lw	a3,-28(s0)
2010394e:	fe842703          	lw	a4,-24(s0)
20103952:	87ba                	mv	a5,a4
20103954:	0786                	sll	a5,a5,0x1
20103956:	97ba                	add	a5,a5,a4
20103958:	078e                	sll	a5,a5,0x3
2010395a:	97b6                	add	a5,a5,a3
2010395c:	0e07a623          	sw	zero,236(a5)
C:/VSD/FreedomStudio-3-1-1-x86_64-w64-mingw32/FreedomStudio-3-1-1/SiFive/freedom-e-sdk-v21.11.00.00/freedom-metal/src/drivers/riscv_plic0.c:147
                    plic->metal_exdata_table[i].exint_data = NULL;
20103960:	fe442683          	lw	a3,-28(s0)
20103964:	fe842703          	lw	a4,-24(s0)
20103968:	87ba                	mv	a5,a4
2010396a:	0786                	sll	a5,a5,0x1
2010396c:	97ba                	add	a5,a5,a4
2010396e:	078e                	sll	a5,a5,0x3
20103970:	97b6                	add	a5,a5,a3
20103972:	0e07a823          	sw	zero,240(a5)
C:/VSD/FreedomStudio-3-1-1-x86_64-w64-mingw32/FreedomStudio-3-1-1/SiFive/freedom-e-sdk-v21.11.00.00/freedom-metal/src/drivers/riscv_plic0.c:141 (discriminator 2)
            for (int i = 0; i < PLIC0_MAX_INTERRUPTS; i++) {
20103976:	fe842783          	lw	a5,-24(s0)
2010397a:	0785                	add	a5,a5,1
2010397c:	fef42423          	sw	a5,-24(s0)
C:/VSD/FreedomStudio-3-1-1-x86_64-w64-mingw32/FreedomStudio-3-1-1/SiFive/freedom-e-sdk-v21.11.00.00/freedom-metal/src/drivers/riscv_plic0.c:141 (discriminator 1)
20103980:	fe842703          	lw	a4,-24(s0)
20103984:	3ff00793          	li	a5,1023
20103988:	f8e7d5e3          	bge	a5,a4,20103912 <__metal_driver_riscv_plic0_init+0x5e>
C:/VSD/FreedomStudio-3-1-1-x86_64-w64-mingw32/FreedomStudio-3-1-1/SiFive/freedom-e-sdk-v21.11.00.00/freedom-metal/src/drivers/riscv_plic0.c:151
                }
            }

            __metal_plic0_set_threshold(controller, parent, 0);
2010398c:	4601                	li	a2,0
2010398e:	fec42583          	lw	a1,-20(s0)
20103992:	fcc42503          	lw	a0,-52(s0)
20103996:	317d                	jal	20103644 <__metal_plic0_set_threshold>
C:/VSD/FreedomStudio-3-1-1-x86_64-w64-mingw32/FreedomStudio-3-1-1/SiFive/freedom-e-sdk-v21.11.00.00/freedom-metal/src/drivers/riscv_plic0.c:154

            /* Register plic (ext) interrupt with with parent controller */
            intc->vtable->interrupt_register(intc, line, NULL, plic);
20103998:	fdc42783          	lw	a5,-36(s0)
2010399c:	439c                	lw	a5,0(a5)
2010399e:	4fdc                	lw	a5,28(a5)
201039a0:	fe442683          	lw	a3,-28(s0)
201039a4:	4601                	li	a2,0
201039a6:	fd842583          	lw	a1,-40(s0)
201039aa:	fdc42503          	lw	a0,-36(s0)
201039ae:	9782                	jalr	a5
C:/VSD/FreedomStudio-3-1-1-x86_64-w64-mingw32/FreedomStudio-3-1-1/SiFive/freedom-e-sdk-v21.11.00.00/freedom-metal/src/drivers/riscv_plic0.c:156
            /* Register plic handler for dispatching its device interrupts */
            intc->vtable->interrupt_register(intc, line, __metal_plic0_handler,
201039b0:	fdc42783          	lw	a5,-36(s0)
201039b4:	439c                	lw	a5,0(a5)
201039b6:	4fdc                	lw	a5,28(a5)
201039b8:	fe442683          	lw	a3,-28(s0)
201039bc:	20104737          	lui	a4,0x20104
201039c0:	81470613          	add	a2,a4,-2028 # 20103814 <__metal_plic0_handler>
201039c4:	fd842583          	lw	a1,-40(s0)
201039c8:	fdc42503          	lw	a0,-36(s0)
201039cc:	9782                	jalr	a5
C:/VSD/FreedomStudio-3-1-1-x86_64-w64-mingw32/FreedomStudio-3-1-1/SiFive/freedom-e-sdk-v21.11.00.00/freedom-metal/src/drivers/riscv_plic0.c:159
                                             plic);
            /* Enable plic (ext) interrupt with with parent controller */
            intc->vtable->interrupt_enable(intc, line);
201039ce:	fdc42783          	lw	a5,-36(s0)
201039d2:	439c                	lw	a5,0(a5)
201039d4:	53dc                	lw	a5,36(a5)
201039d6:	fd842583          	lw	a1,-40(s0)
201039da:	fdc42503          	lw	a0,-36(s0)
201039de:	9782                	jalr	a5
C:/VSD/FreedomStudio-3-1-1-x86_64-w64-mingw32/FreedomStudio-3-1-1/SiFive/freedom-e-sdk-v21.11.00.00/freedom-metal/src/drivers/riscv_plic0.c:130 (discriminator 2)
        for (int parent = 0; parent < __METAL_PLIC_NUM_PARENTS; parent++) {
201039e0:	fec42783          	lw	a5,-20(s0)
201039e4:	0785                	add	a5,a5,1
201039e6:	fef42623          	sw	a5,-20(s0)
C:/VSD/FreedomStudio-3-1-1-x86_64-w64-mingw32/FreedomStudio-3-1-1/SiFive/freedom-e-sdk-v21.11.00.00/freedom-metal/src/drivers/riscv_plic0.c:130 (discriminator 1)
201039ea:	fec42783          	lw	a5,-20(s0)
201039ee:	eef055e3          	blez	a5,201038d8 <__metal_driver_riscv_plic0_init+0x24>
C:/VSD/FreedomStudio-3-1-1-x86_64-w64-mingw32/FreedomStudio-3-1-1/SiFive/freedom-e-sdk-v21.11.00.00/freedom-metal/src/drivers/riscv_plic0.c:161
        }
        plic->init_done = 1;
201039f2:	fe442783          	lw	a5,-28(s0)
201039f6:	4705                	li	a4,1
201039f8:	c3d8                	sw	a4,4(a5)
C:/VSD/FreedomStudio-3-1-1-x86_64-w64-mingw32/FreedomStudio-3-1-1/SiFive/freedom-e-sdk-v21.11.00.00/freedom-metal/src/drivers/riscv_plic0.c:163
    }
}
201039fa:	0001                	nop
201039fc:	50f2                	lw	ra,60(sp)
201039fe:	5462                	lw	s0,56(sp)
20103a00:	6121                	add	sp,sp,64
20103a02:	8082                	ret

20103a04 <__metal_driver_riscv_plic0_register>:
__metal_driver_riscv_plic0_register():
C:/VSD/FreedomStudio-3-1-1-x86_64-w64-mingw32/FreedomStudio-3-1-1/SiFive/freedom-e-sdk-v21.11.00.00/freedom-metal/src/drivers/riscv_plic0.c:167

int __metal_driver_riscv_plic0_register(struct metal_interrupt *controller,
                                        int id, metal_interrupt_handler_t isr,
                                        void *priv) {
20103a04:	7179                	add	sp,sp,-48
20103a06:	d606                	sw	ra,44(sp)
20103a08:	d422                	sw	s0,40(sp)
20103a0a:	1800                	add	s0,sp,48
20103a0c:	fca42e23          	sw	a0,-36(s0)
20103a10:	fcb42c23          	sw	a1,-40(s0)
20103a14:	fcc42a23          	sw	a2,-44(s0)
20103a18:	fcd42823          	sw	a3,-48(s0)
C:/VSD/FreedomStudio-3-1-1-x86_64-w64-mingw32/FreedomStudio-3-1-1/SiFive/freedom-e-sdk-v21.11.00.00/freedom-metal/src/drivers/riscv_plic0.c:168
    struct __metal_driver_riscv_plic0 *plic = (void *)(controller);
20103a1c:	fdc42783          	lw	a5,-36(s0)
20103a20:	fef42623          	sw	a5,-20(s0)
C:/VSD/FreedomStudio-3-1-1-x86_64-w64-mingw32/FreedomStudio-3-1-1/SiFive/freedom-e-sdk-v21.11.00.00/freedom-metal/src/drivers/riscv_plic0.c:170

    if (id >= __metal_driver_sifive_plic0_num_interrupts(controller)) {
20103a24:	fdc42503          	lw	a0,-36(s0)
20103a28:	ae1ff0ef          	jal	20103508 <__metal_driver_sifive_plic0_num_interrupts>
20103a2c:	872a                	mv	a4,a0
C:/VSD/FreedomStudio-3-1-1-x86_64-w64-mingw32/FreedomStudio-3-1-1/SiFive/freedom-e-sdk-v21.11.00.00/freedom-metal/src/drivers/riscv_plic0.c:170 (discriminator 1)
20103a2e:	fd842783          	lw	a5,-40(s0)
20103a32:	00e7c463          	blt	a5,a4,20103a3a <__metal_driver_riscv_plic0_register+0x36>
C:/VSD/FreedomStudio-3-1-1-x86_64-w64-mingw32/FreedomStudio-3-1-1/SiFive/freedom-e-sdk-v21.11.00.00/freedom-metal/src/drivers/riscv_plic0.c:171
        return -1;
20103a36:	57fd                	li	a5,-1
20103a38:	a041                	j	20103ab8 <__metal_driver_riscv_plic0_register+0xb4>
C:/VSD/FreedomStudio-3-1-1-x86_64-w64-mingw32/FreedomStudio-3-1-1/SiFive/freedom-e-sdk-v21.11.00.00/freedom-metal/src/drivers/riscv_plic0.c:174
    }

    if (isr) {
20103a3a:	fd442783          	lw	a5,-44(s0)
20103a3e:	cf95                	beqz	a5,20103a7a <__metal_driver_riscv_plic0_register+0x76>
C:/VSD/FreedomStudio-3-1-1-x86_64-w64-mingw32/FreedomStudio-3-1-1/SiFive/freedom-e-sdk-v21.11.00.00/freedom-metal/src/drivers/riscv_plic0.c:175
        __metal_driver_riscv_plic0_set_priority(controller, id, 2);
20103a40:	4609                	li	a2,2
20103a42:	fd842583          	lw	a1,-40(s0)
20103a46:	fdc42503          	lw	a0,-36(s0)
20103a4a:	39ad                	jal	201036c4 <__metal_driver_riscv_plic0_set_priority>
C:/VSD/FreedomStudio-3-1-1-x86_64-w64-mingw32/FreedomStudio-3-1-1/SiFive/freedom-e-sdk-v21.11.00.00/freedom-metal/src/drivers/riscv_plic0.c:176
        plic->metal_exint_table[id] = isr;
20103a4c:	fec42703          	lw	a4,-20(s0)
20103a50:	fd842783          	lw	a5,-40(s0)
20103a54:	078a                	sll	a5,a5,0x2
20103a56:	97ba                	add	a5,a5,a4
20103a58:	fd442703          	lw	a4,-44(s0)
20103a5c:	c798                	sw	a4,8(a5)
C:/VSD/FreedomStudio-3-1-1-x86_64-w64-mingw32/FreedomStudio-3-1-1/SiFive/freedom-e-sdk-v21.11.00.00/freedom-metal/src/drivers/riscv_plic0.c:177
        plic->metal_exdata_table[id].exint_data = priv;
20103a5e:	fec42683          	lw	a3,-20(s0)
20103a62:	fd842703          	lw	a4,-40(s0)
20103a66:	87ba                	mv	a5,a4
20103a68:	0786                	sll	a5,a5,0x1
20103a6a:	97ba                	add	a5,a5,a4
20103a6c:	078e                	sll	a5,a5,0x3
20103a6e:	97b6                	add	a5,a5,a3
20103a70:	fd042703          	lw	a4,-48(s0)
20103a74:	0ee7a823          	sw	a4,240(a5)
20103a78:	a83d                	j	20103ab6 <__metal_driver_riscv_plic0_register+0xb2>
C:/VSD/FreedomStudio-3-1-1-x86_64-w64-mingw32/FreedomStudio-3-1-1/SiFive/freedom-e-sdk-v21.11.00.00/freedom-metal/src/drivers/riscv_plic0.c:179
    } else {
        __metal_driver_riscv_plic0_set_priority(controller, id, 1);
20103a7a:	4605                	li	a2,1
20103a7c:	fd842583          	lw	a1,-40(s0)
20103a80:	fdc42503          	lw	a0,-36(s0)
20103a84:	3181                	jal	201036c4 <__metal_driver_riscv_plic0_set_priority>
C:/VSD/FreedomStudio-3-1-1-x86_64-w64-mingw32/FreedomStudio-3-1-1/SiFive/freedom-e-sdk-v21.11.00.00/freedom-metal/src/drivers/riscv_plic0.c:180
        plic->metal_exint_table[id] = __metal_plic0_default_handler;
20103a86:	fec42703          	lw	a4,-20(s0)
20103a8a:	fd842783          	lw	a5,-40(s0)
20103a8e:	078a                	sll	a5,a5,0x2
20103a90:	97ba                	add	a5,a5,a4
20103a92:	20103737          	lui	a4,0x20103
20103a96:	7fc70713          	add	a4,a4,2044 # 201037fc <__metal_plic0_default_handler>
20103a9a:	c798                	sw	a4,8(a5)
C:/VSD/FreedomStudio-3-1-1-x86_64-w64-mingw32/FreedomStudio-3-1-1/SiFive/freedom-e-sdk-v21.11.00.00/freedom-metal/src/drivers/riscv_plic0.c:181
        plic->metal_exdata_table[id].sub_int = priv;
20103a9c:	fec42683          	lw	a3,-20(s0)
20103aa0:	fd842703          	lw	a4,-40(s0)
20103aa4:	87ba                	mv	a5,a4
20103aa6:	0786                	sll	a5,a5,0x1
20103aa8:	97ba                	add	a5,a5,a4
20103aaa:	078e                	sll	a5,a5,0x3
20103aac:	97b6                	add	a5,a5,a3
20103aae:	fd042703          	lw	a4,-48(s0)
20103ab2:	0ee7a623          	sw	a4,236(a5)
C:/VSD/FreedomStudio-3-1-1-x86_64-w64-mingw32/FreedomStudio-3-1-1/SiFive/freedom-e-sdk-v21.11.00.00/freedom-metal/src/drivers/riscv_plic0.c:184
    }

    return 0;
20103ab6:	4781                	li	a5,0
C:/VSD/FreedomStudio-3-1-1-x86_64-w64-mingw32/FreedomStudio-3-1-1/SiFive/freedom-e-sdk-v21.11.00.00/freedom-metal/src/drivers/riscv_plic0.c:185
}
20103ab8:	853e                	mv	a0,a5
20103aba:	50b2                	lw	ra,44(sp)
20103abc:	5422                	lw	s0,40(sp)
20103abe:	6145                	add	sp,sp,48
20103ac0:	8082                	ret

20103ac2 <__metal_driver_riscv_plic0_enable>:
__metal_driver_riscv_plic0_enable():
C:/VSD/FreedomStudio-3-1-1-x86_64-w64-mingw32/FreedomStudio-3-1-1/SiFive/freedom-e-sdk-v21.11.00.00/freedom-metal/src/drivers/riscv_plic0.c:188

int __metal_driver_riscv_plic0_enable(struct metal_interrupt *controller,
                                      int id) {
20103ac2:	7179                	add	sp,sp,-48
20103ac4:	d606                	sw	ra,44(sp)
20103ac6:	d422                	sw	s0,40(sp)
20103ac8:	1800                	add	s0,sp,48
20103aca:	fca42e23          	sw	a0,-36(s0)
20103ace:	fcb42c23          	sw	a1,-40(s0)
C:/VSD/FreedomStudio-3-1-1-x86_64-w64-mingw32/FreedomStudio-3-1-1/SiFive/freedom-e-sdk-v21.11.00.00/freedom-metal/src/drivers/riscv_plic0.c:189
    struct __metal_driver_riscv_plic0 *plic = (void *)(controller);
20103ad2:	fdc42783          	lw	a5,-36(s0)
20103ad6:	fef42623          	sw	a5,-20(s0)
C:/VSD/FreedomStudio-3-1-1-x86_64-w64-mingw32/FreedomStudio-3-1-1/SiFive/freedom-e-sdk-v21.11.00.00/freedom-metal/src/drivers/riscv_plic0.c:191

    if (id >= __metal_driver_sifive_plic0_num_interrupts(controller)) {
20103ada:	fdc42503          	lw	a0,-36(s0)
20103ade:	a2bff0ef          	jal	20103508 <__metal_driver_sifive_plic0_num_interrupts>
20103ae2:	872a                	mv	a4,a0
C:/VSD/FreedomStudio-3-1-1-x86_64-w64-mingw32/FreedomStudio-3-1-1/SiFive/freedom-e-sdk-v21.11.00.00/freedom-metal/src/drivers/riscv_plic0.c:191 (discriminator 1)
20103ae4:	fd842783          	lw	a5,-40(s0)
20103ae8:	00e7c463          	blt	a5,a4,20103af0 <__metal_driver_riscv_plic0_enable+0x2e>
C:/VSD/FreedomStudio-3-1-1-x86_64-w64-mingw32/FreedomStudio-3-1-1/SiFive/freedom-e-sdk-v21.11.00.00/freedom-metal/src/drivers/riscv_plic0.c:192
        return -1;
20103aec:	57fd                	li	a5,-1
20103aee:	a821                	j	20103b06 <__metal_driver_riscv_plic0_enable+0x44>
C:/VSD/FreedomStudio-3-1-1-x86_64-w64-mingw32/FreedomStudio-3-1-1/SiFive/freedom-e-sdk-v21.11.00.00/freedom-metal/src/drivers/riscv_plic0.c:195
    }

    __metal_plic0_enable(plic, __metal_myhart_id(), id, METAL_ENABLE);
20103af0:	8c0fe0ef          	jal	20101bb0 <__metal_myhart_id>
20103af4:	87aa                	mv	a5,a0
C:/VSD/FreedomStudio-3-1-1-x86_64-w64-mingw32/FreedomStudio-3-1-1/SiFive/freedom-e-sdk-v21.11.00.00/freedom-metal/src/drivers/riscv_plic0.c:195 (discriminator 1)
20103af6:	4685                	li	a3,1
20103af8:	fd842603          	lw	a2,-40(s0)
20103afc:	85be                	mv	a1,a5
20103afe:	fec42503          	lw	a0,-20(s0)
20103b02:	39a1                	jal	2010375a <__metal_plic0_enable>
C:/VSD/FreedomStudio-3-1-1-x86_64-w64-mingw32/FreedomStudio-3-1-1/SiFive/freedom-e-sdk-v21.11.00.00/freedom-metal/src/drivers/riscv_plic0.c:196
    return 0;
20103b04:	4781                	li	a5,0
C:/VSD/FreedomStudio-3-1-1-x86_64-w64-mingw32/FreedomStudio-3-1-1/SiFive/freedom-e-sdk-v21.11.00.00/freedom-metal/src/drivers/riscv_plic0.c:197
}
20103b06:	853e                	mv	a0,a5
20103b08:	50b2                	lw	ra,44(sp)
20103b0a:	5422                	lw	s0,40(sp)
20103b0c:	6145                	add	sp,sp,48
20103b0e:	8082                	ret

20103b10 <__metal_driver_riscv_plic0_disable>:
__metal_driver_riscv_plic0_disable():
C:/VSD/FreedomStudio-3-1-1-x86_64-w64-mingw32/FreedomStudio-3-1-1/SiFive/freedom-e-sdk-v21.11.00.00/freedom-metal/src/drivers/riscv_plic0.c:200

int __metal_driver_riscv_plic0_disable(struct metal_interrupt *controller,
                                       int id) {
20103b10:	7179                	add	sp,sp,-48
20103b12:	d606                	sw	ra,44(sp)
20103b14:	d422                	sw	s0,40(sp)
20103b16:	1800                	add	s0,sp,48
20103b18:	fca42e23          	sw	a0,-36(s0)
20103b1c:	fcb42c23          	sw	a1,-40(s0)
C:/VSD/FreedomStudio-3-1-1-x86_64-w64-mingw32/FreedomStudio-3-1-1/SiFive/freedom-e-sdk-v21.11.00.00/freedom-metal/src/drivers/riscv_plic0.c:201
    struct __metal_driver_riscv_plic0 *plic = (void *)(controller);
20103b20:	fdc42783          	lw	a5,-36(s0)
20103b24:	fef42623          	sw	a5,-20(s0)
C:/VSD/FreedomStudio-3-1-1-x86_64-w64-mingw32/FreedomStudio-3-1-1/SiFive/freedom-e-sdk-v21.11.00.00/freedom-metal/src/drivers/riscv_plic0.c:203

    if (id >= __metal_driver_sifive_plic0_num_interrupts(controller)) {
20103b28:	fdc42503          	lw	a0,-36(s0)
20103b2c:	9ddff0ef          	jal	20103508 <__metal_driver_sifive_plic0_num_interrupts>
20103b30:	872a                	mv	a4,a0
C:/VSD/FreedomStudio-3-1-1-x86_64-w64-mingw32/FreedomStudio-3-1-1/SiFive/freedom-e-sdk-v21.11.00.00/freedom-metal/src/drivers/riscv_plic0.c:203 (discriminator 1)
20103b32:	fd842783          	lw	a5,-40(s0)
20103b36:	00e7c463          	blt	a5,a4,20103b3e <__metal_driver_riscv_plic0_disable+0x2e>
C:/VSD/FreedomStudio-3-1-1-x86_64-w64-mingw32/FreedomStudio-3-1-1/SiFive/freedom-e-sdk-v21.11.00.00/freedom-metal/src/drivers/riscv_plic0.c:204
        return -1;
20103b3a:	57fd                	li	a5,-1
20103b3c:	a821                	j	20103b54 <__metal_driver_riscv_plic0_disable+0x44>
C:/VSD/FreedomStudio-3-1-1-x86_64-w64-mingw32/FreedomStudio-3-1-1/SiFive/freedom-e-sdk-v21.11.00.00/freedom-metal/src/drivers/riscv_plic0.c:206
    }
    __metal_plic0_enable(plic, __metal_myhart_id(), id, METAL_DISABLE);
20103b3e:	872fe0ef          	jal	20101bb0 <__metal_myhart_id>
20103b42:	87aa                	mv	a5,a0
C:/VSD/FreedomStudio-3-1-1-x86_64-w64-mingw32/FreedomStudio-3-1-1/SiFive/freedom-e-sdk-v21.11.00.00/freedom-metal/src/drivers/riscv_plic0.c:206 (discriminator 1)
20103b44:	4681                	li	a3,0
20103b46:	fd842603          	lw	a2,-40(s0)
20103b4a:	85be                	mv	a1,a5
20103b4c:	fec42503          	lw	a0,-20(s0)
20103b50:	3129                	jal	2010375a <__metal_plic0_enable>
C:/VSD/FreedomStudio-3-1-1-x86_64-w64-mingw32/FreedomStudio-3-1-1/SiFive/freedom-e-sdk-v21.11.00.00/freedom-metal/src/drivers/riscv_plic0.c:207
    return 0;
20103b52:	4781                	li	a5,0
C:/VSD/FreedomStudio-3-1-1-x86_64-w64-mingw32/FreedomStudio-3-1-1/SiFive/freedom-e-sdk-v21.11.00.00/freedom-metal/src/drivers/riscv_plic0.c:208
}
20103b54:	853e                	mv	a0,a5
20103b56:	50b2                	lw	ra,44(sp)
20103b58:	5422                	lw	s0,40(sp)
20103b5a:	6145                	add	sp,sp,48
20103b5c:	8082                	ret

20103b5e <__metal_driver_riscv_plic0_set_threshold>:
__metal_driver_riscv_plic0_set_threshold():
C:/VSD/FreedomStudio-3-1-1-x86_64-w64-mingw32/FreedomStudio-3-1-1/SiFive/freedom-e-sdk-v21.11.00.00/freedom-metal/src/drivers/riscv_plic0.c:211

int __metal_driver_riscv_plic0_set_threshold(struct metal_interrupt *controller,
                                             unsigned int threshold) {
20103b5e:	1101                	add	sp,sp,-32
20103b60:	ce06                	sw	ra,28(sp)
20103b62:	cc22                	sw	s0,24(sp)
20103b64:	1000                	add	s0,sp,32
20103b66:	fea42623          	sw	a0,-20(s0)
20103b6a:	feb42423          	sw	a1,-24(s0)
C:/VSD/FreedomStudio-3-1-1-x86_64-w64-mingw32/FreedomStudio-3-1-1/SiFive/freedom-e-sdk-v21.11.00.00/freedom-metal/src/drivers/riscv_plic0.c:212
    return __metal_plic0_set_threshold(controller, __metal_myhart_id(),
20103b6e:	842fe0ef          	jal	20101bb0 <__metal_myhart_id>
20103b72:	87aa                	mv	a5,a0
C:/VSD/FreedomStudio-3-1-1-x86_64-w64-mingw32/FreedomStudio-3-1-1/SiFive/freedom-e-sdk-v21.11.00.00/freedom-metal/src/drivers/riscv_plic0.c:212 (discriminator 1)
20103b74:	fe842603          	lw	a2,-24(s0)
20103b78:	85be                	mv	a1,a5
20103b7a:	fec42503          	lw	a0,-20(s0)
20103b7e:	ac7ff0ef          	jal	20103644 <__metal_plic0_set_threshold>
20103b82:	87aa                	mv	a5,a0
C:/VSD/FreedomStudio-3-1-1-x86_64-w64-mingw32/FreedomStudio-3-1-1/SiFive/freedom-e-sdk-v21.11.00.00/freedom-metal/src/drivers/riscv_plic0.c:214
                                       threshold);
}
20103b84:	853e                	mv	a0,a5
20103b86:	40f2                	lw	ra,28(sp)
20103b88:	4462                	lw	s0,24(sp)
20103b8a:	6105                	add	sp,sp,32
20103b8c:	8082                	ret

20103b8e <__metal_driver_riscv_plic0_get_threshold>:
__metal_driver_riscv_plic0_get_threshold():
C:/VSD/FreedomStudio-3-1-1-x86_64-w64-mingw32/FreedomStudio-3-1-1/SiFive/freedom-e-sdk-v21.11.00.00/freedom-metal/src/drivers/riscv_plic0.c:217

unsigned int
__metal_driver_riscv_plic0_get_threshold(struct metal_interrupt *controller) {
20103b8e:	1101                	add	sp,sp,-32
20103b90:	ce06                	sw	ra,28(sp)
20103b92:	cc22                	sw	s0,24(sp)
20103b94:	1000                	add	s0,sp,32
20103b96:	fea42623          	sw	a0,-20(s0)
C:/VSD/FreedomStudio-3-1-1-x86_64-w64-mingw32/FreedomStudio-3-1-1/SiFive/freedom-e-sdk-v21.11.00.00/freedom-metal/src/drivers/riscv_plic0.c:218
    return __metal_plic0_get_threshold(controller, __metal_myhart_id());
20103b9a:	816fe0ef          	jal	20101bb0 <__metal_myhart_id>
20103b9e:	87aa                	mv	a5,a0
C:/VSD/FreedomStudio-3-1-1-x86_64-w64-mingw32/FreedomStudio-3-1-1/SiFive/freedom-e-sdk-v21.11.00.00/freedom-metal/src/drivers/riscv_plic0.c:218 (discriminator 1)
20103ba0:	85be                	mv	a1,a5
20103ba2:	fec42503          	lw	a0,-20(s0)
20103ba6:	ae5ff0ef          	jal	2010368a <__metal_plic0_get_threshold>
20103baa:	87aa                	mv	a5,a0
C:/VSD/FreedomStudio-3-1-1-x86_64-w64-mingw32/FreedomStudio-3-1-1/SiFive/freedom-e-sdk-v21.11.00.00/freedom-metal/src/drivers/riscv_plic0.c:219
}
20103bac:	853e                	mv	a0,a5
20103bae:	40f2                	lw	ra,28(sp)
20103bb0:	4462                	lw	s0,24(sp)
20103bb2:	6105                	add	sp,sp,32
20103bb4:	8082                	ret

20103bb6 <__metal_driver_riscv_plic0_affinity_enable>:
__metal_driver_riscv_plic0_affinity_enable():
C:/VSD/FreedomStudio-3-1-1-x86_64-w64-mingw32/FreedomStudio-3-1-1/SiFive/freedom-e-sdk-v21.11.00.00/freedom-metal/src/drivers/riscv_plic0.c:223

metal_affinity
__metal_driver_riscv_plic0_affinity_enable(struct metal_interrupt *controller,
                                           metal_affinity bitmask, int id) {
20103bb6:	7179                	add	sp,sp,-48
20103bb8:	d606                	sw	ra,44(sp)
20103bba:	d422                	sw	s0,40(sp)
20103bbc:	1800                	add	s0,sp,48
20103bbe:	fca42e23          	sw	a0,-36(s0)
20103bc2:	fcb42c23          	sw	a1,-40(s0)
20103bc6:	fcc42a23          	sw	a2,-44(s0)
C:/VSD/FreedomStudio-3-1-1-x86_64-w64-mingw32/FreedomStudio-3-1-1/SiFive/freedom-e-sdk-v21.11.00.00/freedom-metal/src/drivers/riscv_plic0.c:224
    metal_affinity ret = {0};
20103bca:	fe042223          	sw	zero,-28(s0)
C:/VSD/FreedomStudio-3-1-1-x86_64-w64-mingw32/FreedomStudio-3-1-1/SiFive/freedom-e-sdk-v21.11.00.00/freedom-metal/src/drivers/riscv_plic0.c:227
    int context;

    struct __metal_driver_riscv_plic0 *plic = (void *)(controller);
20103bce:	fdc42783          	lw	a5,-36(s0)
20103bd2:	fef42423          	sw	a5,-24(s0)
C:/VSD/FreedomStudio-3-1-1-x86_64-w64-mingw32/FreedomStudio-3-1-1/SiFive/freedom-e-sdk-v21.11.00.00/freedom-metal/src/drivers/riscv_plic0.c:229

    if (id >= __metal_driver_sifive_plic0_num_interrupts(controller)) {
20103bd6:	fdc42503          	lw	a0,-36(s0)
20103bda:	92fff0ef          	jal	20103508 <__metal_driver_sifive_plic0_num_interrupts>
20103bde:	872a                	mv	a4,a0
C:/VSD/FreedomStudio-3-1-1-x86_64-w64-mingw32/FreedomStudio-3-1-1/SiFive/freedom-e-sdk-v21.11.00.00/freedom-metal/src/drivers/riscv_plic0.c:229 (discriminator 1)
20103be0:	fd442783          	lw	a5,-44(s0)
20103be4:	00e7c863          	blt	a5,a4,20103bf4 <__metal_driver_riscv_plic0_affinity_enable+0x3e>
C:/VSD/FreedomStudio-3-1-1-x86_64-w64-mingw32/FreedomStudio-3-1-1/SiFive/freedom-e-sdk-v21.11.00.00/freedom-metal/src/drivers/riscv_plic0.c:230
        metal_affinity_set_val(ret, -1);
20103be8:	57fd                	li	a5,-1
20103bea:	fef42223          	sw	a5,-28(s0)
C:/VSD/FreedomStudio-3-1-1-x86_64-w64-mingw32/FreedomStudio-3-1-1/SiFive/freedom-e-sdk-v21.11.00.00/freedom-metal/src/drivers/riscv_plic0.c:231
        return ret;
20103bee:	fe442783          	lw	a5,-28(s0)
20103bf2:	a891                	j	20103c46 <__metal_driver_riscv_plic0_affinity_enable+0x90>
C:/VSD/FreedomStudio-3-1-1-x86_64-w64-mingw32/FreedomStudio-3-1-1/SiFive/freedom-e-sdk-v21.11.00.00/freedom-metal/src/drivers/riscv_plic0.c:234
    }

    for_each_metal_affinity(context, bitmask) {
20103bf4:	fe042623          	sw	zero,-20(s0)
20103bf8:	a091                	j	20103c3c <__metal_driver_riscv_plic0_affinity_enable+0x86>
C:/VSD/FreedomStudio-3-1-1-x86_64-w64-mingw32/FreedomStudio-3-1-1/SiFive/freedom-e-sdk-v21.11.00.00/freedom-metal/src/drivers/riscv_plic0.c:235
        if (context != 0)
20103bfa:	fec42783          	lw	a5,-20(s0)
20103bfe:	c78d                	beqz	a5,20103c28 <__metal_driver_riscv_plic0_affinity_enable+0x72>
C:/VSD/FreedomStudio-3-1-1-x86_64-w64-mingw32/FreedomStudio-3-1-1/SiFive/freedom-e-sdk-v21.11.00.00/freedom-metal/src/drivers/riscv_plic0.c:236
            metal_affinity_set_bit(
20103c00:	4685                	li	a3,1
20103c02:	fd442603          	lw	a2,-44(s0)
20103c06:	fec42583          	lw	a1,-20(s0)
20103c0a:	fe842503          	lw	a0,-24(s0)
20103c0e:	36b1                	jal	2010375a <__metal_plic0_enable>
20103c10:	87aa                	mv	a5,a0
C:/VSD/FreedomStudio-3-1-1-x86_64-w64-mingw32/FreedomStudio-3-1-1/SiFive/freedom-e-sdk-v21.11.00.00/freedom-metal/src/drivers/riscv_plic0.c:236 (discriminator 1)
20103c12:	0017f713          	and	a4,a5,1
20103c16:	fec42783          	lw	a5,-20(s0)
20103c1a:	00f71733          	sll	a4,a4,a5
20103c1e:	fe442783          	lw	a5,-28(s0)
20103c22:	8fd9                	or	a5,a5,a4
20103c24:	fef42223          	sw	a5,-28(s0)
C:/VSD/FreedomStudio-3-1-1-x86_64-w64-mingw32/FreedomStudio-3-1-1/SiFive/freedom-e-sdk-v21.11.00.00/freedom-metal/src/drivers/riscv_plic0.c:234 (discriminator 2)
    for_each_metal_affinity(context, bitmask) {
20103c28:	fec42783          	lw	a5,-20(s0)
20103c2c:	0785                	add	a5,a5,1
20103c2e:	fef42623          	sw	a5,-20(s0)
20103c32:	fd842783          	lw	a5,-40(s0)
20103c36:	8385                	srl	a5,a5,0x1
20103c38:	fcf42c23          	sw	a5,-40(s0)
C:/VSD/FreedomStudio-3-1-1-x86_64-w64-mingw32/FreedomStudio-3-1-1/SiFive/freedom-e-sdk-v21.11.00.00/freedom-metal/src/drivers/riscv_plic0.c:234 (discriminator 1)
20103c3c:	fd842783          	lw	a5,-40(s0)
20103c40:	ffcd                	bnez	a5,20103bfa <__metal_driver_riscv_plic0_affinity_enable+0x44>
C:/VSD/FreedomStudio-3-1-1-x86_64-w64-mingw32/FreedomStudio-3-1-1/SiFive/freedom-e-sdk-v21.11.00.00/freedom-metal/src/drivers/riscv_plic0.c:241
                ret, context,
                __metal_plic0_enable(plic, context, id, METAL_ENABLE));
    }

    return ret;
20103c42:	fe442783          	lw	a5,-28(s0)
C:/VSD/FreedomStudio-3-1-1-x86_64-w64-mingw32/FreedomStudio-3-1-1/SiFive/freedom-e-sdk-v21.11.00.00/freedom-metal/src/drivers/riscv_plic0.c:242
}
20103c46:	853e                	mv	a0,a5
20103c48:	50b2                	lw	ra,44(sp)
20103c4a:	5422                	lw	s0,40(sp)
20103c4c:	6145                	add	sp,sp,48
20103c4e:	8082                	ret

20103c50 <__metal_driver_riscv_plic0_affinity_disable>:
__metal_driver_riscv_plic0_affinity_disable():
C:/VSD/FreedomStudio-3-1-1-x86_64-w64-mingw32/FreedomStudio-3-1-1/SiFive/freedom-e-sdk-v21.11.00.00/freedom-metal/src/drivers/riscv_plic0.c:246

metal_affinity
__metal_driver_riscv_plic0_affinity_disable(struct metal_interrupt *controller,
                                            metal_affinity bitmask, int id) {
20103c50:	7179                	add	sp,sp,-48
20103c52:	d606                	sw	ra,44(sp)
20103c54:	d422                	sw	s0,40(sp)
20103c56:	1800                	add	s0,sp,48
20103c58:	fca42e23          	sw	a0,-36(s0)
20103c5c:	fcb42c23          	sw	a1,-40(s0)
20103c60:	fcc42a23          	sw	a2,-44(s0)
C:/VSD/FreedomStudio-3-1-1-x86_64-w64-mingw32/FreedomStudio-3-1-1/SiFive/freedom-e-sdk-v21.11.00.00/freedom-metal/src/drivers/riscv_plic0.c:247
    metal_affinity ret = {0};
20103c64:	fe042223          	sw	zero,-28(s0)
C:/VSD/FreedomStudio-3-1-1-x86_64-w64-mingw32/FreedomStudio-3-1-1/SiFive/freedom-e-sdk-v21.11.00.00/freedom-metal/src/drivers/riscv_plic0.c:250
    int context;

    struct __metal_driver_riscv_plic0 *plic = (void *)(controller);
20103c68:	fdc42783          	lw	a5,-36(s0)
20103c6c:	fef42423          	sw	a5,-24(s0)
C:/VSD/FreedomStudio-3-1-1-x86_64-w64-mingw32/FreedomStudio-3-1-1/SiFive/freedom-e-sdk-v21.11.00.00/freedom-metal/src/drivers/riscv_plic0.c:252

    if (id >= __metal_driver_sifive_plic0_num_interrupts(controller)) {
20103c70:	fdc42503          	lw	a0,-36(s0)
20103c74:	895ff0ef          	jal	20103508 <__metal_driver_sifive_plic0_num_interrupts>
20103c78:	872a                	mv	a4,a0
C:/VSD/FreedomStudio-3-1-1-x86_64-w64-mingw32/FreedomStudio-3-1-1/SiFive/freedom-e-sdk-v21.11.00.00/freedom-metal/src/drivers/riscv_plic0.c:252 (discriminator 1)
20103c7a:	fd442783          	lw	a5,-44(s0)
20103c7e:	00e7c863          	blt	a5,a4,20103c8e <__metal_driver_riscv_plic0_affinity_disable+0x3e>
C:/VSD/FreedomStudio-3-1-1-x86_64-w64-mingw32/FreedomStudio-3-1-1/SiFive/freedom-e-sdk-v21.11.00.00/freedom-metal/src/drivers/riscv_plic0.c:253
        metal_affinity_set_val(ret, -1);
20103c82:	57fd                	li	a5,-1
20103c84:	fef42223          	sw	a5,-28(s0)
C:/VSD/FreedomStudio-3-1-1-x86_64-w64-mingw32/FreedomStudio-3-1-1/SiFive/freedom-e-sdk-v21.11.00.00/freedom-metal/src/drivers/riscv_plic0.c:254
        return ret;
20103c88:	fe442783          	lw	a5,-28(s0)
20103c8c:	a899                	j	20103ce2 <__metal_driver_riscv_plic0_affinity_disable+0x92>
C:/VSD/FreedomStudio-3-1-1-x86_64-w64-mingw32/FreedomStudio-3-1-1/SiFive/freedom-e-sdk-v21.11.00.00/freedom-metal/src/drivers/riscv_plic0.c:257
    }

    for_each_metal_affinity(context, bitmask) {
20103c8e:	fe042623          	sw	zero,-20(s0)
20103c92:	a099                	j	20103cd8 <__metal_driver_riscv_plic0_affinity_disable+0x88>
C:/VSD/FreedomStudio-3-1-1-x86_64-w64-mingw32/FreedomStudio-3-1-1/SiFive/freedom-e-sdk-v21.11.00.00/freedom-metal/src/drivers/riscv_plic0.c:258
        if (context != 0)
20103c94:	fec42783          	lw	a5,-20(s0)
20103c98:	c795                	beqz	a5,20103cc4 <__metal_driver_riscv_plic0_affinity_disable+0x74>
C:/VSD/FreedomStudio-3-1-1-x86_64-w64-mingw32/FreedomStudio-3-1-1/SiFive/freedom-e-sdk-v21.11.00.00/freedom-metal/src/drivers/riscv_plic0.c:259
            metal_affinity_set_bit(
20103c9a:	4681                	li	a3,0
20103c9c:	fd442603          	lw	a2,-44(s0)
20103ca0:	fec42583          	lw	a1,-20(s0)
20103ca4:	fe842503          	lw	a0,-24(s0)
20103ca8:	ab3ff0ef          	jal	2010375a <__metal_plic0_enable>
20103cac:	87aa                	mv	a5,a0
C:/VSD/FreedomStudio-3-1-1-x86_64-w64-mingw32/FreedomStudio-3-1-1/SiFive/freedom-e-sdk-v21.11.00.00/freedom-metal/src/drivers/riscv_plic0.c:259 (discriminator 1)
20103cae:	0017f713          	and	a4,a5,1
20103cb2:	fec42783          	lw	a5,-20(s0)
20103cb6:	00f71733          	sll	a4,a4,a5
20103cba:	fe442783          	lw	a5,-28(s0)
20103cbe:	8fd9                	or	a5,a5,a4
20103cc0:	fef42223          	sw	a5,-28(s0)
C:/VSD/FreedomStudio-3-1-1-x86_64-w64-mingw32/FreedomStudio-3-1-1/SiFive/freedom-e-sdk-v21.11.00.00/freedom-metal/src/drivers/riscv_plic0.c:257 (discriminator 2)
    for_each_metal_affinity(context, bitmask) {
20103cc4:	fec42783          	lw	a5,-20(s0)
20103cc8:	0785                	add	a5,a5,1
20103cca:	fef42623          	sw	a5,-20(s0)
20103cce:	fd842783          	lw	a5,-40(s0)
20103cd2:	8385                	srl	a5,a5,0x1
20103cd4:	fcf42c23          	sw	a5,-40(s0)
C:/VSD/FreedomStudio-3-1-1-x86_64-w64-mingw32/FreedomStudio-3-1-1/SiFive/freedom-e-sdk-v21.11.00.00/freedom-metal/src/drivers/riscv_plic0.c:257 (discriminator 1)
20103cd8:	fd842783          	lw	a5,-40(s0)
20103cdc:	ffc5                	bnez	a5,20103c94 <__metal_driver_riscv_plic0_affinity_disable+0x44>
C:/VSD/FreedomStudio-3-1-1-x86_64-w64-mingw32/FreedomStudio-3-1-1/SiFive/freedom-e-sdk-v21.11.00.00/freedom-metal/src/drivers/riscv_plic0.c:264
                ret, context,
                __metal_plic0_enable(plic, context, id, METAL_DISABLE));
    }

    return ret;
20103cde:	fe442783          	lw	a5,-28(s0)
C:/VSD/FreedomStudio-3-1-1-x86_64-w64-mingw32/FreedomStudio-3-1-1/SiFive/freedom-e-sdk-v21.11.00.00/freedom-metal/src/drivers/riscv_plic0.c:265
}
20103ce2:	853e                	mv	a0,a5
20103ce4:	50b2                	lw	ra,44(sp)
20103ce6:	5422                	lw	s0,40(sp)
20103ce8:	6145                	add	sp,sp,48
20103cea:	8082                	ret

20103cec <__metal_driver_riscv_plic0_affinity_set_threshold>:
__metal_driver_riscv_plic0_affinity_set_threshold():
C:/VSD/FreedomStudio-3-1-1-x86_64-w64-mingw32/FreedomStudio-3-1-1/SiFive/freedom-e-sdk-v21.11.00.00/freedom-metal/src/drivers/riscv_plic0.c:269

metal_affinity __metal_driver_riscv_plic0_affinity_set_threshold(
    struct metal_interrupt *controller, metal_affinity bitmask,
    unsigned int threshold) {
20103cec:	7179                	add	sp,sp,-48
20103cee:	d606                	sw	ra,44(sp)
20103cf0:	d422                	sw	s0,40(sp)
20103cf2:	1800                	add	s0,sp,48
20103cf4:	fca42e23          	sw	a0,-36(s0)
20103cf8:	fcb42c23          	sw	a1,-40(s0)
20103cfc:	fcc42a23          	sw	a2,-44(s0)
C:/VSD/FreedomStudio-3-1-1-x86_64-w64-mingw32/FreedomStudio-3-1-1/SiFive/freedom-e-sdk-v21.11.00.00/freedom-metal/src/drivers/riscv_plic0.c:270
    metal_affinity ret = {0};
20103d00:	fe042423          	sw	zero,-24(s0)
C:/VSD/FreedomStudio-3-1-1-x86_64-w64-mingw32/FreedomStudio-3-1-1/SiFive/freedom-e-sdk-v21.11.00.00/freedom-metal/src/drivers/riscv_plic0.c:273
    int context;

    for_each_metal_affinity(context, bitmask) {
20103d04:	fe042623          	sw	zero,-20(s0)
20103d08:	a091                	j	20103d4c <__metal_driver_riscv_plic0_affinity_set_threshold+0x60>
C:/VSD/FreedomStudio-3-1-1-x86_64-w64-mingw32/FreedomStudio-3-1-1/SiFive/freedom-e-sdk-v21.11.00.00/freedom-metal/src/drivers/riscv_plic0.c:274
        if (context != 0)
20103d0a:	fec42783          	lw	a5,-20(s0)
20103d0e:	c78d                	beqz	a5,20103d38 <__metal_driver_riscv_plic0_affinity_set_threshold+0x4c>
C:/VSD/FreedomStudio-3-1-1-x86_64-w64-mingw32/FreedomStudio-3-1-1/SiFive/freedom-e-sdk-v21.11.00.00/freedom-metal/src/drivers/riscv_plic0.c:275
            metal_affinity_set_bit(
20103d10:	fd442603          	lw	a2,-44(s0)
20103d14:	fec42583          	lw	a1,-20(s0)
20103d18:	fdc42503          	lw	a0,-36(s0)
20103d1c:	929ff0ef          	jal	20103644 <__metal_plic0_set_threshold>
20103d20:	87aa                	mv	a5,a0
C:/VSD/FreedomStudio-3-1-1-x86_64-w64-mingw32/FreedomStudio-3-1-1/SiFive/freedom-e-sdk-v21.11.00.00/freedom-metal/src/drivers/riscv_plic0.c:275 (discriminator 1)
20103d22:	0017f713          	and	a4,a5,1
20103d26:	fec42783          	lw	a5,-20(s0)
20103d2a:	00f71733          	sll	a4,a4,a5
20103d2e:	fe842783          	lw	a5,-24(s0)
20103d32:	8fd9                	or	a5,a5,a4
20103d34:	fef42423          	sw	a5,-24(s0)
C:/VSD/FreedomStudio-3-1-1-x86_64-w64-mingw32/FreedomStudio-3-1-1/SiFive/freedom-e-sdk-v21.11.00.00/freedom-metal/src/drivers/riscv_plic0.c:273 (discriminator 2)
    for_each_metal_affinity(context, bitmask) {
20103d38:	fec42783          	lw	a5,-20(s0)
20103d3c:	0785                	add	a5,a5,1
20103d3e:	fef42623          	sw	a5,-20(s0)
20103d42:	fd842783          	lw	a5,-40(s0)
20103d46:	8385                	srl	a5,a5,0x1
20103d48:	fcf42c23          	sw	a5,-40(s0)
C:/VSD/FreedomStudio-3-1-1-x86_64-w64-mingw32/FreedomStudio-3-1-1/SiFive/freedom-e-sdk-v21.11.00.00/freedom-metal/src/drivers/riscv_plic0.c:273 (discriminator 1)
20103d4c:	fd842783          	lw	a5,-40(s0)
20103d50:	ffcd                	bnez	a5,20103d0a <__metal_driver_riscv_plic0_affinity_set_threshold+0x1e>
C:/VSD/FreedomStudio-3-1-1-x86_64-w64-mingw32/FreedomStudio-3-1-1/SiFive/freedom-e-sdk-v21.11.00.00/freedom-metal/src/drivers/riscv_plic0.c:280
                ret, context,
                __metal_plic0_set_threshold(controller, context, threshold));
    }

    return ret;
20103d52:	fe842783          	lw	a5,-24(s0)
C:/VSD/FreedomStudio-3-1-1-x86_64-w64-mingw32/FreedomStudio-3-1-1/SiFive/freedom-e-sdk-v21.11.00.00/freedom-metal/src/drivers/riscv_plic0.c:281
}
20103d56:	853e                	mv	a0,a5
20103d58:	50b2                	lw	ra,44(sp)
20103d5a:	5422                	lw	s0,40(sp)
20103d5c:	6145                	add	sp,sp,48
20103d5e:	8082                	ret

20103d60 <__metal_driver_riscv_plic0_affinity_get_threshold>:
__metal_driver_riscv_plic0_affinity_get_threshold():
C:/VSD/FreedomStudio-3-1-1-x86_64-w64-mingw32/FreedomStudio-3-1-1/SiFive/freedom-e-sdk-v21.11.00.00/freedom-metal/src/drivers/riscv_plic0.c:284

unsigned int __metal_driver_riscv_plic0_affinity_get_threshold(
    struct metal_interrupt *controller, int context_id) {
20103d60:	1101                	add	sp,sp,-32
20103d62:	ce06                	sw	ra,28(sp)
20103d64:	cc22                	sw	s0,24(sp)
20103d66:	1000                	add	s0,sp,32
20103d68:	fea42623          	sw	a0,-20(s0)
20103d6c:	feb42423          	sw	a1,-24(s0)
C:/VSD/FreedomStudio-3-1-1-x86_64-w64-mingw32/FreedomStudio-3-1-1/SiFive/freedom-e-sdk-v21.11.00.00/freedom-metal/src/drivers/riscv_plic0.c:285
    __metal_plic0_get_threshold(controller, context_id);
20103d70:	fe842583          	lw	a1,-24(s0)
20103d74:	fec42503          	lw	a0,-20(s0)
20103d78:	913ff0ef          	jal	2010368a <__metal_plic0_get_threshold>
C:/VSD/FreedomStudio-3-1-1-x86_64-w64-mingw32/FreedomStudio-3-1-1/SiFive/freedom-e-sdk-v21.11.00.00/freedom-metal/src/drivers/riscv_plic0.c:286
    return 0;
20103d7c:	4781                	li	a5,0
C:/VSD/FreedomStudio-3-1-1-x86_64-w64-mingw32/FreedomStudio-3-1-1/SiFive/freedom-e-sdk-v21.11.00.00/freedom-metal/src/drivers/riscv_plic0.c:287
}
20103d7e:	853e                	mv	a0,a5
20103d80:	40f2                	lw	ra,28(sp)
20103d82:	4462                	lw	s0,24(sp)
20103d84:	6105                	add	sp,sp,32
20103d86:	8082                	ret

20103d88 <__metal_driver_sifive_fe310_g000_hfrosc_ref>:
__metal_driver_sifive_fe310_g000_hfrosc_ref():
C:\VSD\FreedomStudio-3-1-1-x86_64-w64-mingw32\FreedomStudio-3-1-1\SiFive\freedom-e-sdk-v21.11.00.00\bsp\sifive-hifive1\build\debug/./metal/machine.h:1107



/* --------------------- sifive_fe310_g000_hfrosc ------------ */
static __inline__ struct metal_clock * __metal_driver_sifive_fe310_g000_hfrosc_ref(const struct metal_clock *clock)
{
20103d88:	1101                	add	sp,sp,-32
20103d8a:	ce22                	sw	s0,28(sp)
20103d8c:	1000                	add	s0,sp,32
20103d8e:	fea42623          	sw	a0,-20(s0)
C:\VSD\FreedomStudio-3-1-1-x86_64-w64-mingw32\FreedomStudio-3-1-1\SiFive\freedom-e-sdk-v21.11.00.00\bsp\sifive-hifive1\build\debug/./metal/machine.h:1108
		return (struct metal_clock *)&__metal_dt_clock_2.clock;
20103d92:	800007b7          	lui	a5,0x80000
20103d96:	00c78793          	add	a5,a5,12 # 8000000c <__metal_dt_clock_2>
C:\VSD\FreedomStudio-3-1-1-x86_64-w64-mingw32\FreedomStudio-3-1-1\SiFive\freedom-e-sdk-v21.11.00.00\bsp\sifive-hifive1\build\debug/./metal/machine.h:1109
}
20103d9a:	853e                	mv	a0,a5
20103d9c:	4472                	lw	s0,28(sp)
20103d9e:	6105                	add	sp,sp,32
20103da0:	8082                	ret

20103da2 <__metal_driver_sifive_fe310_g000_hfrosc_config_base>:
__metal_driver_sifive_fe310_g000_hfrosc_config_base():
C:\VSD\FreedomStudio-3-1-1-x86_64-w64-mingw32\FreedomStudio-3-1-1\SiFive\freedom-e-sdk-v21.11.00.00\bsp\sifive-hifive1\build\debug/./metal/machine.h:1112

static __inline__ struct __metal_driver_sifive_fe310_g000_prci * __metal_driver_sifive_fe310_g000_hfrosc_config_base(const struct metal_clock *clock)
{
20103da2:	1101                	add	sp,sp,-32
20103da4:	ce22                	sw	s0,28(sp)
20103da6:	1000                	add	s0,sp,32
20103da8:	fea42623          	sw	a0,-20(s0)
C:\VSD\FreedomStudio-3-1-1-x86_64-w64-mingw32\FreedomStudio-3-1-1\SiFive\freedom-e-sdk-v21.11.00.00\bsp\sifive-hifive1\build\debug/./metal/machine.h:1113
		return (struct __metal_driver_sifive_fe310_g000_prci *)&__metal_dt_prci_10008000;
20103dac:	81818793          	add	a5,gp,-2024 # 80000a30 <__metal_dt_prci_10008000>
C:\VSD\FreedomStudio-3-1-1-x86_64-w64-mingw32\FreedomStudio-3-1-1\SiFive\freedom-e-sdk-v21.11.00.00\bsp\sifive-hifive1\build\debug/./metal/machine.h:1114
}
20103db0:	853e                	mv	a0,a5
20103db2:	4472                	lw	s0,28(sp)
20103db4:	6105                	add	sp,sp,32
20103db6:	8082                	ret

20103db8 <__metal_driver_sifive_fe310_g000_hfrosc_config_offset>:
__metal_driver_sifive_fe310_g000_hfrosc_config_offset():
C:\VSD\FreedomStudio-3-1-1-x86_64-w64-mingw32\FreedomStudio-3-1-1\SiFive\freedom-e-sdk-v21.11.00.00\bsp\sifive-hifive1\build\debug/./metal/machine.h:1122
{
		return &__metal_driver_vtable_sifive_fe310_g000_prci;
}

static __inline__ long __metal_driver_sifive_fe310_g000_hfrosc_config_offset(const struct metal_clock *clock)
{
20103db8:	1101                	add	sp,sp,-32
20103dba:	ce22                	sw	s0,28(sp)
20103dbc:	1000                	add	s0,sp,32
20103dbe:	fea42623          	sw	a0,-20(s0)
C:\VSD\FreedomStudio-3-1-1-x86_64-w64-mingw32\FreedomStudio-3-1-1\SiFive\freedom-e-sdk-v21.11.00.00\bsp\sifive-hifive1\build\debug/./metal/machine.h:1123
		return METAL_SIFIVE_FE310_G000_PRCI_HFROSCCFG;
20103dc2:	4781                	li	a5,0
C:\VSD\FreedomStudio-3-1-1-x86_64-w64-mingw32\FreedomStudio-3-1-1\SiFive\freedom-e-sdk-v21.11.00.00\bsp\sifive-hifive1\build\debug/./metal/machine.h:1124
}
20103dc4:	853e                	mv	a0,a5
20103dc6:	4472                	lw	s0,28(sp)
20103dc8:	6105                	add	sp,sp,32
20103dca:	8082                	ret

20103dcc <__metal_driver_sifive_fe310_g000_prci_vtable>:
__metal_driver_sifive_fe310_g000_prci_vtable():
C:\VSD\FreedomStudio-3-1-1-x86_64-w64-mingw32\FreedomStudio-3-1-1\SiFive\freedom-e-sdk-v21.11.00.00\bsp\sifive-hifive1\build\debug/./metal/machine.h:1239
{
		return METAL_SIFIVE_FE310_G000_PRCI_10008000_SIZE;
}

static __inline__ const struct __metal_driver_vtable_sifive_fe310_g000_prci * __metal_driver_sifive_fe310_g000_prci_vtable( )
{
20103dcc:	1141                	add	sp,sp,-16
20103dce:	c622                	sw	s0,12(sp)
20103dd0:	0800                	add	s0,sp,16
C:\VSD\FreedomStudio-3-1-1-x86_64-w64-mingw32\FreedomStudio-3-1-1\SiFive\freedom-e-sdk-v21.11.00.00\bsp\sifive-hifive1\build\debug/./metal/machine.h:1240
		return &__metal_driver_vtable_sifive_fe310_g000_prci;
20103dd2:	201017b7          	lui	a5,0x20101
20103dd6:	ec878793          	add	a5,a5,-312 # 20100ec8 <__metal_driver_vtable_sifive_fe310_g000_prci>
C:\VSD\FreedomStudio-3-1-1-x86_64-w64-mingw32\FreedomStudio-3-1-1\SiFive\freedom-e-sdk-v21.11.00.00\bsp\sifive-hifive1\build\debug/./metal/machine.h:1241
}
20103dda:	853e                	mv	a0,a5
20103ddc:	4432                	lw	s0,12(sp)
20103dde:	0141                	add	sp,sp,16
20103de0:	8082                	ret

20103de2 <__metal_driver_sifive_fe310_g000_hfrosc_get_rate_hz>:
__metal_driver_sifive_fe310_g000_hfrosc_get_rate_hz():
C:/VSD/FreedomStudio-3-1-1-x86_64-w64-mingw32/FreedomStudio-3-1-1/SiFive/freedom-e-sdk-v21.11.00.00/freedom-metal/src/drivers/sifive_fe310-g000_hfrosc.c:17
#define CONFIG_TRIM 0x001F0000UL
#define CONFIG_ENABLE 0x40000000UL
#define CONFIG_READY 0x80000000UL

long __metal_driver_sifive_fe310_g000_hfrosc_get_rate_hz(
    const struct metal_clock *clock) {
20103de2:	7139                	add	sp,sp,-64
20103de4:	de06                	sw	ra,60(sp)
20103de6:	dc22                	sw	s0,56(sp)
20103de8:	0080                	add	s0,sp,64
20103dea:	fca42623          	sw	a0,-52(s0)
C:/VSD/FreedomStudio-3-1-1-x86_64-w64-mingw32/FreedomStudio-3-1-1/SiFive/freedom-e-sdk-v21.11.00.00/freedom-metal/src/drivers/sifive_fe310-g000_hfrosc.c:19
    struct metal_clock *ref =
        __metal_driver_sifive_fe310_g000_hfrosc_ref(clock);
20103dee:	fcc42503          	lw	a0,-52(s0)
20103df2:	3f59                	jal	20103d88 <__metal_driver_sifive_fe310_g000_hfrosc_ref>
20103df4:	fea42623          	sw	a0,-20(s0)
C:/VSD/FreedomStudio-3-1-1-x86_64-w64-mingw32/FreedomStudio-3-1-1/SiFive/freedom-e-sdk-v21.11.00.00/freedom-metal/src/drivers/sifive_fe310-g000_hfrosc.c:21
    long config_offset =
        __metal_driver_sifive_fe310_g000_hfrosc_config_offset(clock);
20103df8:	fcc42503          	lw	a0,-52(s0)
20103dfc:	3f75                	jal	20103db8 <__metal_driver_sifive_fe310_g000_hfrosc_config_offset>
20103dfe:	fea42423          	sw	a0,-24(s0)
C:/VSD/FreedomStudio-3-1-1-x86_64-w64-mingw32/FreedomStudio-3-1-1/SiFive/freedom-e-sdk-v21.11.00.00/freedom-metal/src/drivers/sifive_fe310-g000_hfrosc.c:23
    struct __metal_driver_sifive_fe310_g000_prci *config_base =
        __metal_driver_sifive_fe310_g000_hfrosc_config_base(clock);
20103e02:	fcc42503          	lw	a0,-52(s0)
20103e06:	3f71                	jal	20103da2 <__metal_driver_sifive_fe310_g000_hfrosc_config_base>
20103e08:	fea42223          	sw	a0,-28(s0)
C:/VSD/FreedomStudio-3-1-1-x86_64-w64-mingw32/FreedomStudio-3-1-1/SiFive/freedom-e-sdk-v21.11.00.00/freedom-metal/src/drivers/sifive_fe310-g000_hfrosc.c:25
    const struct __metal_driver_vtable_sifive_fe310_g000_prci *vtable =
        __metal_driver_sifive_fe310_g000_prci_vtable();
20103e0c:	37c1                	jal	20103dcc <__metal_driver_sifive_fe310_g000_prci_vtable>
20103e0e:	fea42023          	sw	a0,-32(s0)
C:/VSD/FreedomStudio-3-1-1-x86_64-w64-mingw32/FreedomStudio-3-1-1/SiFive/freedom-e-sdk-v21.11.00.00/freedom-metal/src/drivers/sifive_fe310-g000_hfrosc.c:26
    long cfg = vtable->get_reg(config_base, config_offset);
20103e12:	fe042783          	lw	a5,-32(s0)
20103e16:	439c                	lw	a5,0(a5)
20103e18:	fe842583          	lw	a1,-24(s0)
20103e1c:	fe442503          	lw	a0,-28(s0)
20103e20:	9782                	jalr	a5
20103e22:	fca42e23          	sw	a0,-36(s0)
C:/VSD/FreedomStudio-3-1-1-x86_64-w64-mingw32/FreedomStudio-3-1-1/SiFive/freedom-e-sdk-v21.11.00.00/freedom-metal/src/drivers/sifive_fe310-g000_hfrosc.c:28

    if ((cfg & CONFIG_ENABLE) == 0)
20103e26:	fdc42703          	lw	a4,-36(s0)
20103e2a:	400007b7          	lui	a5,0x40000
20103e2e:	8ff9                	and	a5,a5,a4
20103e30:	e399                	bnez	a5,20103e36 <__metal_driver_sifive_fe310_g000_hfrosc_get_rate_hz+0x54>
C:/VSD/FreedomStudio-3-1-1-x86_64-w64-mingw32/FreedomStudio-3-1-1/SiFive/freedom-e-sdk-v21.11.00.00/freedom-metal/src/drivers/sifive_fe310-g000_hfrosc.c:29
        return -1;
20103e32:	57fd                	li	a5,-1
20103e34:	a025                	j	20103e5c <__metal_driver_sifive_fe310_g000_hfrosc_get_rate_hz+0x7a>
C:/VSD/FreedomStudio-3-1-1-x86_64-w64-mingw32/FreedomStudio-3-1-1/SiFive/freedom-e-sdk-v21.11.00.00/freedom-metal/src/drivers/sifive_fe310-g000_hfrosc.c:30
    if ((cfg & CONFIG_READY) == 0)
20103e36:	fdc42783          	lw	a5,-36(s0)
20103e3a:	0007c463          	bltz	a5,20103e42 <__metal_driver_sifive_fe310_g000_hfrosc_get_rate_hz+0x60>
C:/VSD/FreedomStudio-3-1-1-x86_64-w64-mingw32/FreedomStudio-3-1-1/SiFive/freedom-e-sdk-v21.11.00.00/freedom-metal/src/drivers/sifive_fe310-g000_hfrosc.c:31
        return -1;
20103e3e:	57fd                	li	a5,-1
20103e40:	a831                	j	20103e5c <__metal_driver_sifive_fe310_g000_hfrosc_get_rate_hz+0x7a>
C:/VSD/FreedomStudio-3-1-1-x86_64-w64-mingw32/FreedomStudio-3-1-1/SiFive/freedom-e-sdk-v21.11.00.00/freedom-metal/src/drivers/sifive_fe310-g000_hfrosc.c:32
    return metal_clock_get_rate_hz(ref) / ((cfg & CONFIG_DIVIDER) + 1);
20103e42:	fec42503          	lw	a0,-20(s0)
20103e46:	051010ef          	jal	20105696 <metal_clock_get_rate_hz>
20103e4a:	87aa                	mv	a5,a0
C:/VSD/FreedomStudio-3-1-1-x86_64-w64-mingw32/FreedomStudio-3-1-1/SiFive/freedom-e-sdk-v21.11.00.00/freedom-metal/src/drivers/sifive_fe310-g000_hfrosc.c:32 (discriminator 1)
20103e4c:	873e                	mv	a4,a5
20103e4e:	fdc42783          	lw	a5,-36(s0)
20103e52:	03f7f793          	and	a5,a5,63
20103e56:	0785                	add	a5,a5,1 # 40000001 <metal_segment_data_source_start+0x1fefa649>
20103e58:	02f757b3          	divu	a5,a4,a5
C:/VSD/FreedomStudio-3-1-1-x86_64-w64-mingw32/FreedomStudio-3-1-1/SiFive/freedom-e-sdk-v21.11.00.00/freedom-metal/src/drivers/sifive_fe310-g000_hfrosc.c:33
}
20103e5c:	853e                	mv	a0,a5
20103e5e:	50f2                	lw	ra,60(sp)
20103e60:	5462                	lw	s0,56(sp)
20103e62:	6121                	add	sp,sp,64
20103e64:	8082                	ret

20103e66 <__metal_driver_sifive_fe310_g000_hfrosc_set_rate_hz>:
__metal_driver_sifive_fe310_g000_hfrosc_set_rate_hz():
C:/VSD/FreedomStudio-3-1-1-x86_64-w64-mingw32/FreedomStudio-3-1-1/SiFive/freedom-e-sdk-v21.11.00.00/freedom-metal/src/drivers/sifive_fe310-g000_hfrosc.c:36

long __metal_driver_sifive_fe310_g000_hfrosc_set_rate_hz(
    struct metal_clock *clock, long rate) {
20103e66:	1101                	add	sp,sp,-32
20103e68:	ce06                	sw	ra,28(sp)
20103e6a:	cc22                	sw	s0,24(sp)
20103e6c:	1000                	add	s0,sp,32
20103e6e:	fea42623          	sw	a0,-20(s0)
20103e72:	feb42423          	sw	a1,-24(s0)
C:/VSD/FreedomStudio-3-1-1-x86_64-w64-mingw32/FreedomStudio-3-1-1/SiFive/freedom-e-sdk-v21.11.00.00/freedom-metal/src/drivers/sifive_fe310-g000_hfrosc.c:37
    return __metal_driver_sifive_fe310_g000_hfrosc_get_rate_hz(clock);
20103e76:	fec42503          	lw	a0,-20(s0)
20103e7a:	37a5                	jal	20103de2 <__metal_driver_sifive_fe310_g000_hfrosc_get_rate_hz>
20103e7c:	87aa                	mv	a5,a0
C:/VSD/FreedomStudio-3-1-1-x86_64-w64-mingw32/FreedomStudio-3-1-1/SiFive/freedom-e-sdk-v21.11.00.00/freedom-metal/src/drivers/sifive_fe310-g000_hfrosc.c:38
}
20103e7e:	853e                	mv	a0,a5
20103e80:	40f2                	lw	ra,28(sp)
20103e82:	4462                	lw	s0,24(sp)
20103e84:	6105                	add	sp,sp,32
20103e86:	8082                	ret

20103e88 <__metal_driver_sifive_fe310_g000_hfxosc_ref>:
__metal_driver_sifive_fe310_g000_hfxosc_ref():
C:\VSD\FreedomStudio-3-1-1-x86_64-w64-mingw32\FreedomStudio-3-1-1\SiFive\freedom-e-sdk-v21.11.00.00\bsp\sifive-hifive1\build\debug/./metal/machine.h:1130
{
20103e88:	1101                	add	sp,sp,-32
20103e8a:	ce22                	sw	s0,28(sp)
20103e8c:	1000                	add	s0,sp,32
20103e8e:	fea42623          	sw	a0,-20(s0)
C:\VSD\FreedomStudio-3-1-1-x86_64-w64-mingw32\FreedomStudio-3-1-1\SiFive\freedom-e-sdk-v21.11.00.00\bsp\sifive-hifive1\build\debug/./metal/machine.h:1131
		return (struct metal_clock *)&__metal_dt_clock_0.clock;
20103e92:	800007b7          	lui	a5,0x80000
20103e96:	00078793          	mv	a5,a5
C:\VSD\FreedomStudio-3-1-1-x86_64-w64-mingw32\FreedomStudio-3-1-1\SiFive\freedom-e-sdk-v21.11.00.00\bsp\sifive-hifive1\build\debug/./metal/machine.h:1132
}
20103e9a:	853e                	mv	a0,a5
20103e9c:	4472                	lw	s0,28(sp)
20103e9e:	6105                	add	sp,sp,32
20103ea0:	8082                	ret

20103ea2 <__metal_driver_sifive_fe310_g000_hfxosc_config_base>:
__metal_driver_sifive_fe310_g000_hfxosc_config_base():
C:\VSD\FreedomStudio-3-1-1-x86_64-w64-mingw32\FreedomStudio-3-1-1\SiFive\freedom-e-sdk-v21.11.00.00\bsp\sifive-hifive1\build\debug/./metal/machine.h:1135
{
20103ea2:	1101                	add	sp,sp,-32
20103ea4:	ce22                	sw	s0,28(sp)
20103ea6:	1000                	add	s0,sp,32
20103ea8:	fea42623          	sw	a0,-20(s0)
C:\VSD\FreedomStudio-3-1-1-x86_64-w64-mingw32\FreedomStudio-3-1-1\SiFive\freedom-e-sdk-v21.11.00.00\bsp\sifive-hifive1\build\debug/./metal/machine.h:1136
		return (struct __metal_driver_sifive_fe310_g000_prci *)&__metal_dt_prci_10008000;
20103eac:	81818793          	add	a5,gp,-2024 # 80000a30 <__metal_dt_prci_10008000>
C:\VSD\FreedomStudio-3-1-1-x86_64-w64-mingw32\FreedomStudio-3-1-1\SiFive\freedom-e-sdk-v21.11.00.00\bsp\sifive-hifive1\build\debug/./metal/machine.h:1137
}
20103eb0:	853e                	mv	a0,a5
20103eb2:	4472                	lw	s0,28(sp)
20103eb4:	6105                	add	sp,sp,32
20103eb6:	8082                	ret

20103eb8 <__metal_driver_sifive_fe310_g000_hfxosc_config_offset>:
__metal_driver_sifive_fe310_g000_hfxosc_config_offset():
C:\VSD\FreedomStudio-3-1-1-x86_64-w64-mingw32\FreedomStudio-3-1-1\SiFive\freedom-e-sdk-v21.11.00.00\bsp\sifive-hifive1\build\debug/./metal/machine.h:1140
{
20103eb8:	1101                	add	sp,sp,-32
20103eba:	ce22                	sw	s0,28(sp)
20103ebc:	1000                	add	s0,sp,32
20103ebe:	fea42623          	sw	a0,-20(s0)
C:\VSD\FreedomStudio-3-1-1-x86_64-w64-mingw32\FreedomStudio-3-1-1\SiFive\freedom-e-sdk-v21.11.00.00\bsp\sifive-hifive1\build\debug/./metal/machine.h:1141
		return METAL_SIFIVE_FE310_G000_PRCI_HFXOSCCFG;
20103ec2:	4791                	li	a5,4
C:\VSD\FreedomStudio-3-1-1-x86_64-w64-mingw32\FreedomStudio-3-1-1\SiFive\freedom-e-sdk-v21.11.00.00\bsp\sifive-hifive1\build\debug/./metal/machine.h:1142
}
20103ec4:	853e                	mv	a0,a5
20103ec6:	4472                	lw	s0,28(sp)
20103ec8:	6105                	add	sp,sp,32
20103eca:	8082                	ret

20103ecc <__metal_driver_sifive_fe310_g000_prci_vtable>:
__metal_driver_sifive_fe310_g000_prci_vtable():
C:\VSD\FreedomStudio-3-1-1-x86_64-w64-mingw32\FreedomStudio-3-1-1\SiFive\freedom-e-sdk-v21.11.00.00\bsp\sifive-hifive1\build\debug/./metal/machine.h:1239
{
20103ecc:	1141                	add	sp,sp,-16
20103ece:	c622                	sw	s0,12(sp)
20103ed0:	0800                	add	s0,sp,16
C:\VSD\FreedomStudio-3-1-1-x86_64-w64-mingw32\FreedomStudio-3-1-1\SiFive\freedom-e-sdk-v21.11.00.00\bsp\sifive-hifive1\build\debug/./metal/machine.h:1240
		return &__metal_driver_vtable_sifive_fe310_g000_prci;
20103ed2:	201017b7          	lui	a5,0x20101
20103ed6:	ec878793          	add	a5,a5,-312 # 20100ec8 <__metal_driver_vtable_sifive_fe310_g000_prci>
C:\VSD\FreedomStudio-3-1-1-x86_64-w64-mingw32\FreedomStudio-3-1-1\SiFive\freedom-e-sdk-v21.11.00.00\bsp\sifive-hifive1\build\debug/./metal/machine.h:1241
}
20103eda:	853e                	mv	a0,a5
20103edc:	4432                	lw	s0,12(sp)
20103ede:	0141                	add	sp,sp,16
20103ee0:	8082                	ret

20103ee2 <__metal_driver_sifive_fe310_g000_hfxosc_get_rate_hz>:
__metal_driver_sifive_fe310_g000_hfxosc_get_rate_hz():
C:/VSD/FreedomStudio-3-1-1-x86_64-w64-mingw32/FreedomStudio-3-1-1/SiFive/freedom-e-sdk-v21.11.00.00/freedom-metal/src/drivers/sifive_fe310-g000_hfxosc.c:15

#define CONFIG_ENABLE 0x40000000UL
#define CONFIG_READY 0x80000000UL

long __metal_driver_sifive_fe310_g000_hfxosc_get_rate_hz(
    const struct metal_clock *clock) {
20103ee2:	7139                	add	sp,sp,-64
20103ee4:	de06                	sw	ra,60(sp)
20103ee6:	dc22                	sw	s0,56(sp)
20103ee8:	0080                	add	s0,sp,64
20103eea:	fca42623          	sw	a0,-52(s0)
C:/VSD/FreedomStudio-3-1-1-x86_64-w64-mingw32/FreedomStudio-3-1-1/SiFive/freedom-e-sdk-v21.11.00.00/freedom-metal/src/drivers/sifive_fe310-g000_hfxosc.c:17
    struct metal_clock *ref =
        __metal_driver_sifive_fe310_g000_hfxosc_ref(clock);
20103eee:	fcc42503          	lw	a0,-52(s0)
20103ef2:	3f59                	jal	20103e88 <__metal_driver_sifive_fe310_g000_hfxosc_ref>
20103ef4:	fea42623          	sw	a0,-20(s0)
C:/VSD/FreedomStudio-3-1-1-x86_64-w64-mingw32/FreedomStudio-3-1-1/SiFive/freedom-e-sdk-v21.11.00.00/freedom-metal/src/drivers/sifive_fe310-g000_hfxosc.c:19
    long config_offset =
        __metal_driver_sifive_fe310_g000_hfxosc_config_offset(clock);
20103ef8:	fcc42503          	lw	a0,-52(s0)
20103efc:	3f75                	jal	20103eb8 <__metal_driver_sifive_fe310_g000_hfxosc_config_offset>
20103efe:	fea42423          	sw	a0,-24(s0)
C:/VSD/FreedomStudio-3-1-1-x86_64-w64-mingw32/FreedomStudio-3-1-1/SiFive/freedom-e-sdk-v21.11.00.00/freedom-metal/src/drivers/sifive_fe310-g000_hfxosc.c:21
    struct __metal_driver_sifive_fe310_g000_prci *config_base =
        __metal_driver_sifive_fe310_g000_hfxosc_config_base(clock);
20103f02:	fcc42503          	lw	a0,-52(s0)
20103f06:	3f71                	jal	20103ea2 <__metal_driver_sifive_fe310_g000_hfxosc_config_base>
20103f08:	fea42223          	sw	a0,-28(s0)
C:/VSD/FreedomStudio-3-1-1-x86_64-w64-mingw32/FreedomStudio-3-1-1/SiFive/freedom-e-sdk-v21.11.00.00/freedom-metal/src/drivers/sifive_fe310-g000_hfxosc.c:23
    const struct __metal_driver_vtable_sifive_fe310_g000_prci *vtable =
        __metal_driver_sifive_fe310_g000_prci_vtable();
20103f0c:	37c1                	jal	20103ecc <__metal_driver_sifive_fe310_g000_prci_vtable>
20103f0e:	fea42023          	sw	a0,-32(s0)
C:/VSD/FreedomStudio-3-1-1-x86_64-w64-mingw32/FreedomStudio-3-1-1/SiFive/freedom-e-sdk-v21.11.00.00/freedom-metal/src/drivers/sifive_fe310-g000_hfxosc.c:24
    long cfg = vtable->get_reg(config_base, config_offset);
20103f12:	fe042783          	lw	a5,-32(s0)
20103f16:	439c                	lw	a5,0(a5)
20103f18:	fe842583          	lw	a1,-24(s0)
20103f1c:	fe442503          	lw	a0,-28(s0)
20103f20:	9782                	jalr	a5
20103f22:	fca42e23          	sw	a0,-36(s0)
C:/VSD/FreedomStudio-3-1-1-x86_64-w64-mingw32/FreedomStudio-3-1-1/SiFive/freedom-e-sdk-v21.11.00.00/freedom-metal/src/drivers/sifive_fe310-g000_hfxosc.c:26

    if ((cfg & CONFIG_ENABLE) == 0)
20103f26:	fdc42703          	lw	a4,-36(s0)
20103f2a:	400007b7          	lui	a5,0x40000
20103f2e:	8ff9                	and	a5,a5,a4
20103f30:	e399                	bnez	a5,20103f36 <__metal_driver_sifive_fe310_g000_hfxosc_get_rate_hz+0x54>
C:/VSD/FreedomStudio-3-1-1-x86_64-w64-mingw32/FreedomStudio-3-1-1/SiFive/freedom-e-sdk-v21.11.00.00/freedom-metal/src/drivers/sifive_fe310-g000_hfxosc.c:27
        return -1;
20103f32:	57fd                	li	a5,-1
20103f34:	a821                	j	20103f4c <__metal_driver_sifive_fe310_g000_hfxosc_get_rate_hz+0x6a>
C:/VSD/FreedomStudio-3-1-1-x86_64-w64-mingw32/FreedomStudio-3-1-1/SiFive/freedom-e-sdk-v21.11.00.00/freedom-metal/src/drivers/sifive_fe310-g000_hfxosc.c:28
    if ((cfg & CONFIG_READY) == 0)
20103f36:	fdc42783          	lw	a5,-36(s0)
20103f3a:	0007c463          	bltz	a5,20103f42 <__metal_driver_sifive_fe310_g000_hfxosc_get_rate_hz+0x60>
C:/VSD/FreedomStudio-3-1-1-x86_64-w64-mingw32/FreedomStudio-3-1-1/SiFive/freedom-e-sdk-v21.11.00.00/freedom-metal/src/drivers/sifive_fe310-g000_hfxosc.c:29
        return -1;
20103f3e:	57fd                	li	a5,-1
20103f40:	a031                	j	20103f4c <__metal_driver_sifive_fe310_g000_hfxosc_get_rate_hz+0x6a>
C:/VSD/FreedomStudio-3-1-1-x86_64-w64-mingw32/FreedomStudio-3-1-1/SiFive/freedom-e-sdk-v21.11.00.00/freedom-metal/src/drivers/sifive_fe310-g000_hfxosc.c:30
    return metal_clock_get_rate_hz(ref);
20103f42:	fec42503          	lw	a0,-20(s0)
20103f46:	750010ef          	jal	20105696 <metal_clock_get_rate_hz>
20103f4a:	87aa                	mv	a5,a0
C:/VSD/FreedomStudio-3-1-1-x86_64-w64-mingw32/FreedomStudio-3-1-1/SiFive/freedom-e-sdk-v21.11.00.00/freedom-metal/src/drivers/sifive_fe310-g000_hfxosc.c:31
}
20103f4c:	853e                	mv	a0,a5
20103f4e:	50f2                	lw	ra,60(sp)
20103f50:	5462                	lw	s0,56(sp)
20103f52:	6121                	add	sp,sp,64
20103f54:	8082                	ret

20103f56 <__metal_driver_sifive_fe310_g000_hfxosc_set_rate_hz>:
__metal_driver_sifive_fe310_g000_hfxosc_set_rate_hz():
C:/VSD/FreedomStudio-3-1-1-x86_64-w64-mingw32/FreedomStudio-3-1-1/SiFive/freedom-e-sdk-v21.11.00.00/freedom-metal/src/drivers/sifive_fe310-g000_hfxosc.c:34

long __metal_driver_sifive_fe310_g000_hfxosc_set_rate_hz(
    struct metal_clock *clock, long rate) {
20103f56:	1101                	add	sp,sp,-32
20103f58:	ce06                	sw	ra,28(sp)
20103f5a:	cc22                	sw	s0,24(sp)
20103f5c:	1000                	add	s0,sp,32
20103f5e:	fea42623          	sw	a0,-20(s0)
20103f62:	feb42423          	sw	a1,-24(s0)
C:/VSD/FreedomStudio-3-1-1-x86_64-w64-mingw32/FreedomStudio-3-1-1/SiFive/freedom-e-sdk-v21.11.00.00/freedom-metal/src/drivers/sifive_fe310-g000_hfxosc.c:35
    return __metal_driver_sifive_fe310_g000_hfxosc_get_rate_hz(clock);
20103f66:	fec42503          	lw	a0,-20(s0)
20103f6a:	3fa5                	jal	20103ee2 <__metal_driver_sifive_fe310_g000_hfxosc_get_rate_hz>
20103f6c:	87aa                	mv	a5,a0
C:/VSD/FreedomStudio-3-1-1-x86_64-w64-mingw32/FreedomStudio-3-1-1/SiFive/freedom-e-sdk-v21.11.00.00/freedom-metal/src/drivers/sifive_fe310-g000_hfxosc.c:36
}
20103f6e:	853e                	mv	a0,a5
20103f70:	40f2                	lw	ra,28(sp)
20103f72:	4462                	lw	s0,24(sp)
20103f74:	6105                	add	sp,sp,32
20103f76:	8082                	ret

20103f78 <__metal_driver_sifive_fe310_g000_pll_pllsel0>:
__metal_driver_sifive_fe310_g000_pll_pllsel0():
C:\VSD\FreedomStudio-3-1-1-x86_64-w64-mingw32\FreedomStudio-3-1-1\SiFive\freedom-e-sdk-v21.11.00.00\bsp\sifive-hifive1\build\debug/./metal/machine.h:1191
{
20103f78:	1101                	add	sp,sp,-32
20103f7a:	ce22                	sw	s0,28(sp)
20103f7c:	1000                	add	s0,sp,32
20103f7e:	fea42623          	sw	a0,-20(s0)
C:\VSD\FreedomStudio-3-1-1-x86_64-w64-mingw32\FreedomStudio-3-1-1\SiFive\freedom-e-sdk-v21.11.00.00\bsp\sifive-hifive1\build\debug/./metal/machine.h:1192
		return (struct metal_clock *)&__metal_dt_clock_3.clock;
20103f82:	800017b7          	lui	a5,0x80001
20103f86:	9f078793          	add	a5,a5,-1552 # 800009f0 <__metal_dt_clock_3>
C:\VSD\FreedomStudio-3-1-1-x86_64-w64-mingw32\FreedomStudio-3-1-1\SiFive\freedom-e-sdk-v21.11.00.00\bsp\sifive-hifive1\build\debug/./metal/machine.h:1193
}
20103f8a:	853e                	mv	a0,a5
20103f8c:	4472                	lw	s0,28(sp)
20103f8e:	6105                	add	sp,sp,32
20103f90:	8082                	ret

20103f92 <__metal_driver_sifive_fe310_g000_pll_pllref>:
__metal_driver_sifive_fe310_g000_pll_pllref():
C:\VSD\FreedomStudio-3-1-1-x86_64-w64-mingw32\FreedomStudio-3-1-1\SiFive\freedom-e-sdk-v21.11.00.00\bsp\sifive-hifive1\build\debug/./metal/machine.h:1196
{
20103f92:	1101                	add	sp,sp,-32
20103f94:	ce22                	sw	s0,28(sp)
20103f96:	1000                	add	s0,sp,32
20103f98:	fea42623          	sw	a0,-20(s0)
C:\VSD\FreedomStudio-3-1-1-x86_64-w64-mingw32\FreedomStudio-3-1-1\SiFive\freedom-e-sdk-v21.11.00.00\bsp\sifive-hifive1\build\debug/./metal/machine.h:1197
		return (struct metal_clock *)&__metal_dt_clock_1.clock;
20103f9c:	800017b7          	lui	a5,0x80001
20103fa0:	9fc78793          	add	a5,a5,-1540 # 800009fc <__metal_dt_clock_1>
C:\VSD\FreedomStudio-3-1-1-x86_64-w64-mingw32\FreedomStudio-3-1-1\SiFive\freedom-e-sdk-v21.11.00.00\bsp\sifive-hifive1\build\debug/./metal/machine.h:1198
}
20103fa4:	853e                	mv	a0,a5
20103fa6:	4472                	lw	s0,28(sp)
20103fa8:	6105                	add	sp,sp,32
20103faa:	8082                	ret

20103fac <__metal_driver_sifive_fe310_g000_pll_divider_base>:
__metal_driver_sifive_fe310_g000_pll_divider_base():
C:\VSD\FreedomStudio-3-1-1-x86_64-w64-mingw32\FreedomStudio-3-1-1\SiFive\freedom-e-sdk-v21.11.00.00\bsp\sifive-hifive1\build\debug/./metal/machine.h:1201
{
20103fac:	1101                	add	sp,sp,-32
20103fae:	ce22                	sw	s0,28(sp)
20103fb0:	1000                	add	s0,sp,32
20103fb2:	fea42623          	sw	a0,-20(s0)
C:\VSD\FreedomStudio-3-1-1-x86_64-w64-mingw32\FreedomStudio-3-1-1\SiFive\freedom-e-sdk-v21.11.00.00\bsp\sifive-hifive1\build\debug/./metal/machine.h:1202
		return (struct __metal_driver_sifive_fe310_g000_prci *)&__metal_dt_prci_10008000;
20103fb6:	81818793          	add	a5,gp,-2024 # 80000a30 <__metal_dt_prci_10008000>
C:\VSD\FreedomStudio-3-1-1-x86_64-w64-mingw32\FreedomStudio-3-1-1\SiFive\freedom-e-sdk-v21.11.00.00\bsp\sifive-hifive1\build\debug/./metal/machine.h:1203
}
20103fba:	853e                	mv	a0,a5
20103fbc:	4472                	lw	s0,28(sp)
20103fbe:	6105                	add	sp,sp,32
20103fc0:	8082                	ret

20103fc2 <__metal_driver_sifive_fe310_g000_pll_divider_offset>:
__metal_driver_sifive_fe310_g000_pll_divider_offset():
C:\VSD\FreedomStudio-3-1-1-x86_64-w64-mingw32\FreedomStudio-3-1-1\SiFive\freedom-e-sdk-v21.11.00.00\bsp\sifive-hifive1\build\debug/./metal/machine.h:1206
{
20103fc2:	1101                	add	sp,sp,-32
20103fc4:	ce22                	sw	s0,28(sp)
20103fc6:	1000                	add	s0,sp,32
20103fc8:	fea42623          	sw	a0,-20(s0)
C:\VSD\FreedomStudio-3-1-1-x86_64-w64-mingw32\FreedomStudio-3-1-1\SiFive\freedom-e-sdk-v21.11.00.00\bsp\sifive-hifive1\build\debug/./metal/machine.h:1207
		return METAL_SIFIVE_FE310_G000_PRCI_PLLOUTDIV;
20103fcc:	47b1                	li	a5,12
C:\VSD\FreedomStudio-3-1-1-x86_64-w64-mingw32\FreedomStudio-3-1-1\SiFive\freedom-e-sdk-v21.11.00.00\bsp\sifive-hifive1\build\debug/./metal/machine.h:1208
}
20103fce:	853e                	mv	a0,a5
20103fd0:	4472                	lw	s0,28(sp)
20103fd2:	6105                	add	sp,sp,32
20103fd4:	8082                	ret

20103fd6 <__metal_driver_sifive_fe310_g000_pll_config_base>:
__metal_driver_sifive_fe310_g000_pll_config_base():
C:\VSD\FreedomStudio-3-1-1-x86_64-w64-mingw32\FreedomStudio-3-1-1\SiFive\freedom-e-sdk-v21.11.00.00\bsp\sifive-hifive1\build\debug/./metal/machine.h:1211
{
20103fd6:	1141                	add	sp,sp,-16
20103fd8:	c622                	sw	s0,12(sp)
20103fda:	0800                	add	s0,sp,16
C:\VSD\FreedomStudio-3-1-1-x86_64-w64-mingw32\FreedomStudio-3-1-1\SiFive\freedom-e-sdk-v21.11.00.00\bsp\sifive-hifive1\build\debug/./metal/machine.h:1212
		return (struct __metal_driver_sifive_fe310_g000_prci *)&__metal_dt_prci_10008000;
20103fdc:	81818793          	add	a5,gp,-2024 # 80000a30 <__metal_dt_prci_10008000>
C:\VSD\FreedomStudio-3-1-1-x86_64-w64-mingw32\FreedomStudio-3-1-1\SiFive\freedom-e-sdk-v21.11.00.00\bsp\sifive-hifive1\build\debug/./metal/machine.h:1213
}
20103fe0:	853e                	mv	a0,a5
20103fe2:	4432                	lw	s0,12(sp)
20103fe4:	0141                	add	sp,sp,16
20103fe6:	8082                	ret

20103fe8 <__metal_driver_sifive_fe310_g000_pll_config_offset>:
__metal_driver_sifive_fe310_g000_pll_config_offset():
C:\VSD\FreedomStudio-3-1-1-x86_64-w64-mingw32\FreedomStudio-3-1-1\SiFive\freedom-e-sdk-v21.11.00.00\bsp\sifive-hifive1\build\debug/./metal/machine.h:1216
{
20103fe8:	1141                	add	sp,sp,-16
20103fea:	c622                	sw	s0,12(sp)
20103fec:	0800                	add	s0,sp,16
C:\VSD\FreedomStudio-3-1-1-x86_64-w64-mingw32\FreedomStudio-3-1-1\SiFive\freedom-e-sdk-v21.11.00.00\bsp\sifive-hifive1\build\debug/./metal/machine.h:1217
		return METAL_SIFIVE_FE310_G000_PRCI_PLLCFG;
20103fee:	47a1                	li	a5,8
C:\VSD\FreedomStudio-3-1-1-x86_64-w64-mingw32\FreedomStudio-3-1-1\SiFive\freedom-e-sdk-v21.11.00.00\bsp\sifive-hifive1\build\debug/./metal/machine.h:1218
}
20103ff0:	853e                	mv	a0,a5
20103ff2:	4432                	lw	s0,12(sp)
20103ff4:	0141                	add	sp,sp,16
20103ff6:	8082                	ret

20103ff8 <__metal_driver_sifive_fe310_g000_pll_init_rate>:
__metal_driver_sifive_fe310_g000_pll_init_rate():
C:\VSD\FreedomStudio-3-1-1-x86_64-w64-mingw32\FreedomStudio-3-1-1\SiFive\freedom-e-sdk-v21.11.00.00\bsp\sifive-hifive1\build\debug/./metal/machine.h:1221
{
20103ff8:	1141                	add	sp,sp,-16
20103ffa:	c622                	sw	s0,12(sp)
20103ffc:	0800                	add	s0,sp,16
C:\VSD\FreedomStudio-3-1-1-x86_64-w64-mingw32\FreedomStudio-3-1-1\SiFive\freedom-e-sdk-v21.11.00.00\bsp\sifive-hifive1\build\debug/./metal/machine.h:1222
		return 16000000;
20103ffe:	00f427b7          	lui	a5,0xf42
20104002:	40078793          	add	a5,a5,1024 # f42400 <__heap_size+0xf41c00>
C:\VSD\FreedomStudio-3-1-1-x86_64-w64-mingw32\FreedomStudio-3-1-1\SiFive\freedom-e-sdk-v21.11.00.00\bsp\sifive-hifive1\build\debug/./metal/machine.h:1223
}
20104006:	853e                	mv	a0,a5
20104008:	4432                	lw	s0,12(sp)
2010400a:	0141                	add	sp,sp,16
2010400c:	8082                	ret

2010400e <__metal_driver_sifive_fe310_g000_prci_base>:
__metal_driver_sifive_fe310_g000_prci_base():
C:\VSD\FreedomStudio-3-1-1-x86_64-w64-mingw32\FreedomStudio-3-1-1\SiFive\freedom-e-sdk-v21.11.00.00\bsp\sifive-hifive1\build\debug/./metal/machine.h:1229
{
2010400e:	1141                	add	sp,sp,-16
20104010:	c622                	sw	s0,12(sp)
20104012:	0800                	add	s0,sp,16
C:\VSD\FreedomStudio-3-1-1-x86_64-w64-mingw32\FreedomStudio-3-1-1\SiFive\freedom-e-sdk-v21.11.00.00\bsp\sifive-hifive1\build\debug/./metal/machine.h:1230
		return METAL_SIFIVE_FE310_G000_PRCI_10008000_BASE_ADDRESS;
20104014:	100087b7          	lui	a5,0x10008
C:\VSD\FreedomStudio-3-1-1-x86_64-w64-mingw32\FreedomStudio-3-1-1\SiFive\freedom-e-sdk-v21.11.00.00\bsp\sifive-hifive1\build\debug/./metal/machine.h:1231
}
20104018:	853e                	mv	a0,a5
2010401a:	4432                	lw	s0,12(sp)
2010401c:	0141                	add	sp,sp,16
2010401e:	8082                	ret

20104020 <__metal_driver_sifive_fe310_g000_prci_vtable>:
__metal_driver_sifive_fe310_g000_prci_vtable():
C:\VSD\FreedomStudio-3-1-1-x86_64-w64-mingw32\FreedomStudio-3-1-1\SiFive\freedom-e-sdk-v21.11.00.00\bsp\sifive-hifive1\build\debug/./metal/machine.h:1239
{
20104020:	1141                	add	sp,sp,-16
20104022:	c622                	sw	s0,12(sp)
20104024:	0800                	add	s0,sp,16
C:\VSD\FreedomStudio-3-1-1-x86_64-w64-mingw32\FreedomStudio-3-1-1\SiFive\freedom-e-sdk-v21.11.00.00\bsp\sifive-hifive1\build\debug/./metal/machine.h:1240
		return &__metal_driver_vtable_sifive_fe310_g000_prci;
20104026:	201017b7          	lui	a5,0x20101
2010402a:	ec878793          	add	a5,a5,-312 # 20100ec8 <__metal_driver_vtable_sifive_fe310_g000_prci>
C:\VSD\FreedomStudio-3-1-1-x86_64-w64-mingw32\FreedomStudio-3-1-1\SiFive\freedom-e-sdk-v21.11.00.00\bsp\sifive-hifive1\build\debug/./metal/machine.h:1241
}
2010402e:	853e                	mv	a0,a5
20104030:	4432                	lw	s0,12(sp)
20104032:	0141                	add	sp,sp,16
20104034:	8082                	ret

20104036 <get_pll_config_freq>:
get_pll_config_freq():
C:/VSD/FreedomStudio-3-1-1-x86_64-w64-mingw32/FreedomStudio-3-1-1/SiFive/freedom-e-sdk-v21.11.00.00/freedom-metal/src/drivers/sifive_fe310-g000_pll.c:141
                                const struct pll_config_t *config) {
20104036:	1101                	add	sp,sp,-32
20104038:	ce22                	sw	s0,28(sp)
2010403a:	1000                	add	s0,sp,32
2010403c:	fea42623          	sw	a0,-20(s0)
20104040:	feb42423          	sw	a1,-24(s0)
C:/VSD/FreedomStudio-3-1-1-x86_64-w64-mingw32/FreedomStudio-3-1-1/SiFive/freedom-e-sdk-v21.11.00.00/freedom-metal/src/drivers/sifive_fe310-g000_pll.c:142
    if (pll_input_rate < config->min_input_rate ||
20104044:	fe842783          	lw	a5,-24(s0)
20104048:	479c                	lw	a5,8(a5)
2010404a:	fec42703          	lw	a4,-20(s0)
2010404e:	00f76963          	bltu	a4,a5,20104060 <get_pll_config_freq+0x2a>
C:/VSD/FreedomStudio-3-1-1-x86_64-w64-mingw32/FreedomStudio-3-1-1/SiFive/freedom-e-sdk-v21.11.00.00/freedom-metal/src/drivers/sifive_fe310-g000_pll.c:143
        pll_input_rate > config->max_input_rate)
20104052:	fe842783          	lw	a5,-24(s0)
20104056:	47dc                	lw	a5,12(a5)
C:/VSD/FreedomStudio-3-1-1-x86_64-w64-mingw32/FreedomStudio-3-1-1/SiFive/freedom-e-sdk-v21.11.00.00/freedom-metal/src/drivers/sifive_fe310-g000_pll.c:142 (discriminator 1)
    if (pll_input_rate < config->min_input_rate ||
20104058:	fec42703          	lw	a4,-20(s0)
2010405c:	00e7f463          	bgeu	a5,a4,20104064 <get_pll_config_freq+0x2e>
C:/VSD/FreedomStudio-3-1-1-x86_64-w64-mingw32/FreedomStudio-3-1-1/SiFive/freedom-e-sdk-v21.11.00.00/freedom-metal/src/drivers/sifive_fe310-g000_pll.c:144
        return PLL_CONFIG_NOT_VALID;
20104060:	57fd                	li	a5,-1
20104062:	a829                	j	2010407c <get_pll_config_freq+0x46>
C:/VSD/FreedomStudio-3-1-1-x86_64-w64-mingw32/FreedomStudio-3-1-1/SiFive/freedom-e-sdk-v21.11.00.00/freedom-metal/src/drivers/sifive_fe310-g000_pll.c:146
    return pll_input_rate * config->multiplier / config->divisor;
20104064:	fe842783          	lw	a5,-24(s0)
20104068:	4398                	lw	a4,0(a5)
2010406a:	fec42783          	lw	a5,-20(s0)
2010406e:	02f70733          	mul	a4,a4,a5
20104072:	fe842783          	lw	a5,-24(s0)
20104076:	43dc                	lw	a5,4(a5)
20104078:	02f757b3          	divu	a5,a4,a5
C:/VSD/FreedomStudio-3-1-1-x86_64-w64-mingw32/FreedomStudio-3-1-1/SiFive/freedom-e-sdk-v21.11.00.00/freedom-metal/src/drivers/sifive_fe310-g000_pll.c:147
}
2010407c:	853e                	mv	a0,a5
2010407e:	4472                	lw	s0,28(sp)
20104080:	6105                	add	sp,sp,32
20104082:	8082                	ret

20104084 <__metal_driver_sifive_fe310_g000_pll_init>:
__metal_driver_sifive_fe310_g000_pll_init():
C:/VSD/FreedomStudio-3-1-1-x86_64-w64-mingw32/FreedomStudio-3-1-1/SiFive/freedom-e-sdk-v21.11.00.00/freedom-metal/src/drivers/sifive_fe310-g000_pll.c:162
    struct __metal_driver_sifive_fe310_g000_pll *pll) {
20104084:	7139                	add	sp,sp,-64
20104086:	de06                	sw	ra,60(sp)
20104088:	dc22                	sw	s0,56(sp)
2010408a:	0080                	add	s0,sp,64
2010408c:	fca42623          	sw	a0,-52(s0)
C:/VSD/FreedomStudio-3-1-1-x86_64-w64-mingw32/FreedomStudio-3-1-1/SiFive/freedom-e-sdk-v21.11.00.00/freedom-metal/src/drivers/sifive_fe310-g000_pll.c:164
        __metal_driver_sifive_fe310_g000_pll_pllref(&(pll->clock));
20104090:	fcc42783          	lw	a5,-52(s0)
20104094:	853e                	mv	a0,a5
20104096:	3df5                	jal	20103f92 <__metal_driver_sifive_fe310_g000_pll_pllref>
20104098:	fea42623          	sw	a0,-20(s0)
C:/VSD/FreedomStudio-3-1-1-x86_64-w64-mingw32/FreedomStudio-3-1-1/SiFive/freedom-e-sdk-v21.11.00.00/freedom-metal/src/drivers/sifive_fe310-g000_pll.c:165
    long init_rate = __metal_driver_sifive_fe310_g000_pll_init_rate();
2010409c:	3fb1                	jal	20103ff8 <__metal_driver_sifive_fe310_g000_pll_init_rate>
2010409e:	fea42423          	sw	a0,-24(s0)
C:/VSD/FreedomStudio-3-1-1-x86_64-w64-mingw32/FreedomStudio-3-1-1/SiFive/freedom-e-sdk-v21.11.00.00/freedom-metal/src/drivers/sifive_fe310-g000_pll.c:166
    long config_offset = __metal_driver_sifive_fe310_g000_pll_config_offset();
201040a2:	3799                	jal	20103fe8 <__metal_driver_sifive_fe310_g000_pll_config_offset>
201040a4:	fea42223          	sw	a0,-28(s0)
C:/VSD/FreedomStudio-3-1-1-x86_64-w64-mingw32/FreedomStudio-3-1-1/SiFive/freedom-e-sdk-v21.11.00.00/freedom-metal/src/drivers/sifive_fe310-g000_pll.c:167
    long base = __metal_driver_sifive_fe310_g000_prci_base();
201040a8:	379d                	jal	2010400e <__metal_driver_sifive_fe310_g000_prci_base>
201040aa:	fea42023          	sw	a0,-32(s0)
C:/VSD/FreedomStudio-3-1-1-x86_64-w64-mingw32/FreedomStudio-3-1-1/SiFive/freedom-e-sdk-v21.11.00.00/freedom-metal/src/drivers/sifive_fe310-g000_pll.c:169
    __metal_io_u32 *pllcfg = (__metal_io_u32 *)(base + config_offset);
201040ae:	fe042703          	lw	a4,-32(s0)
201040b2:	fe442783          	lw	a5,-28(s0)
201040b6:	97ba                	add	a5,a5,a4
201040b8:	fcf42e23          	sw	a5,-36(s0)
C:/VSD/FreedomStudio-3-1-1-x86_64-w64-mingw32/FreedomStudio-3-1-1/SiFive/freedom-e-sdk-v21.11.00.00/freedom-metal/src/drivers/sifive_fe310-g000_pll.c:173
    _metal_clock_call_all_callbacks(pll->clock._pre_rate_change_callback);
201040bc:	fcc42783          	lw	a5,-52(s0)
201040c0:	43dc                	lw	a5,4(a5)
201040c2:	853e                	mv	a0,a5
201040c4:	53c010ef          	jal	20105600 <_metal_clock_call_all_callbacks>
C:/VSD/FreedomStudio-3-1-1-x86_64-w64-mingw32/FreedomStudio-3-1-1/SiFive/freedom-e-sdk-v21.11.00.00/freedom-metal/src/drivers/sifive_fe310-g000_pll.c:177
    if ((__METAL_ACCESS_ONCE(pllcfg) & PLL_SEL) != 0)
201040c8:	fdc42783          	lw	a5,-36(s0)
201040cc:	4398                	lw	a4,0(a5)
201040ce:	67c1                	lui	a5,0x10
201040d0:	8ff9                	and	a5,a5,a4
201040d2:	cb91                	beqz	a5,201040e6 <__metal_driver_sifive_fe310_g000_pll_init+0x62>
C:/VSD/FreedomStudio-3-1-1-x86_64-w64-mingw32/FreedomStudio-3-1-1/SiFive/freedom-e-sdk-v21.11.00.00/freedom-metal/src/drivers/sifive_fe310-g000_pll.c:178
        __METAL_ACCESS_ONCE(pllcfg) &= ~(PLL_SEL);
201040d4:	fdc42783          	lw	a5,-36(s0)
201040d8:	4398                	lw	a4,0(a5)
201040da:	77c1                	lui	a5,0xffff0
201040dc:	17fd                	add	a5,a5,-1 # fffeffff <metal_segment_heap_target_end+0x7ffee91f>
201040de:	8f7d                	and	a4,a4,a5
201040e0:	fdc42783          	lw	a5,-36(s0)
201040e4:	c398                	sw	a4,0(a5)
C:/VSD/FreedomStudio-3-1-1-x86_64-w64-mingw32/FreedomStudio-3-1-1/SiFive/freedom-e-sdk-v21.11.00.00/freedom-metal/src/drivers/sifive_fe310-g000_pll.c:181
    if (pllref != NULL)
201040e6:	fec42783          	lw	a5,-20(s0)
201040ea:	cb91                	beqz	a5,201040fe <__metal_driver_sifive_fe310_g000_pll_init+0x7a>
C:/VSD/FreedomStudio-3-1-1-x86_64-w64-mingw32/FreedomStudio-3-1-1/SiFive/freedom-e-sdk-v21.11.00.00/freedom-metal/src/drivers/sifive_fe310-g000_pll.c:182
        __METAL_ACCESS_ONCE(pllcfg) |= PLL_REFSEL;
201040ec:	fdc42783          	lw	a5,-36(s0)
201040f0:	4398                	lw	a4,0(a5)
201040f2:	000207b7          	lui	a5,0x20
201040f6:	8f5d                	or	a4,a4,a5
201040f8:	fdc42783          	lw	a5,-36(s0)
201040fc:	c398                	sw	a4,0(a5)
C:/VSD/FreedomStudio-3-1-1-x86_64-w64-mingw32/FreedomStudio-3-1-1/SiFive/freedom-e-sdk-v21.11.00.00/freedom-metal/src/drivers/sifive_fe310-g000_pll.c:187
    pll->clock.vtable->set_rate_hz(&(pll->clock), init_rate);
201040fe:	fcc42783          	lw	a5,-52(s0)
20104102:	439c                	lw	a5,0(a5)
20104104:	43dc                	lw	a5,4(a5)
20104106:	fcc42703          	lw	a4,-52(s0)
2010410a:	fe842583          	lw	a1,-24(s0)
2010410e:	853a                	mv	a0,a4
20104110:	9782                	jalr	a5
C:/VSD/FreedomStudio-3-1-1-x86_64-w64-mingw32/FreedomStudio-3-1-1/SiFive/freedom-e-sdk-v21.11.00.00/freedom-metal/src/drivers/sifive_fe310-g000_pll.c:190
    _metal_clock_call_all_callbacks(pll->clock._post_rate_change_callback);
20104112:	fcc42783          	lw	a5,-52(s0)
20104116:	479c                	lw	a5,8(a5)
20104118:	853e                	mv	a0,a5
2010411a:	4e6010ef          	jal	20105600 <_metal_clock_call_all_callbacks>
C:/VSD/FreedomStudio-3-1-1-x86_64-w64-mingw32/FreedomStudio-3-1-1/SiFive/freedom-e-sdk-v21.11.00.00/freedom-metal/src/drivers/sifive_fe310-g000_pll.c:191
}
2010411e:	0001                	nop
20104120:	50f2                	lw	ra,60(sp)
20104122:	5462                	lw	s0,56(sp)
20104124:	6121                	add	sp,sp,64
20104126:	8082                	ret

20104128 <__metal_driver_sifive_fe310_g000_pll_get_rate_hz>:
__metal_driver_sifive_fe310_g000_pll_get_rate_hz():
C:/VSD/FreedomStudio-3-1-1-x86_64-w64-mingw32/FreedomStudio-3-1-1/SiFive/freedom-e-sdk-v21.11.00.00/freedom-metal/src/drivers/sifive_fe310-g000_pll.c:194
    const struct metal_clock *clock) {
20104128:	711d                	add	sp,sp,-96
2010412a:	ce86                	sw	ra,92(sp)
2010412c:	cca2                	sw	s0,88(sp)
2010412e:	1080                	add	s0,sp,96
20104130:	faa42623          	sw	a0,-84(s0)
C:/VSD/FreedomStudio-3-1-1-x86_64-w64-mingw32/FreedomStudio-3-1-1/SiFive/freedom-e-sdk-v21.11.00.00/freedom-metal/src/drivers/sifive_fe310-g000_pll.c:196
        __metal_driver_sifive_fe310_g000_pll_pllref(clock);
20104134:	fac42503          	lw	a0,-84(s0)
20104138:	3da9                	jal	20103f92 <__metal_driver_sifive_fe310_g000_pll_pllref>
2010413a:	fea42623          	sw	a0,-20(s0)
C:/VSD/FreedomStudio-3-1-1-x86_64-w64-mingw32/FreedomStudio-3-1-1/SiFive/freedom-e-sdk-v21.11.00.00/freedom-metal/src/drivers/sifive_fe310-g000_pll.c:198
        __metal_driver_sifive_fe310_g000_pll_pllsel0(clock);
2010413e:	fac42503          	lw	a0,-84(s0)
20104142:	3d1d                	jal	20103f78 <__metal_driver_sifive_fe310_g000_pll_pllsel0>
20104144:	fea42423          	sw	a0,-24(s0)
C:/VSD/FreedomStudio-3-1-1-x86_64-w64-mingw32/FreedomStudio-3-1-1/SiFive/freedom-e-sdk-v21.11.00.00/freedom-metal/src/drivers/sifive_fe310-g000_pll.c:200
        __metal_driver_sifive_fe310_g000_pll_config_offset(clock);
20104148:	fac42503          	lw	a0,-84(s0)
2010414c:	3d71                	jal	20103fe8 <__metal_driver_sifive_fe310_g000_pll_config_offset>
2010414e:	fea42223          	sw	a0,-28(s0)
C:/VSD/FreedomStudio-3-1-1-x86_64-w64-mingw32/FreedomStudio-3-1-1/SiFive/freedom-e-sdk-v21.11.00.00/freedom-metal/src/drivers/sifive_fe310-g000_pll.c:202
        __metal_driver_sifive_fe310_g000_pll_config_base(clock);
20104152:	fac42503          	lw	a0,-84(s0)
20104156:	3541                	jal	20103fd6 <__metal_driver_sifive_fe310_g000_pll_config_base>
20104158:	fea42023          	sw	a0,-32(s0)
C:/VSD/FreedomStudio-3-1-1-x86_64-w64-mingw32/FreedomStudio-3-1-1/SiFive/freedom-e-sdk-v21.11.00.00/freedom-metal/src/drivers/sifive_fe310-g000_pll.c:204
        __metal_driver_sifive_fe310_g000_pll_divider_offset(clock);
2010415c:	fac42503          	lw	a0,-84(s0)
20104160:	358d                	jal	20103fc2 <__metal_driver_sifive_fe310_g000_pll_divider_offset>
20104162:	fca42e23          	sw	a0,-36(s0)
C:/VSD/FreedomStudio-3-1-1-x86_64-w64-mingw32/FreedomStudio-3-1-1/SiFive/freedom-e-sdk-v21.11.00.00/freedom-metal/src/drivers/sifive_fe310-g000_pll.c:206
        __metal_driver_sifive_fe310_g000_pll_divider_base(clock);
20104166:	fac42503          	lw	a0,-84(s0)
2010416a:	3589                	jal	20103fac <__metal_driver_sifive_fe310_g000_pll_divider_base>
2010416c:	fca42c23          	sw	a0,-40(s0)
C:/VSD/FreedomStudio-3-1-1-x86_64-w64-mingw32/FreedomStudio-3-1-1/SiFive/freedom-e-sdk-v21.11.00.00/freedom-metal/src/drivers/sifive_fe310-g000_pll.c:208
        __metal_driver_sifive_fe310_g000_prci_vtable();
20104170:	3d45                	jal	20104020 <__metal_driver_sifive_fe310_g000_prci_vtable>
20104172:	fca42a23          	sw	a0,-44(s0)
C:/VSD/FreedomStudio-3-1-1-x86_64-w64-mingw32/FreedomStudio-3-1-1/SiFive/freedom-e-sdk-v21.11.00.00/freedom-metal/src/drivers/sifive_fe310-g000_pll.c:210
    long cfg = vtable->get_reg(config_base, config_offset);
20104176:	fd442783          	lw	a5,-44(s0)
2010417a:	439c                	lw	a5,0(a5)
2010417c:	fe442583          	lw	a1,-28(s0)
20104180:	fe042503          	lw	a0,-32(s0)
20104184:	9782                	jalr	a5
20104186:	fca42823          	sw	a0,-48(s0)
C:/VSD/FreedomStudio-3-1-1-x86_64-w64-mingw32/FreedomStudio-3-1-1/SiFive/freedom-e-sdk-v21.11.00.00/freedom-metal/src/drivers/sifive_fe310-g000_pll.c:211
    long div = vtable->get_reg(divider_base, divider_offset);
2010418a:	fd442783          	lw	a5,-44(s0)
2010418e:	439c                	lw	a5,0(a5)
20104190:	fdc42583          	lw	a1,-36(s0)
20104194:	fd842503          	lw	a0,-40(s0)
20104198:	9782                	jalr	a5
2010419a:	fca42623          	sw	a0,-52(s0)
C:/VSD/FreedomStudio-3-1-1-x86_64-w64-mingw32/FreedomStudio-3-1-1/SiFive/freedom-e-sdk-v21.11.00.00/freedom-metal/src/drivers/sifive_fe310-g000_pll.c:215
    if (__METAL_GET_FIELD(cfg, PLL_SEL) == 0)
2010419e:	fd042703          	lw	a4,-48(s0)
201041a2:	67c1                	lui	a5,0x10
201041a4:	8f7d                	and	a4,a4,a5
201041a6:	67c1                	lui	a5,0x10
201041a8:	00f77863          	bgeu	a4,a5,201041b8 <__metal_driver_sifive_fe310_g000_pll_get_rate_hz+0x90>
C:/VSD/FreedomStudio-3-1-1-x86_64-w64-mingw32/FreedomStudio-3-1-1/SiFive/freedom-e-sdk-v21.11.00.00/freedom-metal/src/drivers/sifive_fe310-g000_pll.c:216
        return metal_clock_get_rate_hz(pllsel0);
201041ac:	fe842503          	lw	a0,-24(s0)
201041b0:	4e6010ef          	jal	20105696 <metal_clock_get_rate_hz>
201041b4:	87aa                	mv	a5,a0
201041b6:	a8e1                	j	2010428e <__metal_driver_sifive_fe310_g000_pll_get_rate_hz+0x166>
C:/VSD/FreedomStudio-3-1-1-x86_64-w64-mingw32/FreedomStudio-3-1-1/SiFive/freedom-e-sdk-v21.11.00.00/freedom-metal/src/drivers/sifive_fe310-g000_pll.c:221
        __METAL_GET_FIELD(cfg, PLL_REFSEL) ? pllref : pllsel0);
201041b8:	fd042703          	lw	a4,-48(s0)
201041bc:	000207b7          	lui	a5,0x20
201041c0:	8f7d                	and	a4,a4,a5
C:/VSD/FreedomStudio-3-1-1-x86_64-w64-mingw32/FreedomStudio-3-1-1/SiFive/freedom-e-sdk-v21.11.00.00/freedom-metal/src/drivers/sifive_fe310-g000_pll.c:220
    long ref_hz = metal_clock_get_rate_hz(
201041c2:	000207b7          	lui	a5,0x20
201041c6:	00f76563          	bltu	a4,a5,201041d0 <__metal_driver_sifive_fe310_g000_pll_get_rate_hz+0xa8>
C:/VSD/FreedomStudio-3-1-1-x86_64-w64-mingw32/FreedomStudio-3-1-1/SiFive/freedom-e-sdk-v21.11.00.00/freedom-metal/src/drivers/sifive_fe310-g000_pll.c:220 (discriminator 1)
201041ca:	fec42783          	lw	a5,-20(s0)
201041ce:	a019                	j	201041d4 <__metal_driver_sifive_fe310_g000_pll_get_rate_hz+0xac>
C:/VSD/FreedomStudio-3-1-1-x86_64-w64-mingw32/FreedomStudio-3-1-1/SiFive/freedom-e-sdk-v21.11.00.00/freedom-metal/src/drivers/sifive_fe310-g000_pll.c:220 (discriminator 2)
201041d0:	fe842783          	lw	a5,-24(s0)
C:/VSD/FreedomStudio-3-1-1-x86_64-w64-mingw32/FreedomStudio-3-1-1/SiFive/freedom-e-sdk-v21.11.00.00/freedom-metal/src/drivers/sifive_fe310-g000_pll.c:220 (discriminator 4)
201041d4:	853e                	mv	a0,a5
201041d6:	4c0010ef          	jal	20105696 <metal_clock_get_rate_hz>
201041da:	fca42423          	sw	a0,-56(s0)
C:/VSD/FreedomStudio-3-1-1-x86_64-w64-mingw32/FreedomStudio-3-1-1/SiFive/freedom-e-sdk-v21.11.00.00/freedom-metal/src/drivers/sifive_fe310-g000_pll.c:225
    if (__METAL_GET_FIELD(cfg, PLL_BYPASS))
201041de:	fd042703          	lw	a4,-48(s0)
201041e2:	000407b7          	lui	a5,0x40
201041e6:	8f7d                	and	a4,a4,a5
201041e8:	000407b7          	lui	a5,0x40
201041ec:	00f76563          	bltu	a4,a5,201041f6 <__metal_driver_sifive_fe310_g000_pll_get_rate_hz+0xce>
C:/VSD/FreedomStudio-3-1-1-x86_64-w64-mingw32/FreedomStudio-3-1-1/SiFive/freedom-e-sdk-v21.11.00.00/freedom-metal/src/drivers/sifive_fe310-g000_pll.c:226
        return ref_hz;
201041f0:	fc842783          	lw	a5,-56(s0)
201041f4:	a869                	j	2010428e <__metal_driver_sifive_fe310_g000_pll_get_rate_hz+0x166>
C:/VSD/FreedomStudio-3-1-1-x86_64-w64-mingw32/FreedomStudio-3-1-1/SiFive/freedom-e-sdk-v21.11.00.00/freedom-metal/src/drivers/sifive_fe310-g000_pll.c:229
    long div_r = __METAL_GET_FIELD(cfg, PLL_R) + 1;
201041f6:	fd042783          	lw	a5,-48(s0)
201041fa:	8b9d                	and	a5,a5,7
201041fc:	0785                	add	a5,a5,1 # 40001 <__heap_size+0x3f801>
201041fe:	fcf42223          	sw	a5,-60(s0)
C:/VSD/FreedomStudio-3-1-1-x86_64-w64-mingw32/FreedomStudio-3-1-1/SiFive/freedom-e-sdk-v21.11.00.00/freedom-metal/src/drivers/sifive_fe310-g000_pll.c:230
    long mul_f = 2 * (__METAL_GET_FIELD(cfg, PLL_F) + 1);
20104202:	fd042783          	lw	a5,-48(s0)
20104206:	3f07f793          	and	a5,a5,1008
2010420a:	8391                	srl	a5,a5,0x4
2010420c:	0785                	add	a5,a5,1
2010420e:	0786                	sll	a5,a5,0x1
20104210:	fcf42023          	sw	a5,-64(s0)
C:/VSD/FreedomStudio-3-1-1-x86_64-w64-mingw32/FreedomStudio-3-1-1/SiFive/freedom-e-sdk-v21.11.00.00/freedom-metal/src/drivers/sifive_fe310-g000_pll.c:231
    if (__METAL_GET_FIELD(cfg, PLL_Q) == 0)
20104214:	fd042703          	lw	a4,-48(s0)
20104218:	6785                	lui	a5,0x1
2010421a:	c0078793          	add	a5,a5,-1024 # c00 <__heap_size+0x400>
2010421e:	8f7d                	and	a4,a4,a5
20104220:	3ff00793          	li	a5,1023
20104224:	00e7e463          	bltu	a5,a4,2010422c <__metal_driver_sifive_fe310_g000_pll_get_rate_hz+0x104>
C:/VSD/FreedomStudio-3-1-1-x86_64-w64-mingw32/FreedomStudio-3-1-1/SiFive/freedom-e-sdk-v21.11.00.00/freedom-metal/src/drivers/sifive_fe310-g000_pll.c:232
        return -1;
20104228:	57fd                	li	a5,-1
2010422a:	a095                	j	2010428e <__metal_driver_sifive_fe310_g000_pll_get_rate_hz+0x166>
C:/VSD/FreedomStudio-3-1-1-x86_64-w64-mingw32/FreedomStudio-3-1-1/SiFive/freedom-e-sdk-v21.11.00.00/freedom-metal/src/drivers/sifive_fe310-g000_pll.c:233
    long div_q = 1 << __METAL_GET_FIELD(cfg, PLL_Q);
2010422c:	fd042703          	lw	a4,-48(s0)
20104230:	6785                	lui	a5,0x1
20104232:	c0078793          	add	a5,a5,-1024 # c00 <__heap_size+0x400>
20104236:	8ff9                	and	a5,a5,a4
20104238:	83a9                	srl	a5,a5,0xa
2010423a:	4705                	li	a4,1
2010423c:	00f717b3          	sll	a5,a4,a5
20104240:	faf42e23          	sw	a5,-68(s0)
C:/VSD/FreedomStudio-3-1-1-x86_64-w64-mingw32/FreedomStudio-3-1-1/SiFive/freedom-e-sdk-v21.11.00.00/freedom-metal/src/drivers/sifive_fe310-g000_pll.c:238
    long pllout = (((ref_hz / div_r) * mul_f) / div_q);
20104244:	fc842703          	lw	a4,-56(s0)
20104248:	fc442783          	lw	a5,-60(s0)
2010424c:	02f74733          	div	a4,a4,a5
20104250:	fc042783          	lw	a5,-64(s0)
20104254:	02f70733          	mul	a4,a4,a5
20104258:	fbc42783          	lw	a5,-68(s0)
2010425c:	02f747b3          	div	a5,a4,a5
20104260:	faf42c23          	sw	a5,-72(s0)
C:/VSD/FreedomStudio-3-1-1-x86_64-w64-mingw32/FreedomStudio-3-1-1/SiFive/freedom-e-sdk-v21.11.00.00/freedom-metal/src/drivers/sifive_fe310-g000_pll.c:239
    if (__METAL_GET_FIELD(div, DIV_1))
20104264:	fcc42783          	lw	a5,-52(s0)
20104268:	1007f713          	and	a4,a5,256
2010426c:	0ff00793          	li	a5,255
20104270:	00e7f563          	bgeu	a5,a4,2010427a <__metal_driver_sifive_fe310_g000_pll_get_rate_hz+0x152>
C:/VSD/FreedomStudio-3-1-1-x86_64-w64-mingw32/FreedomStudio-3-1-1/SiFive/freedom-e-sdk-v21.11.00.00/freedom-metal/src/drivers/sifive_fe310-g000_pll.c:240
        return pllout;
20104274:	fb842783          	lw	a5,-72(s0)
20104278:	a819                	j	2010428e <__metal_driver_sifive_fe310_g000_pll_get_rate_hz+0x166>
C:/VSD/FreedomStudio-3-1-1-x86_64-w64-mingw32/FreedomStudio-3-1-1/SiFive/freedom-e-sdk-v21.11.00.00/freedom-metal/src/drivers/sifive_fe310-g000_pll.c:242
    return pllout / (2 * (__METAL_GET_FIELD(div, DIV_DIV) + 1));
2010427a:	fb842703          	lw	a4,-72(s0)
2010427e:	fcc42783          	lw	a5,-52(s0)
20104282:	03f7f793          	and	a5,a5,63
20104286:	0785                	add	a5,a5,1
20104288:	0786                	sll	a5,a5,0x1
2010428a:	02f757b3          	divu	a5,a4,a5
C:/VSD/FreedomStudio-3-1-1-x86_64-w64-mingw32/FreedomStudio-3-1-1/SiFive/freedom-e-sdk-v21.11.00.00/freedom-metal/src/drivers/sifive_fe310-g000_pll.c:243
}
2010428e:	853e                	mv	a0,a5
20104290:	40f6                	lw	ra,92(sp)
20104292:	4466                	lw	s0,88(sp)
20104294:	6125                	add	sp,sp,96
20104296:	8082                	ret

20104298 <find_closest_config>:
find_closest_config():
C:/VSD/FreedomStudio-3-1-1-x86_64-w64-mingw32/FreedomStudio-3-1-1/SiFive/freedom-e-sdk-v21.11.00.00/freedom-metal/src/drivers/sifive_fe310-g000_pll.c:253
static int find_closest_config(long ref_hz, long rate) {
20104298:	7139                	add	sp,sp,-64
2010429a:	de06                	sw	ra,60(sp)
2010429c:	dc22                	sw	s0,56(sp)
2010429e:	0080                	add	s0,sp,64
201042a0:	fca42623          	sw	a0,-52(s0)
201042a4:	fcb42423          	sw	a1,-56(s0)
C:/VSD/FreedomStudio-3-1-1-x86_64-w64-mingw32/FreedomStudio-3-1-1/SiFive/freedom-e-sdk-v21.11.00.00/freedom-metal/src/drivers/sifive_fe310-g000_pll.c:254
    int closest_index = -1;
201042a8:	57fd                	li	a5,-1
201042aa:	fef42623          	sw	a5,-20(s0)
C:/VSD/FreedomStudio-3-1-1-x86_64-w64-mingw32/FreedomStudio-3-1-1/SiFive/freedom-e-sdk-v21.11.00.00/freedom-metal/src/drivers/sifive_fe310-g000_pll.c:255
    long closest_diff = LONG_MAX;
201042ae:	800007b7          	lui	a5,0x80000
201042b2:	17fd                	add	a5,a5,-1 # 7fffffff <metal_segment_data_source_start+0x5fefa647>
201042b4:	fef42423          	sw	a5,-24(s0)
C:/VSD/FreedomStudio-3-1-1-x86_64-w64-mingw32/FreedomStudio-3-1-1/SiFive/freedom-e-sdk-v21.11.00.00/freedom-metal/src/drivers/sifive_fe310-g000_pll.c:259
    for (int i = (sizeof(pll_configs) / sizeof(pll_configs[0])) - 1; i >= 0;
201042b8:	04300793          	li	a5,67
201042bc:	fef42223          	sw	a5,-28(s0)
201042c0:	a0ad                	j	2010432a <find_closest_config+0x92>
C:/VSD/FreedomStudio-3-1-1-x86_64-w64-mingw32/FreedomStudio-3-1-1/SiFive/freedom-e-sdk-v21.11.00.00/freedom-metal/src/drivers/sifive_fe310-g000_pll.c:261
        long config_freq = get_pll_config_freq(ref_hz, &(pll_configs[i]));
201042c2:	fcc42683          	lw	a3,-52(s0)
201042c6:	fe442783          	lw	a5,-28(s0)
201042ca:	00579713          	sll	a4,a5,0x5
201042ce:	201007b7          	lui	a5,0x20100
201042d2:	56c78793          	add	a5,a5,1388 # 2010056c <pll_configs>
201042d6:	97ba                	add	a5,a5,a4
201042d8:	85be                	mv	a1,a5
201042da:	8536                	mv	a0,a3
201042dc:	3ba9                	jal	20104036 <get_pll_config_freq>
201042de:	fea42023          	sw	a0,-32(s0)
C:/VSD/FreedomStudio-3-1-1-x86_64-w64-mingw32/FreedomStudio-3-1-1/SiFive/freedom-e-sdk-v21.11.00.00/freedom-metal/src/drivers/sifive_fe310-g000_pll.c:262
        if (config_freq != PLL_CONFIG_NOT_VALID) {
201042e2:	fe042703          	lw	a4,-32(s0)
201042e6:	57fd                	li	a5,-1
201042e8:	02f70c63          	beq	a4,a5,20104320 <find_closest_config+0x88>
C:/VSD/FreedomStudio-3-1-1-x86_64-w64-mingw32/FreedomStudio-3-1-1/SiFive/freedom-e-sdk-v21.11.00.00/freedom-metal/src/drivers/sifive_fe310-g000_pll.c:263
            long freq_diff = labs(config_freq - rate);
201042ec:	fe042703          	lw	a4,-32(s0)
201042f0:	fc842783          	lw	a5,-56(s0)
201042f4:	8f1d                	sub	a4,a4,a5
201042f6:	41f75793          	sra	a5,a4,0x1f
201042fa:	8f3d                	xor	a4,a4,a5
201042fc:	40f707b3          	sub	a5,a4,a5
20104300:	fcf42e23          	sw	a5,-36(s0)
C:/VSD/FreedomStudio-3-1-1-x86_64-w64-mingw32/FreedomStudio-3-1-1/SiFive/freedom-e-sdk-v21.11.00.00/freedom-metal/src/drivers/sifive_fe310-g000_pll.c:265
            if (freq_diff < closest_diff) {
20104304:	fdc42703          	lw	a4,-36(s0)
20104308:	fe842783          	lw	a5,-24(s0)
2010430c:	00f75a63          	bge	a4,a5,20104320 <find_closest_config+0x88>
C:/VSD/FreedomStudio-3-1-1-x86_64-w64-mingw32/FreedomStudio-3-1-1/SiFive/freedom-e-sdk-v21.11.00.00/freedom-metal/src/drivers/sifive_fe310-g000_pll.c:266
                closest_index = i;
20104310:	fe442783          	lw	a5,-28(s0)
20104314:	fef42623          	sw	a5,-20(s0)
C:/VSD/FreedomStudio-3-1-1-x86_64-w64-mingw32/FreedomStudio-3-1-1/SiFive/freedom-e-sdk-v21.11.00.00/freedom-metal/src/drivers/sifive_fe310-g000_pll.c:267
                closest_diff = freq_diff;
20104318:	fdc42783          	lw	a5,-36(s0)
2010431c:	fef42423          	sw	a5,-24(s0)
C:/VSD/FreedomStudio-3-1-1-x86_64-w64-mingw32/FreedomStudio-3-1-1/SiFive/freedom-e-sdk-v21.11.00.00/freedom-metal/src/drivers/sifive_fe310-g000_pll.c:260
         i--) {
20104320:	fe442783          	lw	a5,-28(s0)
20104324:	17fd                	add	a5,a5,-1
20104326:	fef42223          	sw	a5,-28(s0)
C:/VSD/FreedomStudio-3-1-1-x86_64-w64-mingw32/FreedomStudio-3-1-1/SiFive/freedom-e-sdk-v21.11.00.00/freedom-metal/src/drivers/sifive_fe310-g000_pll.c:259 (discriminator 1)
    for (int i = (sizeof(pll_configs) / sizeof(pll_configs[0])) - 1; i >= 0;
2010432a:	fe442783          	lw	a5,-28(s0)
2010432e:	f807dae3          	bgez	a5,201042c2 <find_closest_config+0x2a>
C:/VSD/FreedomStudio-3-1-1-x86_64-w64-mingw32/FreedomStudio-3-1-1/SiFive/freedom-e-sdk-v21.11.00.00/freedom-metal/src/drivers/sifive_fe310-g000_pll.c:272
    return closest_index;
20104332:	fec42783          	lw	a5,-20(s0)
C:/VSD/FreedomStudio-3-1-1-x86_64-w64-mingw32/FreedomStudio-3-1-1/SiFive/freedom-e-sdk-v21.11.00.00/freedom-metal/src/drivers/sifive_fe310-g000_pll.c:273
}
20104336:	853e                	mv	a0,a5
20104338:	50f2                	lw	ra,60(sp)
2010433a:	5462                	lw	s0,56(sp)
2010433c:	6121                	add	sp,sp,64
2010433e:	8082                	ret

20104340 <configure_pll>:
configure_pll():
C:/VSD/FreedomStudio-3-1-1-x86_64-w64-mingw32/FreedomStudio-3-1-1/SiFive/freedom-e-sdk-v21.11.00.00/freedom-metal/src/drivers/sifive_fe310-g000_pll.c:290
                          const struct pll_config_t *config) {
20104340:	7179                	add	sp,sp,-48
20104342:	d606                	sw	ra,44(sp)
20104344:	d422                	sw	s0,40(sp)
20104346:	1800                	add	s0,sp,48
20104348:	fca42e23          	sw	a0,-36(s0)
2010434c:	fcb42c23          	sw	a1,-40(s0)
20104350:	fcc42a23          	sw	a2,-44(s0)
C:/VSD/FreedomStudio-3-1-1-x86_64-w64-mingw32/FreedomStudio-3-1-1/SiFive/freedom-e-sdk-v21.11.00.00/freedom-metal/src/drivers/sifive_fe310-g000_pll.c:291
    __METAL_ACCESS_ONCE(pllcfg) &= ~(PLL_R);
20104354:	fdc42783          	lw	a5,-36(s0)
20104358:	439c                	lw	a5,0(a5)
2010435a:	ff87f713          	and	a4,a5,-8
2010435e:	fdc42783          	lw	a5,-36(s0)
20104362:	c398                	sw	a4,0(a5)
C:/VSD/FreedomStudio-3-1-1-x86_64-w64-mingw32/FreedomStudio-3-1-1/SiFive/freedom-e-sdk-v21.11.00.00/freedom-metal/src/drivers/sifive_fe310-g000_pll.c:292
    __METAL_ACCESS_ONCE(pllcfg) |= PLL_R_SHIFT(config->r);
20104364:	fdc42783          	lw	a5,-36(s0)
20104368:	4398                	lw	a4,0(a5)
2010436a:	fd442783          	lw	a5,-44(s0)
2010436e:	4b9c                	lw	a5,16(a5)
20104370:	8b9d                	and	a5,a5,7
20104372:	8f5d                	or	a4,a4,a5
20104374:	fdc42783          	lw	a5,-36(s0)
20104378:	c398                	sw	a4,0(a5)
C:/VSD/FreedomStudio-3-1-1-x86_64-w64-mingw32/FreedomStudio-3-1-1/SiFive/freedom-e-sdk-v21.11.00.00/freedom-metal/src/drivers/sifive_fe310-g000_pll.c:294
    __METAL_ACCESS_ONCE(pllcfg) &= ~(PLL_F);
2010437a:	fdc42783          	lw	a5,-36(s0)
2010437e:	439c                	lw	a5,0(a5)
20104380:	c0f7f713          	and	a4,a5,-1009
20104384:	fdc42783          	lw	a5,-36(s0)
20104388:	c398                	sw	a4,0(a5)
C:/VSD/FreedomStudio-3-1-1-x86_64-w64-mingw32/FreedomStudio-3-1-1/SiFive/freedom-e-sdk-v21.11.00.00/freedom-metal/src/drivers/sifive_fe310-g000_pll.c:295
    __METAL_ACCESS_ONCE(pllcfg) |= PLL_F_SHIFT(config->f);
2010438a:	fdc42783          	lw	a5,-36(s0)
2010438e:	4398                	lw	a4,0(a5)
20104390:	fd442783          	lw	a5,-44(s0)
20104394:	4bdc                	lw	a5,20(a5)
20104396:	0792                	sll	a5,a5,0x4
20104398:	3f07f793          	and	a5,a5,1008
2010439c:	8f5d                	or	a4,a4,a5
2010439e:	fdc42783          	lw	a5,-36(s0)
201043a2:	c398                	sw	a4,0(a5)
C:/VSD/FreedomStudio-3-1-1-x86_64-w64-mingw32/FreedomStudio-3-1-1/SiFive/freedom-e-sdk-v21.11.00.00/freedom-metal/src/drivers/sifive_fe310-g000_pll.c:297
    __METAL_ACCESS_ONCE(pllcfg) &= ~(PLL_Q);
201043a4:	fdc42783          	lw	a5,-36(s0)
201043a8:	4398                	lw	a4,0(a5)
201043aa:	77fd                	lui	a5,0xfffff
201043ac:	3ff78793          	add	a5,a5,1023 # fffff3ff <metal_segment_heap_target_end+0x7fffdd1f>
201043b0:	8f7d                	and	a4,a4,a5
201043b2:	fdc42783          	lw	a5,-36(s0)
201043b6:	c398                	sw	a4,0(a5)
C:/VSD/FreedomStudio-3-1-1-x86_64-w64-mingw32/FreedomStudio-3-1-1/SiFive/freedom-e-sdk-v21.11.00.00/freedom-metal/src/drivers/sifive_fe310-g000_pll.c:298
    __METAL_ACCESS_ONCE(pllcfg) |= PLL_Q_SHIFT(config->q);
201043b8:	fdc42783          	lw	a5,-36(s0)
201043bc:	4398                	lw	a4,0(a5)
201043be:	fd442783          	lw	a5,-44(s0)
201043c2:	4f9c                	lw	a5,24(a5)
201043c4:	00a79693          	sll	a3,a5,0xa
201043c8:	6785                	lui	a5,0x1
201043ca:	c0078793          	add	a5,a5,-1024 # c00 <__heap_size+0x400>
201043ce:	8ff5                	and	a5,a5,a3
201043d0:	8f5d                	or	a4,a4,a5
201043d2:	fdc42783          	lw	a5,-36(s0)
201043d6:	c398                	sw	a4,0(a5)
C:/VSD/FreedomStudio-3-1-1-x86_64-w64-mingw32/FreedomStudio-3-1-1/SiFive/freedom-e-sdk-v21.11.00.00/freedom-metal/src/drivers/sifive_fe310-g000_pll.c:300
    if (config->d < 0) {
201043d8:	fd442783          	lw	a5,-44(s0)
201043dc:	4fdc                	lw	a5,28(a5)
201043de:	0207db63          	bgez	a5,20104414 <configure_pll+0xd4>
C:/VSD/FreedomStudio-3-1-1-x86_64-w64-mingw32/FreedomStudio-3-1-1/SiFive/freedom-e-sdk-v21.11.00.00/freedom-metal/src/drivers/sifive_fe310-g000_pll.c:302
        __METAL_ACCESS_ONCE(plloutdiv) |= DIV_1;
201043e2:	fd842783          	lw	a5,-40(s0)
201043e6:	439c                	lw	a5,0(a5)
201043e8:	1007e713          	or	a4,a5,256
201043ec:	fd842783          	lw	a5,-40(s0)
201043f0:	c398                	sw	a4,0(a5)
C:/VSD/FreedomStudio-3-1-1-x86_64-w64-mingw32/FreedomStudio-3-1-1/SiFive/freedom-e-sdk-v21.11.00.00/freedom-metal/src/drivers/sifive_fe310-g000_pll.c:304
        __METAL_ACCESS_ONCE(plloutdiv) &= ~(DIV_DIV);
201043f2:	fd842783          	lw	a5,-40(s0)
201043f6:	439c                	lw	a5,0(a5)
201043f8:	fc07f713          	and	a4,a5,-64
201043fc:	fd842783          	lw	a5,-40(s0)
20104400:	c398                	sw	a4,0(a5)
C:/VSD/FreedomStudio-3-1-1-x86_64-w64-mingw32/FreedomStudio-3-1-1/SiFive/freedom-e-sdk-v21.11.00.00/freedom-metal/src/drivers/sifive_fe310-g000_pll.c:305
        __METAL_ACCESS_ONCE(plloutdiv) |= PLL_DIV_SHIFT(1);
20104402:	fd842783          	lw	a5,-40(s0)
20104406:	439c                	lw	a5,0(a5)
20104408:	0017e713          	or	a4,a5,1
2010440c:	fd842783          	lw	a5,-40(s0)
20104410:	c398                	sw	a4,0(a5)
20104412:	a82d                	j	2010444c <configure_pll+0x10c>
C:/VSD/FreedomStudio-3-1-1-x86_64-w64-mingw32/FreedomStudio-3-1-1/SiFive/freedom-e-sdk-v21.11.00.00/freedom-metal/src/drivers/sifive_fe310-g000_pll.c:307
        __METAL_ACCESS_ONCE(plloutdiv) &= ~(DIV_1);
20104414:	fd842783          	lw	a5,-40(s0)
20104418:	439c                	lw	a5,0(a5)
2010441a:	eff7f713          	and	a4,a5,-257
2010441e:	fd842783          	lw	a5,-40(s0)
20104422:	c398                	sw	a4,0(a5)
C:/VSD/FreedomStudio-3-1-1-x86_64-w64-mingw32/FreedomStudio-3-1-1/SiFive/freedom-e-sdk-v21.11.00.00/freedom-metal/src/drivers/sifive_fe310-g000_pll.c:309
        __METAL_ACCESS_ONCE(plloutdiv) &= ~(DIV_DIV);
20104424:	fd842783          	lw	a5,-40(s0)
20104428:	439c                	lw	a5,0(a5)
2010442a:	fc07f713          	and	a4,a5,-64
2010442e:	fd842783          	lw	a5,-40(s0)
20104432:	c398                	sw	a4,0(a5)
C:/VSD/FreedomStudio-3-1-1-x86_64-w64-mingw32/FreedomStudio-3-1-1/SiFive/freedom-e-sdk-v21.11.00.00/freedom-metal/src/drivers/sifive_fe310-g000_pll.c:310
        __METAL_ACCESS_ONCE(plloutdiv) |= PLL_DIV_SHIFT(config->d);
20104434:	fd842783          	lw	a5,-40(s0)
20104438:	4398                	lw	a4,0(a5)
2010443a:	fd442783          	lw	a5,-44(s0)
2010443e:	4fdc                	lw	a5,28(a5)
20104440:	03f7f793          	and	a5,a5,63
20104444:	8f5d                	or	a4,a4,a5
20104446:	fd842783          	lw	a5,-40(s0)
2010444a:	c398                	sw	a4,0(a5)
C:/VSD/FreedomStudio-3-1-1-x86_64-w64-mingw32/FreedomStudio-3-1-1/SiFive/freedom-e-sdk-v21.11.00.00/freedom-metal/src/drivers/sifive_fe310-g000_pll.c:313
    __METAL_ACCESS_ONCE(pllcfg) &= ~(PLL_BYPASS);
2010444c:	fdc42783          	lw	a5,-36(s0)
20104450:	4398                	lw	a4,0(a5)
20104452:	fffc07b7          	lui	a5,0xfffc0
20104456:	17fd                	add	a5,a5,-1 # fffbffff <metal_segment_heap_target_end+0x7ffbe91f>
20104458:	8f7d                	and	a4,a4,a5
2010445a:	fdc42783          	lw	a5,-36(s0)
2010445e:	c398                	sw	a4,0(a5)
C:/VSD/FreedomStudio-3-1-1-x86_64-w64-mingw32/FreedomStudio-3-1-1/SiFive/freedom-e-sdk-v21.11.00.00/freedom-metal/src/drivers/sifive_fe310-g000_pll.c:318
    __metal_driver_riscv_clint0_command_request(__METAL_DT_RISCV_CLINT0_HANDLE,
20104460:	fe040793          	add	a5,s0,-32
20104464:	863e                	mv	a2,a5
20104466:	4585                	li	a1,1
20104468:	800017b7          	lui	a5,0x80001
2010446c:	a1c78513          	add	a0,a5,-1508 # 80000a1c <__metal_dt_clint_2000000>
20104470:	cc0fd0ef          	jal	20101930 <__metal_driver_riscv_clint0_command_request>
C:/VSD/FreedomStudio-3-1-1-x86_64-w64-mingw32/FreedomStudio-3-1-1/SiFive/freedom-e-sdk-v21.11.00.00/freedom-metal/src/drivers/sifive_fe310-g000_pll.c:320
    mtime_end = mtime + PLL_LOCK_WAIT_TICKS;
20104474:	fe042603          	lw	a2,-32(s0)
20104478:	fe442683          	lw	a3,-28(s0)
2010447c:	4511                	li	a0,4
2010447e:	4581                	li	a1,0
20104480:	00a60733          	add	a4,a2,a0
20104484:	883a                	mv	a6,a4
20104486:	00c83833          	sltu	a6,a6,a2
2010448a:	00b687b3          	add	a5,a3,a1
2010448e:	00f806b3          	add	a3,a6,a5
20104492:	87b6                	mv	a5,a3
20104494:	fee42423          	sw	a4,-24(s0)
20104498:	fef42623          	sw	a5,-20(s0)
C:/VSD/FreedomStudio-3-1-1-x86_64-w64-mingw32/FreedomStudio-3-1-1/SiFive/freedom-e-sdk-v21.11.00.00/freedom-metal/src/drivers/sifive_fe310-g000_pll.c:321
    while (mtime <= mtime_end) {
2010449c:	a819                	j	201044b2 <configure_pll+0x172>
C:/VSD/FreedomStudio-3-1-1-x86_64-w64-mingw32/FreedomStudio-3-1-1/SiFive/freedom-e-sdk-v21.11.00.00/freedom-metal/src/drivers/sifive_fe310-g000_pll.c:322
        __metal_driver_riscv_clint0_command_request(
2010449e:	fe040793          	add	a5,s0,-32
201044a2:	863e                	mv	a2,a5
201044a4:	4585                	li	a1,1
201044a6:	800017b7          	lui	a5,0x80001
201044aa:	a1c78513          	add	a0,a5,-1508 # 80000a1c <__metal_dt_clint_2000000>
201044ae:	c82fd0ef          	jal	20101930 <__metal_driver_riscv_clint0_command_request>
C:/VSD/FreedomStudio-3-1-1-x86_64-w64-mingw32/FreedomStudio-3-1-1/SiFive/freedom-e-sdk-v21.11.00.00/freedom-metal/src/drivers/sifive_fe310-g000_pll.c:321
    while (mtime <= mtime_end) {
201044b2:	fe042703          	lw	a4,-32(s0)
201044b6:	fe442783          	lw	a5,-28(s0)
201044ba:	fec42683          	lw	a3,-20(s0)
201044be:	863e                	mv	a2,a5
201044c0:	00c6ec63          	bltu	a3,a2,201044d8 <configure_pll+0x198>
201044c4:	fec42683          	lw	a3,-20(s0)
201044c8:	863e                	mv	a2,a5
201044ca:	fcc69ae3          	bne	a3,a2,2010449e <configure_pll+0x15e>
201044ce:	fe842683          	lw	a3,-24(s0)
201044d2:	87ba                	mv	a5,a4
201044d4:	fcf6f5e3          	bgeu	a3,a5,2010449e <configure_pll+0x15e>
C:/VSD/FreedomStudio-3-1-1-x86_64-w64-mingw32/FreedomStudio-3-1-1/SiFive/freedom-e-sdk-v21.11.00.00/freedom-metal/src/drivers/sifive_fe310-g000_pll.c:340
    while ((__METAL_ACCESS_ONCE(pllcfg) & PLL_LOCK) == 0)
201044d8:	0001                	nop
C:/VSD/FreedomStudio-3-1-1-x86_64-w64-mingw32/FreedomStudio-3-1-1/SiFive/freedom-e-sdk-v21.11.00.00/freedom-metal/src/drivers/sifive_fe310-g000_pll.c:340 (discriminator 1)
201044da:	fdc42783          	lw	a5,-36(s0)
201044de:	439c                	lw	a5,0(a5)
201044e0:	fe07dde3          	bgez	a5,201044da <configure_pll+0x19a>
C:/VSD/FreedomStudio-3-1-1-x86_64-w64-mingw32/FreedomStudio-3-1-1/SiFive/freedom-e-sdk-v21.11.00.00/freedom-metal/src/drivers/sifive_fe310-g000_pll.c:342
}
201044e4:	0001                	nop
201044e6:	0001                	nop
201044e8:	50b2                	lw	ra,44(sp)
201044ea:	5422                	lw	s0,40(sp)
201044ec:	6145                	add	sp,sp,48
201044ee:	8082                	ret

201044f0 <__metal_driver_sifive_fe310_g000_pll_set_rate_hz>:
__metal_driver_sifive_fe310_g000_pll_set_rate_hz():
C:/VSD/FreedomStudio-3-1-1-x86_64-w64-mingw32/FreedomStudio-3-1-1/SiFive/freedom-e-sdk-v21.11.00.00/freedom-metal/src/drivers/sifive_fe310-g000_pll.c:345
                                                      long rate) {
201044f0:	715d                	add	sp,sp,-80
201044f2:	c686                	sw	ra,76(sp)
201044f4:	c4a2                	sw	s0,72(sp)
201044f6:	0880                	add	s0,sp,80
201044f8:	faa42e23          	sw	a0,-68(s0)
201044fc:	fab42c23          	sw	a1,-72(s0)
C:/VSD/FreedomStudio-3-1-1-x86_64-w64-mingw32/FreedomStudio-3-1-1/SiFive/freedom-e-sdk-v21.11.00.00/freedom-metal/src/drivers/sifive_fe310-g000_pll.c:347
        __metal_driver_sifive_fe310_g000_pll_pllref(clock);
20104500:	fbc42503          	lw	a0,-68(s0)
20104504:	a8fff0ef          	jal	20103f92 <__metal_driver_sifive_fe310_g000_pll_pllref>
20104508:	fea42623          	sw	a0,-20(s0)
C:/VSD/FreedomStudio-3-1-1-x86_64-w64-mingw32/FreedomStudio-3-1-1/SiFive/freedom-e-sdk-v21.11.00.00/freedom-metal/src/drivers/sifive_fe310-g000_pll.c:349
        __metal_driver_sifive_fe310_g000_pll_pllsel0(clock);
2010450c:	fbc42503          	lw	a0,-68(s0)
20104510:	a69ff0ef          	jal	20103f78 <__metal_driver_sifive_fe310_g000_pll_pllsel0>
20104514:	fea42423          	sw	a0,-24(s0)
C:/VSD/FreedomStudio-3-1-1-x86_64-w64-mingw32/FreedomStudio-3-1-1/SiFive/freedom-e-sdk-v21.11.00.00/freedom-metal/src/drivers/sifive_fe310-g000_pll.c:351
        __metal_driver_sifive_fe310_g000_pll_config_offset(clock);
20104518:	fbc42503          	lw	a0,-68(s0)
2010451c:	acdff0ef          	jal	20103fe8 <__metal_driver_sifive_fe310_g000_pll_config_offset>
20104520:	fea42223          	sw	a0,-28(s0)
C:/VSD/FreedomStudio-3-1-1-x86_64-w64-mingw32/FreedomStudio-3-1-1/SiFive/freedom-e-sdk-v21.11.00.00/freedom-metal/src/drivers/sifive_fe310-g000_pll.c:353
        __metal_driver_sifive_fe310_g000_pll_divider_offset(clock);
20104524:	fbc42503          	lw	a0,-68(s0)
20104528:	a9bff0ef          	jal	20103fc2 <__metal_driver_sifive_fe310_g000_pll_divider_offset>
2010452c:	fea42023          	sw	a0,-32(s0)
C:/VSD/FreedomStudio-3-1-1-x86_64-w64-mingw32/FreedomStudio-3-1-1/SiFive/freedom-e-sdk-v21.11.00.00/freedom-metal/src/drivers/sifive_fe310-g000_pll.c:354
    long base = __metal_driver_sifive_fe310_g000_prci_base();
20104530:	adfff0ef          	jal	2010400e <__metal_driver_sifive_fe310_g000_prci_base>
20104534:	fca42e23          	sw	a0,-36(s0)
C:/VSD/FreedomStudio-3-1-1-x86_64-w64-mingw32/FreedomStudio-3-1-1/SiFive/freedom-e-sdk-v21.11.00.00/freedom-metal/src/drivers/sifive_fe310-g000_pll.c:356
    __metal_io_u32 *pllcfg = (__metal_io_u32 *)(base + config_offset);
20104538:	fdc42703          	lw	a4,-36(s0)
2010453c:	fe442783          	lw	a5,-28(s0)
20104540:	97ba                	add	a5,a5,a4
20104542:	fcf42c23          	sw	a5,-40(s0)
C:/VSD/FreedomStudio-3-1-1-x86_64-w64-mingw32/FreedomStudio-3-1-1/SiFive/freedom-e-sdk-v21.11.00.00/freedom-metal/src/drivers/sifive_fe310-g000_pll.c:357
    __metal_io_u32 *plloutdiv = (__metal_io_u32 *)(base + divider_offset);
20104546:	fdc42703          	lw	a4,-36(s0)
2010454a:	fe042783          	lw	a5,-32(s0)
2010454e:	97ba                	add	a5,a5,a4
20104550:	fcf42a23          	sw	a5,-44(s0)
C:/VSD/FreedomStudio-3-1-1-x86_64-w64-mingw32/FreedomStudio-3-1-1/SiFive/freedom-e-sdk-v21.11.00.00/freedom-metal/src/drivers/sifive_fe310-g000_pll.c:360
    if (__METAL_ACCESS_ONCE(pllcfg) & PLL_SEL)
20104554:	fd842783          	lw	a5,-40(s0)
20104558:	4398                	lw	a4,0(a5)
2010455a:	67c1                	lui	a5,0x10
2010455c:	8ff9                	and	a5,a5,a4
2010455e:	cb91                	beqz	a5,20104572 <__metal_driver_sifive_fe310_g000_pll_set_rate_hz+0x82>
C:/VSD/FreedomStudio-3-1-1-x86_64-w64-mingw32/FreedomStudio-3-1-1/SiFive/freedom-e-sdk-v21.11.00.00/freedom-metal/src/drivers/sifive_fe310-g000_pll.c:361
        __METAL_ACCESS_ONCE(pllcfg) &= ~(PLL_SEL);
20104560:	fd842783          	lw	a5,-40(s0)
20104564:	4398                	lw	a4,0(a5)
20104566:	77c1                	lui	a5,0xffff0
20104568:	17fd                	add	a5,a5,-1 # fffeffff <metal_segment_heap_target_end+0x7ffee91f>
2010456a:	8f7d                	and	a4,a4,a5
2010456c:	fd842783          	lw	a5,-40(s0)
20104570:	c398                	sw	a4,0(a5)
C:/VSD/FreedomStudio-3-1-1-x86_64-w64-mingw32/FreedomStudio-3-1-1/SiFive/freedom-e-sdk-v21.11.00.00/freedom-metal/src/drivers/sifive_fe310-g000_pll.c:366
        __METAL_ACCESS_ONCE(pllcfg) & PLL_REFSEL ? pllref : pllsel0);
20104572:	fd842783          	lw	a5,-40(s0)
20104576:	4398                	lw	a4,0(a5)
20104578:	000207b7          	lui	a5,0x20
2010457c:	8ff9                	and	a5,a5,a4
C:/VSD/FreedomStudio-3-1-1-x86_64-w64-mingw32/FreedomStudio-3-1-1/SiFive/freedom-e-sdk-v21.11.00.00/freedom-metal/src/drivers/sifive_fe310-g000_pll.c:365
    long ref_hz = metal_clock_get_rate_hz(
2010457e:	c781                	beqz	a5,20104586 <__metal_driver_sifive_fe310_g000_pll_set_rate_hz+0x96>
C:/VSD/FreedomStudio-3-1-1-x86_64-w64-mingw32/FreedomStudio-3-1-1/SiFive/freedom-e-sdk-v21.11.00.00/freedom-metal/src/drivers/sifive_fe310-g000_pll.c:365 (discriminator 1)
20104580:	fec42783          	lw	a5,-20(s0)
20104584:	a019                	j	2010458a <__metal_driver_sifive_fe310_g000_pll_set_rate_hz+0x9a>
C:/VSD/FreedomStudio-3-1-1-x86_64-w64-mingw32/FreedomStudio-3-1-1/SiFive/freedom-e-sdk-v21.11.00.00/freedom-metal/src/drivers/sifive_fe310-g000_pll.c:365 (discriminator 2)
20104586:	fe842783          	lw	a5,-24(s0)
C:/VSD/FreedomStudio-3-1-1-x86_64-w64-mingw32/FreedomStudio-3-1-1/SiFive/freedom-e-sdk-v21.11.00.00/freedom-metal/src/drivers/sifive_fe310-g000_pll.c:365 (discriminator 4)
2010458a:	853e                	mv	a0,a5
2010458c:	10a010ef          	jal	20105696 <metal_clock_get_rate_hz>
20104590:	fca42823          	sw	a0,-48(s0)
C:/VSD/FreedomStudio-3-1-1-x86_64-w64-mingw32/FreedomStudio-3-1-1/SiFive/freedom-e-sdk-v21.11.00.00/freedom-metal/src/drivers/sifive_fe310-g000_pll.c:370
    if ((ref_hz * 3 / 4) <= rate && (ref_hz * 5 / 4) >= rate) {
20104594:	fd042703          	lw	a4,-48(s0)
20104598:	87ba                	mv	a5,a4
2010459a:	0786                	sll	a5,a5,0x1
2010459c:	97ba                	add	a5,a5,a4
2010459e:	41f7d713          	sra	a4,a5,0x1f
201045a2:	8b0d                	and	a4,a4,3
201045a4:	97ba                	add	a5,a5,a4
201045a6:	8789                	sra	a5,a5,0x2
201045a8:	873e                	mv	a4,a5
201045aa:	fb842783          	lw	a5,-72(s0)
201045ae:	02e7cb63          	blt	a5,a4,201045e4 <__metal_driver_sifive_fe310_g000_pll_set_rate_hz+0xf4>
C:/VSD/FreedomStudio-3-1-1-x86_64-w64-mingw32/FreedomStudio-3-1-1/SiFive/freedom-e-sdk-v21.11.00.00/freedom-metal/src/drivers/sifive_fe310-g000_pll.c:370 (discriminator 1)
201045b2:	fd042703          	lw	a4,-48(s0)
201045b6:	87ba                	mv	a5,a4
201045b8:	078a                	sll	a5,a5,0x2
201045ba:	97ba                	add	a5,a5,a4
201045bc:	41f7d713          	sra	a4,a5,0x1f
201045c0:	8b0d                	and	a4,a4,3
201045c2:	97ba                	add	a5,a5,a4
201045c4:	8789                	sra	a5,a5,0x2
201045c6:	873e                	mv	a4,a5
201045c8:	fb842783          	lw	a5,-72(s0)
201045cc:	00f74c63          	blt	a4,a5,201045e4 <__metal_driver_sifive_fe310_g000_pll_set_rate_hz+0xf4>
C:/VSD/FreedomStudio-3-1-1-x86_64-w64-mingw32/FreedomStudio-3-1-1/SiFive/freedom-e-sdk-v21.11.00.00/freedom-metal/src/drivers/sifive_fe310-g000_pll.c:371
        __METAL_ACCESS_ONCE(pllcfg) |= PLL_BYPASS;
201045d0:	fd842783          	lw	a5,-40(s0)
201045d4:	4398                	lw	a4,0(a5)
201045d6:	000407b7          	lui	a5,0x40
201045da:	8f5d                	or	a4,a4,a5
201045dc:	fd842783          	lw	a5,-40(s0)
201045e0:	c398                	sw	a4,0(a5)
201045e2:	a0b1                	j	2010462e <__metal_driver_sifive_fe310_g000_pll_set_rate_hz+0x13e>
C:/VSD/FreedomStudio-3-1-1-x86_64-w64-mingw32/FreedomStudio-3-1-1/SiFive/freedom-e-sdk-v21.11.00.00/freedom-metal/src/drivers/sifive_fe310-g000_pll.c:373
        int config_index = find_closest_config(ref_hz, rate);
201045e4:	fb842583          	lw	a1,-72(s0)
201045e8:	fd042503          	lw	a0,-48(s0)
201045ec:	3175                	jal	20104298 <find_closest_config>
201045ee:	fca42623          	sw	a0,-52(s0)
C:/VSD/FreedomStudio-3-1-1-x86_64-w64-mingw32/FreedomStudio-3-1-1/SiFive/freedom-e-sdk-v21.11.00.00/freedom-metal/src/drivers/sifive_fe310-g000_pll.c:374
        if (config_index != -1) {
201045f2:	fcc42703          	lw	a4,-52(s0)
201045f6:	57fd                	li	a5,-1
201045f8:	02f70263          	beq	a4,a5,2010461c <__metal_driver_sifive_fe310_g000_pll_set_rate_hz+0x12c>
C:/VSD/FreedomStudio-3-1-1-x86_64-w64-mingw32/FreedomStudio-3-1-1/SiFive/freedom-e-sdk-v21.11.00.00/freedom-metal/src/drivers/sifive_fe310-g000_pll.c:375
            configure_pll(pllcfg, plloutdiv, &(pll_configs[config_index]));
201045fc:	fcc42783          	lw	a5,-52(s0)
20104600:	00579713          	sll	a4,a5,0x5
20104604:	201007b7          	lui	a5,0x20100
20104608:	56c78793          	add	a5,a5,1388 # 2010056c <pll_configs>
2010460c:	97ba                	add	a5,a5,a4
2010460e:	863e                	mv	a2,a5
20104610:	fd442583          	lw	a1,-44(s0)
20104614:	fd842503          	lw	a0,-40(s0)
20104618:	3325                	jal	20104340 <configure_pll>
2010461a:	a811                	j	2010462e <__metal_driver_sifive_fe310_g000_pll_set_rate_hz+0x13e>
C:/VSD/FreedomStudio-3-1-1-x86_64-w64-mingw32/FreedomStudio-3-1-1/SiFive/freedom-e-sdk-v21.11.00.00/freedom-metal/src/drivers/sifive_fe310-g000_pll.c:378
            __METAL_ACCESS_ONCE(pllcfg) |= PLL_BYPASS;
2010461c:	fd842783          	lw	a5,-40(s0)
20104620:	4398                	lw	a4,0(a5)
20104622:	000407b7          	lui	a5,0x40
20104626:	8f5d                	or	a4,a4,a5
20104628:	fd842783          	lw	a5,-40(s0)
2010462c:	c398                	sw	a4,0(a5)
C:/VSD/FreedomStudio-3-1-1-x86_64-w64-mingw32/FreedomStudio-3-1-1/SiFive/freedom-e-sdk-v21.11.00.00/freedom-metal/src/drivers/sifive_fe310-g000_pll.c:383
    __METAL_ACCESS_ONCE(pllcfg) |= PLL_SEL;
2010462e:	fd842783          	lw	a5,-40(s0)
20104632:	4398                	lw	a4,0(a5)
20104634:	67c1                	lui	a5,0x10
20104636:	8f5d                	or	a4,a4,a5
20104638:	fd842783          	lw	a5,-40(s0)
2010463c:	c398                	sw	a4,0(a5)
C:/VSD/FreedomStudio-3-1-1-x86_64-w64-mingw32/FreedomStudio-3-1-1/SiFive/freedom-e-sdk-v21.11.00.00/freedom-metal/src/drivers/sifive_fe310-g000_pll.c:385
    return __metal_driver_sifive_fe310_g000_pll_get_rate_hz(clock);
2010463e:	fbc42503          	lw	a0,-68(s0)
20104642:	ae7ff0ef          	jal	20104128 <__metal_driver_sifive_fe310_g000_pll_get_rate_hz>
20104646:	87aa                	mv	a5,a0
C:/VSD/FreedomStudio-3-1-1-x86_64-w64-mingw32/FreedomStudio-3-1-1/SiFive/freedom-e-sdk-v21.11.00.00/freedom-metal/src/drivers/sifive_fe310-g000_pll.c:386
}
20104648:	853e                	mv	a0,a5
2010464a:	40b6                	lw	ra,76(sp)
2010464c:	4426                	lw	s0,72(sp)
2010464e:	6161                	add	sp,sp,80
20104650:	8082                	ret

20104652 <__metal_driver_sifive_fe310_g000_prci_base>:
__metal_driver_sifive_fe310_g000_prci_base():
C:\VSD\FreedomStudio-3-1-1-x86_64-w64-mingw32\FreedomStudio-3-1-1\SiFive\freedom-e-sdk-v21.11.00.00\bsp\sifive-hifive1\build\debug/./metal/machine.h:1229
{
20104652:	1141                	add	sp,sp,-16
20104654:	c622                	sw	s0,12(sp)
20104656:	0800                	add	s0,sp,16
C:\VSD\FreedomStudio-3-1-1-x86_64-w64-mingw32\FreedomStudio-3-1-1\SiFive\freedom-e-sdk-v21.11.00.00\bsp\sifive-hifive1\build\debug/./metal/machine.h:1230
		return METAL_SIFIVE_FE310_G000_PRCI_10008000_BASE_ADDRESS;
20104658:	100087b7          	lui	a5,0x10008
C:\VSD\FreedomStudio-3-1-1-x86_64-w64-mingw32\FreedomStudio-3-1-1\SiFive\freedom-e-sdk-v21.11.00.00\bsp\sifive-hifive1\build\debug/./metal/machine.h:1231
}
2010465c:	853e                	mv	a0,a5
2010465e:	4432                	lw	s0,12(sp)
20104660:	0141                	add	sp,sp,16
20104662:	8082                	ret

20104664 <__metal_driver_sifive_fe310_g000_prci_get_reg>:
__metal_driver_sifive_fe310_g000_prci_get_reg():
C:/VSD/FreedomStudio-3-1-1-x86_64-w64-mingw32/FreedomStudio-3-1-1/SiFive/freedom-e-sdk-v21.11.00.00/freedom-metal/src/drivers/sifive_fe310-g000_prci.c:12

#include <metal/drivers/sifive_fe310-g000_prci.h>
#include <metal/machine.h>

long __metal_driver_sifive_fe310_g000_prci_get_reg(
    const struct __metal_driver_sifive_fe310_g000_prci *prci, long offset) {
20104664:	7179                	add	sp,sp,-48
20104666:	d606                	sw	ra,44(sp)
20104668:	d422                	sw	s0,40(sp)
2010466a:	1800                	add	s0,sp,48
2010466c:	fca42e23          	sw	a0,-36(s0)
20104670:	fcb42c23          	sw	a1,-40(s0)
C:/VSD/FreedomStudio-3-1-1-x86_64-w64-mingw32/FreedomStudio-3-1-1/SiFive/freedom-e-sdk-v21.11.00.00/freedom-metal/src/drivers/sifive_fe310-g000_prci.c:13
    unsigned long base = __metal_driver_sifive_fe310_g000_prci_base();
20104674:	3ff9                	jal	20104652 <__metal_driver_sifive_fe310_g000_prci_base>
20104676:	87aa                	mv	a5,a0
C:/VSD/FreedomStudio-3-1-1-x86_64-w64-mingw32/FreedomStudio-3-1-1/SiFive/freedom-e-sdk-v21.11.00.00/freedom-metal/src/drivers/sifive_fe310-g000_prci.c:13 (discriminator 1)
20104678:	fef42623          	sw	a5,-20(s0)
C:/VSD/FreedomStudio-3-1-1-x86_64-w64-mingw32/FreedomStudio-3-1-1/SiFive/freedom-e-sdk-v21.11.00.00/freedom-metal/src/drivers/sifive_fe310-g000_prci.c:14
    return __METAL_ACCESS_ONCE((__metal_io_u32 *)(base + offset));
2010467c:	fd842703          	lw	a4,-40(s0)
20104680:	fec42783          	lw	a5,-20(s0)
20104684:	97ba                	add	a5,a5,a4
20104686:	439c                	lw	a5,0(a5)
C:/VSD/FreedomStudio-3-1-1-x86_64-w64-mingw32/FreedomStudio-3-1-1/SiFive/freedom-e-sdk-v21.11.00.00/freedom-metal/src/drivers/sifive_fe310-g000_prci.c:15
}
20104688:	853e                	mv	a0,a5
2010468a:	50b2                	lw	ra,44(sp)
2010468c:	5422                	lw	s0,40(sp)
2010468e:	6145                	add	sp,sp,48
20104690:	8082                	ret

20104692 <__metal_driver_sifive_fe310_g000_prci_set_reg>:
__metal_driver_sifive_fe310_g000_prci_set_reg():
C:/VSD/FreedomStudio-3-1-1-x86_64-w64-mingw32/FreedomStudio-3-1-1/SiFive/freedom-e-sdk-v21.11.00.00/freedom-metal/src/drivers/sifive_fe310-g000_prci.c:19

long __metal_driver_sifive_fe310_g000_prci_set_reg(
    const struct __metal_driver_sifive_fe310_g000_prci *prci, long offset,
    long value) {
20104692:	7179                	add	sp,sp,-48
20104694:	d606                	sw	ra,44(sp)
20104696:	d422                	sw	s0,40(sp)
20104698:	1800                	add	s0,sp,48
2010469a:	fca42e23          	sw	a0,-36(s0)
2010469e:	fcb42c23          	sw	a1,-40(s0)
201046a2:	fcc42a23          	sw	a2,-44(s0)
C:/VSD/FreedomStudio-3-1-1-x86_64-w64-mingw32/FreedomStudio-3-1-1/SiFive/freedom-e-sdk-v21.11.00.00/freedom-metal/src/drivers/sifive_fe310-g000_prci.c:20
    unsigned long base = __metal_driver_sifive_fe310_g000_prci_base();
201046a6:	3775                	jal	20104652 <__metal_driver_sifive_fe310_g000_prci_base>
201046a8:	87aa                	mv	a5,a0
C:/VSD/FreedomStudio-3-1-1-x86_64-w64-mingw32/FreedomStudio-3-1-1/SiFive/freedom-e-sdk-v21.11.00.00/freedom-metal/src/drivers/sifive_fe310-g000_prci.c:20 (discriminator 1)
201046aa:	fef42623          	sw	a5,-20(s0)
C:/VSD/FreedomStudio-3-1-1-x86_64-w64-mingw32/FreedomStudio-3-1-1/SiFive/freedom-e-sdk-v21.11.00.00/freedom-metal/src/drivers/sifive_fe310-g000_prci.c:21
    return __METAL_ACCESS_ONCE((__metal_io_u32 *)(base + offset)) = value;
201046ae:	fd842703          	lw	a4,-40(s0)
201046b2:	fec42783          	lw	a5,-20(s0)
201046b6:	97ba                	add	a5,a5,a4
201046b8:	873e                	mv	a4,a5
201046ba:	fd442783          	lw	a5,-44(s0)
201046be:	c31c                	sw	a5,0(a4)
C:/VSD/FreedomStudio-3-1-1-x86_64-w64-mingw32/FreedomStudio-3-1-1/SiFive/freedom-e-sdk-v21.11.00.00/freedom-metal/src/drivers/sifive_fe310-g000_prci.c:22
}
201046c0:	853e                	mv	a0,a5
201046c2:	50b2                	lw	ra,44(sp)
201046c4:	5422                	lw	s0,40(sp)
201046c6:	6145                	add	sp,sp,48
201046c8:	8082                	ret

201046ca <__metal_driver_sifive_gpio0_base>:
__metal_driver_sifive_gpio0_base():
C:\VSD\FreedomStudio-3-1-1-x86_64-w64-mingw32\FreedomStudio-3-1-1\SiFive\freedom-e-sdk-v21.11.00.00\bsp\sifive-hifive1\build\debug/./metal/machine.h:480
{
201046ca:	1101                	add	sp,sp,-32
201046cc:	ce22                	sw	s0,28(sp)
201046ce:	1000                	add	s0,sp,32
201046d0:	fea42623          	sw	a0,-20(s0)
C:\VSD\FreedomStudio-3-1-1-x86_64-w64-mingw32\FreedomStudio-3-1-1\SiFive\freedom-e-sdk-v21.11.00.00\bsp\sifive-hifive1\build\debug/./metal/machine.h:481
	if ((uintptr_t)gpio == (uintptr_t)&__metal_dt_gpio_10012000) {
201046d4:	fec42703          	lw	a4,-20(s0)
201046d8:	81418793          	add	a5,gp,-2028 # 80000a2c <__metal_dt_gpio_10012000>
201046dc:	00f71563          	bne	a4,a5,201046e6 <__metal_driver_sifive_gpio0_base+0x1c>
C:\VSD\FreedomStudio-3-1-1-x86_64-w64-mingw32\FreedomStudio-3-1-1\SiFive\freedom-e-sdk-v21.11.00.00\bsp\sifive-hifive1\build\debug/./metal/machine.h:482
		return METAL_SIFIVE_GPIO0_10012000_BASE_ADDRESS;
201046e0:	100127b7          	lui	a5,0x10012
201046e4:	a011                	j	201046e8 <__metal_driver_sifive_gpio0_base+0x1e>
C:\VSD\FreedomStudio-3-1-1-x86_64-w64-mingw32\FreedomStudio-3-1-1\SiFive\freedom-e-sdk-v21.11.00.00\bsp\sifive-hifive1\build\debug/./metal/machine.h:485
		return 0;
201046e6:	4781                	li	a5,0
C:\VSD\FreedomStudio-3-1-1-x86_64-w64-mingw32\FreedomStudio-3-1-1\SiFive\freedom-e-sdk-v21.11.00.00\bsp\sifive-hifive1\build\debug/./metal/machine.h:487
}
201046e8:	853e                	mv	a0,a5
201046ea:	4472                	lw	s0,28(sp)
201046ec:	6105                	add	sp,sp,32
201046ee:	8082                	ret

201046f0 <__metal_driver_sifive_gpio0_interrupt_parent>:
__metal_driver_sifive_gpio0_interrupt_parent():
C:\VSD\FreedomStudio-3-1-1-x86_64-w64-mingw32\FreedomStudio-3-1-1\SiFive\freedom-e-sdk-v21.11.00.00\bsp\sifive-hifive1\build\debug/./metal/machine.h:510
{
201046f0:	1101                	add	sp,sp,-32
201046f2:	ce22                	sw	s0,28(sp)
201046f4:	1000                	add	s0,sp,32
201046f6:	fea42623          	sw	a0,-20(s0)
C:\VSD\FreedomStudio-3-1-1-x86_64-w64-mingw32\FreedomStudio-3-1-1\SiFive\freedom-e-sdk-v21.11.00.00\bsp\sifive-hifive1\build\debug/./metal/machine.h:511
	if ((uintptr_t)gpio == (uintptr_t)&__metal_dt_gpio_10012000) {
201046fa:	fec42703          	lw	a4,-20(s0)
201046fe:	81418793          	add	a5,gp,-2028 # 80000a2c <__metal_dt_gpio_10012000>
20104702:	00f71763          	bne	a4,a5,20104710 <__metal_driver_sifive_gpio0_interrupt_parent+0x20>
C:\VSD\FreedomStudio-3-1-1-x86_64-w64-mingw32\FreedomStudio-3-1-1\SiFive\freedom-e-sdk-v21.11.00.00\bsp\sifive-hifive1\build\debug/./metal/machine.h:512
		return (struct metal_interrupt *)&__metal_dt_interrupt_controller_c000000.controller;
20104706:	800007b7          	lui	a5,0x80000
2010470a:	3f878793          	add	a5,a5,1016 # 800003f8 <__metal_dt_interrupt_controller_c000000>
2010470e:	a011                	j	20104712 <__metal_driver_sifive_gpio0_interrupt_parent+0x22>
C:\VSD\FreedomStudio-3-1-1-x86_64-w64-mingw32\FreedomStudio-3-1-1\SiFive\freedom-e-sdk-v21.11.00.00\bsp\sifive-hifive1\build\debug/./metal/machine.h:515
		return 0;
20104710:	4781                	li	a5,0
C:\VSD\FreedomStudio-3-1-1-x86_64-w64-mingw32\FreedomStudio-3-1-1\SiFive\freedom-e-sdk-v21.11.00.00\bsp\sifive-hifive1\build\debug/./metal/machine.h:517
}
20104712:	853e                	mv	a0,a5
20104714:	4472                	lw	s0,28(sp)
20104716:	6105                	add	sp,sp,32
20104718:	8082                	ret

2010471a <__metal_driver_sifive_gpio0_interrupt_lines>:
__metal_driver_sifive_gpio0_interrupt_lines():
C:\VSD\FreedomStudio-3-1-1-x86_64-w64-mingw32\FreedomStudio-3-1-1\SiFive\freedom-e-sdk-v21.11.00.00\bsp\sifive-hifive1\build\debug/./metal/machine.h:520
{
2010471a:	1101                	add	sp,sp,-32
2010471c:	ce22                	sw	s0,28(sp)
2010471e:	1000                	add	s0,sp,32
20104720:	fea42623          	sw	a0,-20(s0)
20104724:	feb42423          	sw	a1,-24(s0)
C:\VSD\FreedomStudio-3-1-1-x86_64-w64-mingw32\FreedomStudio-3-1-1\SiFive\freedom-e-sdk-v21.11.00.00\bsp\sifive-hifive1\build\debug/./metal/machine.h:521
	if (((uintptr_t)gpio == (uintptr_t)&__metal_dt_gpio_10012000) && (idx == 0)) {
20104728:	fec42703          	lw	a4,-20(s0)
2010472c:	81418793          	add	a5,gp,-2028 # 80000a2c <__metal_dt_gpio_10012000>
20104730:	00f71763          	bne	a4,a5,2010473e <__metal_driver_sifive_gpio0_interrupt_lines+0x24>
C:\VSD\FreedomStudio-3-1-1-x86_64-w64-mingw32\FreedomStudio-3-1-1\SiFive\freedom-e-sdk-v21.11.00.00\bsp\sifive-hifive1\build\debug/./metal/machine.h:521 (discriminator 1)
20104734:	fe842783          	lw	a5,-24(s0)
20104738:	e399                	bnez	a5,2010473e <__metal_driver_sifive_gpio0_interrupt_lines+0x24>
C:\VSD\FreedomStudio-3-1-1-x86_64-w64-mingw32\FreedomStudio-3-1-1\SiFive\freedom-e-sdk-v21.11.00.00\bsp\sifive-hifive1\build\debug/./metal/machine.h:522
		return 7;
2010473a:	479d                	li	a5,7
2010473c:	a269                	j	201048c6 <__metal_driver_sifive_gpio0_interrupt_lines+0x1ac>
C:\VSD\FreedomStudio-3-1-1-x86_64-w64-mingw32\FreedomStudio-3-1-1\SiFive\freedom-e-sdk-v21.11.00.00\bsp\sifive-hifive1\build\debug/./metal/machine.h:524
	else if ((((uintptr_t)gpio == (uintptr_t)&__metal_dt_gpio_10012000) && (idx == 1))) {
2010473e:	fec42703          	lw	a4,-20(s0)
20104742:	81418793          	add	a5,gp,-2028 # 80000a2c <__metal_dt_gpio_10012000>
20104746:	00f71963          	bne	a4,a5,20104758 <__metal_driver_sifive_gpio0_interrupt_lines+0x3e>
C:\VSD\FreedomStudio-3-1-1-x86_64-w64-mingw32\FreedomStudio-3-1-1\SiFive\freedom-e-sdk-v21.11.00.00\bsp\sifive-hifive1\build\debug/./metal/machine.h:524 (discriminator 1)
2010474a:	fe842703          	lw	a4,-24(s0)
2010474e:	4785                	li	a5,1
20104750:	00f71463          	bne	a4,a5,20104758 <__metal_driver_sifive_gpio0_interrupt_lines+0x3e>
C:\VSD\FreedomStudio-3-1-1-x86_64-w64-mingw32\FreedomStudio-3-1-1\SiFive\freedom-e-sdk-v21.11.00.00\bsp\sifive-hifive1\build\debug/./metal/machine.h:525
		return 8;
20104754:	47a1                	li	a5,8
20104756:	aa85                	j	201048c6 <__metal_driver_sifive_gpio0_interrupt_lines+0x1ac>
C:\VSD\FreedomStudio-3-1-1-x86_64-w64-mingw32\FreedomStudio-3-1-1\SiFive\freedom-e-sdk-v21.11.00.00\bsp\sifive-hifive1\build\debug/./metal/machine.h:527
	else if ((((uintptr_t)gpio == (uintptr_t)&__metal_dt_gpio_10012000) && (idx == 2))) {
20104758:	fec42703          	lw	a4,-20(s0)
2010475c:	81418793          	add	a5,gp,-2028 # 80000a2c <__metal_dt_gpio_10012000>
20104760:	00f71963          	bne	a4,a5,20104772 <__metal_driver_sifive_gpio0_interrupt_lines+0x58>
C:\VSD\FreedomStudio-3-1-1-x86_64-w64-mingw32\FreedomStudio-3-1-1\SiFive\freedom-e-sdk-v21.11.00.00\bsp\sifive-hifive1\build\debug/./metal/machine.h:527 (discriminator 1)
20104764:	fe842703          	lw	a4,-24(s0)
20104768:	4789                	li	a5,2
2010476a:	00f71463          	bne	a4,a5,20104772 <__metal_driver_sifive_gpio0_interrupt_lines+0x58>
C:\VSD\FreedomStudio-3-1-1-x86_64-w64-mingw32\FreedomStudio-3-1-1\SiFive\freedom-e-sdk-v21.11.00.00\bsp\sifive-hifive1\build\debug/./metal/machine.h:528
		return 9;
2010476e:	47a5                	li	a5,9
20104770:	aa99                	j	201048c6 <__metal_driver_sifive_gpio0_interrupt_lines+0x1ac>
C:\VSD\FreedomStudio-3-1-1-x86_64-w64-mingw32\FreedomStudio-3-1-1\SiFive\freedom-e-sdk-v21.11.00.00\bsp\sifive-hifive1\build\debug/./metal/machine.h:530
	else if ((((uintptr_t)gpio == (uintptr_t)&__metal_dt_gpio_10012000) && (idx == 3))) {
20104772:	fec42703          	lw	a4,-20(s0)
20104776:	81418793          	add	a5,gp,-2028 # 80000a2c <__metal_dt_gpio_10012000>
2010477a:	00f71963          	bne	a4,a5,2010478c <__metal_driver_sifive_gpio0_interrupt_lines+0x72>
C:\VSD\FreedomStudio-3-1-1-x86_64-w64-mingw32\FreedomStudio-3-1-1\SiFive\freedom-e-sdk-v21.11.00.00\bsp\sifive-hifive1\build\debug/./metal/machine.h:530 (discriminator 1)
2010477e:	fe842703          	lw	a4,-24(s0)
20104782:	478d                	li	a5,3
20104784:	00f71463          	bne	a4,a5,2010478c <__metal_driver_sifive_gpio0_interrupt_lines+0x72>
C:\VSD\FreedomStudio-3-1-1-x86_64-w64-mingw32\FreedomStudio-3-1-1\SiFive\freedom-e-sdk-v21.11.00.00\bsp\sifive-hifive1\build\debug/./metal/machine.h:531
		return 10;
20104788:	47a9                	li	a5,10
2010478a:	aa35                	j	201048c6 <__metal_driver_sifive_gpio0_interrupt_lines+0x1ac>
C:\VSD\FreedomStudio-3-1-1-x86_64-w64-mingw32\FreedomStudio-3-1-1\SiFive\freedom-e-sdk-v21.11.00.00\bsp\sifive-hifive1\build\debug/./metal/machine.h:533
	else if ((((uintptr_t)gpio == (uintptr_t)&__metal_dt_gpio_10012000) && (idx == 4))) {
2010478c:	fec42703          	lw	a4,-20(s0)
20104790:	81418793          	add	a5,gp,-2028 # 80000a2c <__metal_dt_gpio_10012000>
20104794:	00f71963          	bne	a4,a5,201047a6 <__metal_driver_sifive_gpio0_interrupt_lines+0x8c>
C:\VSD\FreedomStudio-3-1-1-x86_64-w64-mingw32\FreedomStudio-3-1-1\SiFive\freedom-e-sdk-v21.11.00.00\bsp\sifive-hifive1\build\debug/./metal/machine.h:533 (discriminator 1)
20104798:	fe842703          	lw	a4,-24(s0)
2010479c:	4791                	li	a5,4
2010479e:	00f71463          	bne	a4,a5,201047a6 <__metal_driver_sifive_gpio0_interrupt_lines+0x8c>
C:\VSD\FreedomStudio-3-1-1-x86_64-w64-mingw32\FreedomStudio-3-1-1\SiFive\freedom-e-sdk-v21.11.00.00\bsp\sifive-hifive1\build\debug/./metal/machine.h:534
		return 11;
201047a2:	47ad                	li	a5,11
201047a4:	a20d                	j	201048c6 <__metal_driver_sifive_gpio0_interrupt_lines+0x1ac>
C:\VSD\FreedomStudio-3-1-1-x86_64-w64-mingw32\FreedomStudio-3-1-1\SiFive\freedom-e-sdk-v21.11.00.00\bsp\sifive-hifive1\build\debug/./metal/machine.h:536
	else if ((((uintptr_t)gpio == (uintptr_t)&__metal_dt_gpio_10012000) && (idx == 5))) {
201047a6:	fec42703          	lw	a4,-20(s0)
201047aa:	81418793          	add	a5,gp,-2028 # 80000a2c <__metal_dt_gpio_10012000>
201047ae:	00f71963          	bne	a4,a5,201047c0 <__metal_driver_sifive_gpio0_interrupt_lines+0xa6>
C:\VSD\FreedomStudio-3-1-1-x86_64-w64-mingw32\FreedomStudio-3-1-1\SiFive\freedom-e-sdk-v21.11.00.00\bsp\sifive-hifive1\build\debug/./metal/machine.h:536 (discriminator 1)
201047b2:	fe842703          	lw	a4,-24(s0)
201047b6:	4795                	li	a5,5
201047b8:	00f71463          	bne	a4,a5,201047c0 <__metal_driver_sifive_gpio0_interrupt_lines+0xa6>
C:\VSD\FreedomStudio-3-1-1-x86_64-w64-mingw32\FreedomStudio-3-1-1\SiFive\freedom-e-sdk-v21.11.00.00\bsp\sifive-hifive1\build\debug/./metal/machine.h:537
		return 12;
201047bc:	47b1                	li	a5,12
201047be:	a221                	j	201048c6 <__metal_driver_sifive_gpio0_interrupt_lines+0x1ac>
C:\VSD\FreedomStudio-3-1-1-x86_64-w64-mingw32\FreedomStudio-3-1-1\SiFive\freedom-e-sdk-v21.11.00.00\bsp\sifive-hifive1\build\debug/./metal/machine.h:539
	else if ((((uintptr_t)gpio == (uintptr_t)&__metal_dt_gpio_10012000) && (idx == 6))) {
201047c0:	fec42703          	lw	a4,-20(s0)
201047c4:	81418793          	add	a5,gp,-2028 # 80000a2c <__metal_dt_gpio_10012000>
201047c8:	00f71963          	bne	a4,a5,201047da <__metal_driver_sifive_gpio0_interrupt_lines+0xc0>
C:\VSD\FreedomStudio-3-1-1-x86_64-w64-mingw32\FreedomStudio-3-1-1\SiFive\freedom-e-sdk-v21.11.00.00\bsp\sifive-hifive1\build\debug/./metal/machine.h:539 (discriminator 1)
201047cc:	fe842703          	lw	a4,-24(s0)
201047d0:	4799                	li	a5,6
201047d2:	00f71463          	bne	a4,a5,201047da <__metal_driver_sifive_gpio0_interrupt_lines+0xc0>
C:\VSD\FreedomStudio-3-1-1-x86_64-w64-mingw32\FreedomStudio-3-1-1\SiFive\freedom-e-sdk-v21.11.00.00\bsp\sifive-hifive1\build\debug/./metal/machine.h:540
		return 13;
201047d6:	47b5                	li	a5,13
201047d8:	a0fd                	j	201048c6 <__metal_driver_sifive_gpio0_interrupt_lines+0x1ac>
C:\VSD\FreedomStudio-3-1-1-x86_64-w64-mingw32\FreedomStudio-3-1-1\SiFive\freedom-e-sdk-v21.11.00.00\bsp\sifive-hifive1\build\debug/./metal/machine.h:542
	else if ((((uintptr_t)gpio == (uintptr_t)&__metal_dt_gpio_10012000) && (idx == 7))) {
201047da:	fec42703          	lw	a4,-20(s0)
201047de:	81418793          	add	a5,gp,-2028 # 80000a2c <__metal_dt_gpio_10012000>
201047e2:	00f71963          	bne	a4,a5,201047f4 <__metal_driver_sifive_gpio0_interrupt_lines+0xda>
C:\VSD\FreedomStudio-3-1-1-x86_64-w64-mingw32\FreedomStudio-3-1-1\SiFive\freedom-e-sdk-v21.11.00.00\bsp\sifive-hifive1\build\debug/./metal/machine.h:542 (discriminator 1)
201047e6:	fe842703          	lw	a4,-24(s0)
201047ea:	479d                	li	a5,7
201047ec:	00f71463          	bne	a4,a5,201047f4 <__metal_driver_sifive_gpio0_interrupt_lines+0xda>
C:\VSD\FreedomStudio-3-1-1-x86_64-w64-mingw32\FreedomStudio-3-1-1\SiFive\freedom-e-sdk-v21.11.00.00\bsp\sifive-hifive1\build\debug/./metal/machine.h:543
		return 14;
201047f0:	47b9                	li	a5,14
201047f2:	a8d1                	j	201048c6 <__metal_driver_sifive_gpio0_interrupt_lines+0x1ac>
C:\VSD\FreedomStudio-3-1-1-x86_64-w64-mingw32\FreedomStudio-3-1-1\SiFive\freedom-e-sdk-v21.11.00.00\bsp\sifive-hifive1\build\debug/./metal/machine.h:545
	else if ((((uintptr_t)gpio == (uintptr_t)&__metal_dt_gpio_10012000) && (idx == 8))) {
201047f4:	fec42703          	lw	a4,-20(s0)
201047f8:	81418793          	add	a5,gp,-2028 # 80000a2c <__metal_dt_gpio_10012000>
201047fc:	00f71963          	bne	a4,a5,2010480e <__metal_driver_sifive_gpio0_interrupt_lines+0xf4>
C:\VSD\FreedomStudio-3-1-1-x86_64-w64-mingw32\FreedomStudio-3-1-1\SiFive\freedom-e-sdk-v21.11.00.00\bsp\sifive-hifive1\build\debug/./metal/machine.h:545 (discriminator 1)
20104800:	fe842703          	lw	a4,-24(s0)
20104804:	47a1                	li	a5,8
20104806:	00f71463          	bne	a4,a5,2010480e <__metal_driver_sifive_gpio0_interrupt_lines+0xf4>
C:\VSD\FreedomStudio-3-1-1-x86_64-w64-mingw32\FreedomStudio-3-1-1\SiFive\freedom-e-sdk-v21.11.00.00\bsp\sifive-hifive1\build\debug/./metal/machine.h:546
		return 15;
2010480a:	47bd                	li	a5,15
2010480c:	a86d                	j	201048c6 <__metal_driver_sifive_gpio0_interrupt_lines+0x1ac>
C:\VSD\FreedomStudio-3-1-1-x86_64-w64-mingw32\FreedomStudio-3-1-1\SiFive\freedom-e-sdk-v21.11.00.00\bsp\sifive-hifive1\build\debug/./metal/machine.h:548
	else if ((((uintptr_t)gpio == (uintptr_t)&__metal_dt_gpio_10012000) && (idx == 9))) {
2010480e:	fec42703          	lw	a4,-20(s0)
20104812:	81418793          	add	a5,gp,-2028 # 80000a2c <__metal_dt_gpio_10012000>
20104816:	00f71963          	bne	a4,a5,20104828 <__metal_driver_sifive_gpio0_interrupt_lines+0x10e>
C:\VSD\FreedomStudio-3-1-1-x86_64-w64-mingw32\FreedomStudio-3-1-1\SiFive\freedom-e-sdk-v21.11.00.00\bsp\sifive-hifive1\build\debug/./metal/machine.h:548 (discriminator 1)
2010481a:	fe842703          	lw	a4,-24(s0)
2010481e:	47a5                	li	a5,9
20104820:	00f71463          	bne	a4,a5,20104828 <__metal_driver_sifive_gpio0_interrupt_lines+0x10e>
C:\VSD\FreedomStudio-3-1-1-x86_64-w64-mingw32\FreedomStudio-3-1-1\SiFive\freedom-e-sdk-v21.11.00.00\bsp\sifive-hifive1\build\debug/./metal/machine.h:549
		return 16;
20104824:	47c1                	li	a5,16
20104826:	a045                	j	201048c6 <__metal_driver_sifive_gpio0_interrupt_lines+0x1ac>
C:\VSD\FreedomStudio-3-1-1-x86_64-w64-mingw32\FreedomStudio-3-1-1\SiFive\freedom-e-sdk-v21.11.00.00\bsp\sifive-hifive1\build\debug/./metal/machine.h:551
	else if ((((uintptr_t)gpio == (uintptr_t)&__metal_dt_gpio_10012000) && (idx == 10))) {
20104828:	fec42703          	lw	a4,-20(s0)
2010482c:	81418793          	add	a5,gp,-2028 # 80000a2c <__metal_dt_gpio_10012000>
20104830:	00f71963          	bne	a4,a5,20104842 <__metal_driver_sifive_gpio0_interrupt_lines+0x128>
C:\VSD\FreedomStudio-3-1-1-x86_64-w64-mingw32\FreedomStudio-3-1-1\SiFive\freedom-e-sdk-v21.11.00.00\bsp\sifive-hifive1\build\debug/./metal/machine.h:551 (discriminator 1)
20104834:	fe842703          	lw	a4,-24(s0)
20104838:	47a9                	li	a5,10
2010483a:	00f71463          	bne	a4,a5,20104842 <__metal_driver_sifive_gpio0_interrupt_lines+0x128>
C:\VSD\FreedomStudio-3-1-1-x86_64-w64-mingw32\FreedomStudio-3-1-1\SiFive\freedom-e-sdk-v21.11.00.00\bsp\sifive-hifive1\build\debug/./metal/machine.h:552
		return 17;
2010483e:	47c5                	li	a5,17
20104840:	a059                	j	201048c6 <__metal_driver_sifive_gpio0_interrupt_lines+0x1ac>
C:\VSD\FreedomStudio-3-1-1-x86_64-w64-mingw32\FreedomStudio-3-1-1\SiFive\freedom-e-sdk-v21.11.00.00\bsp\sifive-hifive1\build\debug/./metal/machine.h:554
	else if ((((uintptr_t)gpio == (uintptr_t)&__metal_dt_gpio_10012000) && (idx == 11))) {
20104842:	fec42703          	lw	a4,-20(s0)
20104846:	81418793          	add	a5,gp,-2028 # 80000a2c <__metal_dt_gpio_10012000>
2010484a:	00f71963          	bne	a4,a5,2010485c <__metal_driver_sifive_gpio0_interrupt_lines+0x142>
C:\VSD\FreedomStudio-3-1-1-x86_64-w64-mingw32\FreedomStudio-3-1-1\SiFive\freedom-e-sdk-v21.11.00.00\bsp\sifive-hifive1\build\debug/./metal/machine.h:554 (discriminator 1)
2010484e:	fe842703          	lw	a4,-24(s0)
20104852:	47ad                	li	a5,11
20104854:	00f71463          	bne	a4,a5,2010485c <__metal_driver_sifive_gpio0_interrupt_lines+0x142>
C:\VSD\FreedomStudio-3-1-1-x86_64-w64-mingw32\FreedomStudio-3-1-1\SiFive\freedom-e-sdk-v21.11.00.00\bsp\sifive-hifive1\build\debug/./metal/machine.h:555
		return 18;
20104858:	47c9                	li	a5,18
2010485a:	a0b5                	j	201048c6 <__metal_driver_sifive_gpio0_interrupt_lines+0x1ac>
C:\VSD\FreedomStudio-3-1-1-x86_64-w64-mingw32\FreedomStudio-3-1-1\SiFive\freedom-e-sdk-v21.11.00.00\bsp\sifive-hifive1\build\debug/./metal/machine.h:557
	else if ((((uintptr_t)gpio == (uintptr_t)&__metal_dt_gpio_10012000) && (idx == 12))) {
2010485c:	fec42703          	lw	a4,-20(s0)
20104860:	81418793          	add	a5,gp,-2028 # 80000a2c <__metal_dt_gpio_10012000>
20104864:	00f71963          	bne	a4,a5,20104876 <__metal_driver_sifive_gpio0_interrupt_lines+0x15c>
C:\VSD\FreedomStudio-3-1-1-x86_64-w64-mingw32\FreedomStudio-3-1-1\SiFive\freedom-e-sdk-v21.11.00.00\bsp\sifive-hifive1\build\debug/./metal/machine.h:557 (discriminator 1)
20104868:	fe842703          	lw	a4,-24(s0)
2010486c:	47b1                	li	a5,12
2010486e:	00f71463          	bne	a4,a5,20104876 <__metal_driver_sifive_gpio0_interrupt_lines+0x15c>
C:\VSD\FreedomStudio-3-1-1-x86_64-w64-mingw32\FreedomStudio-3-1-1\SiFive\freedom-e-sdk-v21.11.00.00\bsp\sifive-hifive1\build\debug/./metal/machine.h:558
		return 19;
20104872:	47cd                	li	a5,19
20104874:	a889                	j	201048c6 <__metal_driver_sifive_gpio0_interrupt_lines+0x1ac>
C:\VSD\FreedomStudio-3-1-1-x86_64-w64-mingw32\FreedomStudio-3-1-1\SiFive\freedom-e-sdk-v21.11.00.00\bsp\sifive-hifive1\build\debug/./metal/machine.h:560
	else if ((((uintptr_t)gpio == (uintptr_t)&__metal_dt_gpio_10012000) && (idx == 13))) {
20104876:	fec42703          	lw	a4,-20(s0)
2010487a:	81418793          	add	a5,gp,-2028 # 80000a2c <__metal_dt_gpio_10012000>
2010487e:	00f71963          	bne	a4,a5,20104890 <__metal_driver_sifive_gpio0_interrupt_lines+0x176>
C:\VSD\FreedomStudio-3-1-1-x86_64-w64-mingw32\FreedomStudio-3-1-1\SiFive\freedom-e-sdk-v21.11.00.00\bsp\sifive-hifive1\build\debug/./metal/machine.h:560 (discriminator 1)
20104882:	fe842703          	lw	a4,-24(s0)
20104886:	47b5                	li	a5,13
20104888:	00f71463          	bne	a4,a5,20104890 <__metal_driver_sifive_gpio0_interrupt_lines+0x176>
C:\VSD\FreedomStudio-3-1-1-x86_64-w64-mingw32\FreedomStudio-3-1-1\SiFive\freedom-e-sdk-v21.11.00.00\bsp\sifive-hifive1\build\debug/./metal/machine.h:561
		return 20;
2010488c:	47d1                	li	a5,20
2010488e:	a825                	j	201048c6 <__metal_driver_sifive_gpio0_interrupt_lines+0x1ac>
C:\VSD\FreedomStudio-3-1-1-x86_64-w64-mingw32\FreedomStudio-3-1-1\SiFive\freedom-e-sdk-v21.11.00.00\bsp\sifive-hifive1\build\debug/./metal/machine.h:563
	else if ((((uintptr_t)gpio == (uintptr_t)&__metal_dt_gpio_10012000) && (idx == 14))) {
20104890:	fec42703          	lw	a4,-20(s0)
20104894:	81418793          	add	a5,gp,-2028 # 80000a2c <__metal_dt_gpio_10012000>
20104898:	00f71963          	bne	a4,a5,201048aa <__metal_driver_sifive_gpio0_interrupt_lines+0x190>
C:\VSD\FreedomStudio-3-1-1-x86_64-w64-mingw32\FreedomStudio-3-1-1\SiFive\freedom-e-sdk-v21.11.00.00\bsp\sifive-hifive1\build\debug/./metal/machine.h:563 (discriminator 1)
2010489c:	fe842703          	lw	a4,-24(s0)
201048a0:	47b9                	li	a5,14
201048a2:	00f71463          	bne	a4,a5,201048aa <__metal_driver_sifive_gpio0_interrupt_lines+0x190>
C:\VSD\FreedomStudio-3-1-1-x86_64-w64-mingw32\FreedomStudio-3-1-1\SiFive\freedom-e-sdk-v21.11.00.00\bsp\sifive-hifive1\build\debug/./metal/machine.h:564
		return 21;
201048a6:	47d5                	li	a5,21
201048a8:	a839                	j	201048c6 <__metal_driver_sifive_gpio0_interrupt_lines+0x1ac>
C:\VSD\FreedomStudio-3-1-1-x86_64-w64-mingw32\FreedomStudio-3-1-1\SiFive\freedom-e-sdk-v21.11.00.00\bsp\sifive-hifive1\build\debug/./metal/machine.h:566
	else if ((((uintptr_t)gpio == (uintptr_t)&__metal_dt_gpio_10012000) && (idx == 15))) {
201048aa:	fec42703          	lw	a4,-20(s0)
201048ae:	81418793          	add	a5,gp,-2028 # 80000a2c <__metal_dt_gpio_10012000>
201048b2:	00f71963          	bne	a4,a5,201048c4 <__metal_driver_sifive_gpio0_interrupt_lines+0x1aa>
C:\VSD\FreedomStudio-3-1-1-x86_64-w64-mingw32\FreedomStudio-3-1-1\SiFive\freedom-e-sdk-v21.11.00.00\bsp\sifive-hifive1\build\debug/./metal/machine.h:566 (discriminator 1)
201048b6:	fe842703          	lw	a4,-24(s0)
201048ba:	47bd                	li	a5,15
201048bc:	00f71463          	bne	a4,a5,201048c4 <__metal_driver_sifive_gpio0_interrupt_lines+0x1aa>
C:\VSD\FreedomStudio-3-1-1-x86_64-w64-mingw32\FreedomStudio-3-1-1\SiFive\freedom-e-sdk-v21.11.00.00\bsp\sifive-hifive1\build\debug/./metal/machine.h:567
		return 22;
201048c0:	47d9                	li	a5,22
201048c2:	a011                	j	201048c6 <__metal_driver_sifive_gpio0_interrupt_lines+0x1ac>
C:\VSD\FreedomStudio-3-1-1-x86_64-w64-mingw32\FreedomStudio-3-1-1\SiFive\freedom-e-sdk-v21.11.00.00\bsp\sifive-hifive1\build\debug/./metal/machine.h:570
		return 0;
201048c4:	4781                	li	a5,0
C:\VSD\FreedomStudio-3-1-1-x86_64-w64-mingw32\FreedomStudio-3-1-1\SiFive\freedom-e-sdk-v21.11.00.00\bsp\sifive-hifive1\build\debug/./metal/machine.h:572
}
201048c6:	853e                	mv	a0,a5
201048c8:	4472                	lw	s0,28(sp)
201048ca:	6105                	add	sp,sp,32
201048cc:	8082                	ret

201048ce <__metal_driver_sifive_gpio0_enable_input>:
__metal_driver_sifive_gpio0_enable_input():
C:/VSD/FreedomStudio-3-1-1-x86_64-w64-mingw32/FreedomStudio-3-1-1/SiFive/freedom-e-sdk-v21.11.00.00/freedom-metal/src/drivers/sifive_gpio0.c:13
#include <metal/drivers/sifive_gpio0.h>
#include <metal/io.h>
#include <metal/machine.h>

int __metal_driver_sifive_gpio0_enable_input(struct metal_gpio *ggpio,
                                             long source) {
201048ce:	7179                	add	sp,sp,-48
201048d0:	d606                	sw	ra,44(sp)
201048d2:	d422                	sw	s0,40(sp)
201048d4:	1800                	add	s0,sp,48
201048d6:	fca42e23          	sw	a0,-36(s0)
201048da:	fcb42c23          	sw	a1,-40(s0)
C:/VSD/FreedomStudio-3-1-1-x86_64-w64-mingw32/FreedomStudio-3-1-1/SiFive/freedom-e-sdk-v21.11.00.00/freedom-metal/src/drivers/sifive_gpio0.c:14
    long base = __metal_driver_sifive_gpio0_base(ggpio);
201048de:	fdc42503          	lw	a0,-36(s0)
201048e2:	33e5                	jal	201046ca <__metal_driver_sifive_gpio0_base>
201048e4:	87aa                	mv	a5,a0
C:/VSD/FreedomStudio-3-1-1-x86_64-w64-mingw32/FreedomStudio-3-1-1/SiFive/freedom-e-sdk-v21.11.00.00/freedom-metal/src/drivers/sifive_gpio0.c:14 (discriminator 1)
201048e6:	fef42623          	sw	a5,-20(s0)
C:/VSD/FreedomStudio-3-1-1-x86_64-w64-mingw32/FreedomStudio-3-1-1/SiFive/freedom-e-sdk-v21.11.00.00/freedom-metal/src/drivers/sifive_gpio0.c:16

    __METAL_ACCESS_ONCE(
201048ea:	fec42783          	lw	a5,-20(s0)
201048ee:	0791                	add	a5,a5,4
201048f0:	4398                	lw	a4,0(a5)
C:/VSD/FreedomStudio-3-1-1-x86_64-w64-mingw32/FreedomStudio-3-1-1/SiFive/freedom-e-sdk-v21.11.00.00/freedom-metal/src/drivers/sifive_gpio0.c:17
        (__metal_io_u32 *)(base + METAL_SIFIVE_GPIO0_INPUT_EN)) |= source;
201048f2:	fd842783          	lw	a5,-40(s0)
C:/VSD/FreedomStudio-3-1-1-x86_64-w64-mingw32/FreedomStudio-3-1-1/SiFive/freedom-e-sdk-v21.11.00.00/freedom-metal/src/drivers/sifive_gpio0.c:16
    __METAL_ACCESS_ONCE(
201048f6:	fec42683          	lw	a3,-20(s0)
201048fa:	0691                	add	a3,a3,4
C:/VSD/FreedomStudio-3-1-1-x86_64-w64-mingw32/FreedomStudio-3-1-1/SiFive/freedom-e-sdk-v21.11.00.00/freedom-metal/src/drivers/sifive_gpio0.c:17
        (__metal_io_u32 *)(base + METAL_SIFIVE_GPIO0_INPUT_EN)) |= source;
201048fc:	8fd9                	or	a5,a5,a4
201048fe:	c29c                	sw	a5,0(a3)
C:/VSD/FreedomStudio-3-1-1-x86_64-w64-mingw32/FreedomStudio-3-1-1/SiFive/freedom-e-sdk-v21.11.00.00/freedom-metal/src/drivers/sifive_gpio0.c:19

    return 0;
20104900:	4781                	li	a5,0
C:/VSD/FreedomStudio-3-1-1-x86_64-w64-mingw32/FreedomStudio-3-1-1/SiFive/freedom-e-sdk-v21.11.00.00/freedom-metal/src/drivers/sifive_gpio0.c:20
}
20104902:	853e                	mv	a0,a5
20104904:	50b2                	lw	ra,44(sp)
20104906:	5422                	lw	s0,40(sp)
20104908:	6145                	add	sp,sp,48
2010490a:	8082                	ret

2010490c <__metal_driver_sifive_gpio0_disable_input>:
__metal_driver_sifive_gpio0_disable_input():
C:/VSD/FreedomStudio-3-1-1-x86_64-w64-mingw32/FreedomStudio-3-1-1/SiFive/freedom-e-sdk-v21.11.00.00/freedom-metal/src/drivers/sifive_gpio0.c:23

int __metal_driver_sifive_gpio0_disable_input(struct metal_gpio *ggpio,
                                              long source) {
2010490c:	7179                	add	sp,sp,-48
2010490e:	d606                	sw	ra,44(sp)
20104910:	d422                	sw	s0,40(sp)
20104912:	1800                	add	s0,sp,48
20104914:	fca42e23          	sw	a0,-36(s0)
20104918:	fcb42c23          	sw	a1,-40(s0)
C:/VSD/FreedomStudio-3-1-1-x86_64-w64-mingw32/FreedomStudio-3-1-1/SiFive/freedom-e-sdk-v21.11.00.00/freedom-metal/src/drivers/sifive_gpio0.c:24
    long base = __metal_driver_sifive_gpio0_base(ggpio);
2010491c:	fdc42503          	lw	a0,-36(s0)
20104920:	336d                	jal	201046ca <__metal_driver_sifive_gpio0_base>
20104922:	87aa                	mv	a5,a0
C:/VSD/FreedomStudio-3-1-1-x86_64-w64-mingw32/FreedomStudio-3-1-1/SiFive/freedom-e-sdk-v21.11.00.00/freedom-metal/src/drivers/sifive_gpio0.c:24 (discriminator 1)
20104924:	fef42623          	sw	a5,-20(s0)
C:/VSD/FreedomStudio-3-1-1-x86_64-w64-mingw32/FreedomStudio-3-1-1/SiFive/freedom-e-sdk-v21.11.00.00/freedom-metal/src/drivers/sifive_gpio0.c:26

    __METAL_ACCESS_ONCE(
20104928:	fec42783          	lw	a5,-20(s0)
2010492c:	0791                	add	a5,a5,4
2010492e:	439c                	lw	a5,0(a5)
C:/VSD/FreedomStudio-3-1-1-x86_64-w64-mingw32/FreedomStudio-3-1-1/SiFive/freedom-e-sdk-v21.11.00.00/freedom-metal/src/drivers/sifive_gpio0.c:27
        (__metal_io_u32 *)(base + METAL_SIFIVE_GPIO0_INPUT_EN)) &= ~source;
20104930:	fd842703          	lw	a4,-40(s0)
20104934:	fff74713          	not	a4,a4
20104938:	86ba                	mv	a3,a4
C:/VSD/FreedomStudio-3-1-1-x86_64-w64-mingw32/FreedomStudio-3-1-1/SiFive/freedom-e-sdk-v21.11.00.00/freedom-metal/src/drivers/sifive_gpio0.c:26
    __METAL_ACCESS_ONCE(
2010493a:	fec42703          	lw	a4,-20(s0)
2010493e:	0711                	add	a4,a4,4
C:/VSD/FreedomStudio-3-1-1-x86_64-w64-mingw32/FreedomStudio-3-1-1/SiFive/freedom-e-sdk-v21.11.00.00/freedom-metal/src/drivers/sifive_gpio0.c:27
        (__metal_io_u32 *)(base + METAL_SIFIVE_GPIO0_INPUT_EN)) &= ~source;
20104940:	8ff5                	and	a5,a5,a3
20104942:	c31c                	sw	a5,0(a4)
C:/VSD/FreedomStudio-3-1-1-x86_64-w64-mingw32/FreedomStudio-3-1-1/SiFive/freedom-e-sdk-v21.11.00.00/freedom-metal/src/drivers/sifive_gpio0.c:29

    return 0;
20104944:	4781                	li	a5,0
C:/VSD/FreedomStudio-3-1-1-x86_64-w64-mingw32/FreedomStudio-3-1-1/SiFive/freedom-e-sdk-v21.11.00.00/freedom-metal/src/drivers/sifive_gpio0.c:30
}
20104946:	853e                	mv	a0,a5
20104948:	50b2                	lw	ra,44(sp)
2010494a:	5422                	lw	s0,40(sp)
2010494c:	6145                	add	sp,sp,48
2010494e:	8082                	ret

20104950 <__metal_driver_sifive_gpio0_input>:
__metal_driver_sifive_gpio0_input():
C:/VSD/FreedomStudio-3-1-1-x86_64-w64-mingw32/FreedomStudio-3-1-1/SiFive/freedom-e-sdk-v21.11.00.00/freedom-metal/src/drivers/sifive_gpio0.c:32

long __metal_driver_sifive_gpio0_input(struct metal_gpio *ggpio) {
20104950:	7179                	add	sp,sp,-48
20104952:	d606                	sw	ra,44(sp)
20104954:	d422                	sw	s0,40(sp)
20104956:	1800                	add	s0,sp,48
20104958:	fca42e23          	sw	a0,-36(s0)
C:/VSD/FreedomStudio-3-1-1-x86_64-w64-mingw32/FreedomStudio-3-1-1/SiFive/freedom-e-sdk-v21.11.00.00/freedom-metal/src/drivers/sifive_gpio0.c:33
    long base = __metal_driver_sifive_gpio0_base(ggpio);
2010495c:	fdc42503          	lw	a0,-36(s0)
20104960:	33ad                	jal	201046ca <__metal_driver_sifive_gpio0_base>
20104962:	87aa                	mv	a5,a0
C:/VSD/FreedomStudio-3-1-1-x86_64-w64-mingw32/FreedomStudio-3-1-1/SiFive/freedom-e-sdk-v21.11.00.00/freedom-metal/src/drivers/sifive_gpio0.c:33 (discriminator 1)
20104964:	fef42623          	sw	a5,-20(s0)
C:/VSD/FreedomStudio-3-1-1-x86_64-w64-mingw32/FreedomStudio-3-1-1/SiFive/freedom-e-sdk-v21.11.00.00/freedom-metal/src/drivers/sifive_gpio0.c:35

    return __METAL_ACCESS_ONCE(
20104968:	fec42783          	lw	a5,-20(s0)
2010496c:	439c                	lw	a5,0(a5)
C:/VSD/FreedomStudio-3-1-1-x86_64-w64-mingw32/FreedomStudio-3-1-1/SiFive/freedom-e-sdk-v21.11.00.00/freedom-metal/src/drivers/sifive_gpio0.c:37
        (__metal_io_u32 *)(base + METAL_SIFIVE_GPIO0_VALUE));
}
2010496e:	853e                	mv	a0,a5
20104970:	50b2                	lw	ra,44(sp)
20104972:	5422                	lw	s0,40(sp)
20104974:	6145                	add	sp,sp,48
20104976:	8082                	ret

20104978 <__metal_driver_sifive_gpio0_output>:
__metal_driver_sifive_gpio0_output():
C:/VSD/FreedomStudio-3-1-1-x86_64-w64-mingw32/FreedomStudio-3-1-1/SiFive/freedom-e-sdk-v21.11.00.00/freedom-metal/src/drivers/sifive_gpio0.c:39

long __metal_driver_sifive_gpio0_output(struct metal_gpio *ggpio) {
20104978:	7179                	add	sp,sp,-48
2010497a:	d606                	sw	ra,44(sp)
2010497c:	d422                	sw	s0,40(sp)
2010497e:	1800                	add	s0,sp,48
20104980:	fca42e23          	sw	a0,-36(s0)
C:/VSD/FreedomStudio-3-1-1-x86_64-w64-mingw32/FreedomStudio-3-1-1/SiFive/freedom-e-sdk-v21.11.00.00/freedom-metal/src/drivers/sifive_gpio0.c:40
    long base = __metal_driver_sifive_gpio0_base(ggpio);
20104984:	fdc42503          	lw	a0,-36(s0)
20104988:	3389                	jal	201046ca <__metal_driver_sifive_gpio0_base>
2010498a:	87aa                	mv	a5,a0
C:/VSD/FreedomStudio-3-1-1-x86_64-w64-mingw32/FreedomStudio-3-1-1/SiFive/freedom-e-sdk-v21.11.00.00/freedom-metal/src/drivers/sifive_gpio0.c:40 (discriminator 1)
2010498c:	fef42623          	sw	a5,-20(s0)
C:/VSD/FreedomStudio-3-1-1-x86_64-w64-mingw32/FreedomStudio-3-1-1/SiFive/freedom-e-sdk-v21.11.00.00/freedom-metal/src/drivers/sifive_gpio0.c:42

    return __METAL_ACCESS_ONCE(
20104990:	fec42783          	lw	a5,-20(s0)
20104994:	07b1                	add	a5,a5,12
20104996:	439c                	lw	a5,0(a5)
C:/VSD/FreedomStudio-3-1-1-x86_64-w64-mingw32/FreedomStudio-3-1-1/SiFive/freedom-e-sdk-v21.11.00.00/freedom-metal/src/drivers/sifive_gpio0.c:44
        (__metal_io_u32 *)(base + METAL_SIFIVE_GPIO0_PORT));
}
20104998:	853e                	mv	a0,a5
2010499a:	50b2                	lw	ra,44(sp)
2010499c:	5422                	lw	s0,40(sp)
2010499e:	6145                	add	sp,sp,48
201049a0:	8082                	ret

201049a2 <__metal_driver_sifive_gpio0_disable_output>:
__metal_driver_sifive_gpio0_disable_output():
C:/VSD/FreedomStudio-3-1-1-x86_64-w64-mingw32/FreedomStudio-3-1-1/SiFive/freedom-e-sdk-v21.11.00.00/freedom-metal/src/drivers/sifive_gpio0.c:47

int __metal_driver_sifive_gpio0_disable_output(struct metal_gpio *ggpio,
                                               long source) {
201049a2:	7179                	add	sp,sp,-48
201049a4:	d606                	sw	ra,44(sp)
201049a6:	d422                	sw	s0,40(sp)
201049a8:	1800                	add	s0,sp,48
201049aa:	fca42e23          	sw	a0,-36(s0)
201049ae:	fcb42c23          	sw	a1,-40(s0)
C:/VSD/FreedomStudio-3-1-1-x86_64-w64-mingw32/FreedomStudio-3-1-1/SiFive/freedom-e-sdk-v21.11.00.00/freedom-metal/src/drivers/sifive_gpio0.c:48
    long base = __metal_driver_sifive_gpio0_base(ggpio);
201049b2:	fdc42503          	lw	a0,-36(s0)
201049b6:	3b11                	jal	201046ca <__metal_driver_sifive_gpio0_base>
201049b8:	87aa                	mv	a5,a0
C:/VSD/FreedomStudio-3-1-1-x86_64-w64-mingw32/FreedomStudio-3-1-1/SiFive/freedom-e-sdk-v21.11.00.00/freedom-metal/src/drivers/sifive_gpio0.c:48 (discriminator 1)
201049ba:	fef42623          	sw	a5,-20(s0)
C:/VSD/FreedomStudio-3-1-1-x86_64-w64-mingw32/FreedomStudio-3-1-1/SiFive/freedom-e-sdk-v21.11.00.00/freedom-metal/src/drivers/sifive_gpio0.c:50

    __METAL_ACCESS_ONCE(
201049be:	fec42783          	lw	a5,-20(s0)
201049c2:	07a1                	add	a5,a5,8
201049c4:	439c                	lw	a5,0(a5)
C:/VSD/FreedomStudio-3-1-1-x86_64-w64-mingw32/FreedomStudio-3-1-1/SiFive/freedom-e-sdk-v21.11.00.00/freedom-metal/src/drivers/sifive_gpio0.c:51
        (__metal_io_u32 *)(base + METAL_SIFIVE_GPIO0_OUTPUT_EN)) &= ~source;
201049c6:	fd842703          	lw	a4,-40(s0)
201049ca:	fff74713          	not	a4,a4
201049ce:	86ba                	mv	a3,a4
C:/VSD/FreedomStudio-3-1-1-x86_64-w64-mingw32/FreedomStudio-3-1-1/SiFive/freedom-e-sdk-v21.11.00.00/freedom-metal/src/drivers/sifive_gpio0.c:50
    __METAL_ACCESS_ONCE(
201049d0:	fec42703          	lw	a4,-20(s0)
201049d4:	0721                	add	a4,a4,8
C:/VSD/FreedomStudio-3-1-1-x86_64-w64-mingw32/FreedomStudio-3-1-1/SiFive/freedom-e-sdk-v21.11.00.00/freedom-metal/src/drivers/sifive_gpio0.c:51
        (__metal_io_u32 *)(base + METAL_SIFIVE_GPIO0_OUTPUT_EN)) &= ~source;
201049d6:	8ff5                	and	a5,a5,a3
201049d8:	c31c                	sw	a5,0(a4)
C:/VSD/FreedomStudio-3-1-1-x86_64-w64-mingw32/FreedomStudio-3-1-1/SiFive/freedom-e-sdk-v21.11.00.00/freedom-metal/src/drivers/sifive_gpio0.c:53

    return 0;
201049da:	4781                	li	a5,0
C:/VSD/FreedomStudio-3-1-1-x86_64-w64-mingw32/FreedomStudio-3-1-1/SiFive/freedom-e-sdk-v21.11.00.00/freedom-metal/src/drivers/sifive_gpio0.c:54
}
201049dc:	853e                	mv	a0,a5
201049de:	50b2                	lw	ra,44(sp)
201049e0:	5422                	lw	s0,40(sp)
201049e2:	6145                	add	sp,sp,48
201049e4:	8082                	ret

201049e6 <__metal_driver_sifive_gpio0_enable_output>:
__metal_driver_sifive_gpio0_enable_output():
C:/VSD/FreedomStudio-3-1-1-x86_64-w64-mingw32/FreedomStudio-3-1-1/SiFive/freedom-e-sdk-v21.11.00.00/freedom-metal/src/drivers/sifive_gpio0.c:57

int __metal_driver_sifive_gpio0_enable_output(struct metal_gpio *ggpio,
                                              long source) {
201049e6:	7179                	add	sp,sp,-48
201049e8:	d606                	sw	ra,44(sp)
201049ea:	d422                	sw	s0,40(sp)
201049ec:	1800                	add	s0,sp,48
201049ee:	fca42e23          	sw	a0,-36(s0)
201049f2:	fcb42c23          	sw	a1,-40(s0)
C:/VSD/FreedomStudio-3-1-1-x86_64-w64-mingw32/FreedomStudio-3-1-1/SiFive/freedom-e-sdk-v21.11.00.00/freedom-metal/src/drivers/sifive_gpio0.c:58
    long base = __metal_driver_sifive_gpio0_base(ggpio);
201049f6:	fdc42503          	lw	a0,-36(s0)
201049fa:	39c1                	jal	201046ca <__metal_driver_sifive_gpio0_base>
201049fc:	87aa                	mv	a5,a0
C:/VSD/FreedomStudio-3-1-1-x86_64-w64-mingw32/FreedomStudio-3-1-1/SiFive/freedom-e-sdk-v21.11.00.00/freedom-metal/src/drivers/sifive_gpio0.c:58 (discriminator 1)
201049fe:	fef42623          	sw	a5,-20(s0)
C:/VSD/FreedomStudio-3-1-1-x86_64-w64-mingw32/FreedomStudio-3-1-1/SiFive/freedom-e-sdk-v21.11.00.00/freedom-metal/src/drivers/sifive_gpio0.c:60

    __METAL_ACCESS_ONCE(
20104a02:	fec42783          	lw	a5,-20(s0)
20104a06:	07a1                	add	a5,a5,8
20104a08:	4398                	lw	a4,0(a5)
C:/VSD/FreedomStudio-3-1-1-x86_64-w64-mingw32/FreedomStudio-3-1-1/SiFive/freedom-e-sdk-v21.11.00.00/freedom-metal/src/drivers/sifive_gpio0.c:61
        (__metal_io_u32 *)(base + METAL_SIFIVE_GPIO0_OUTPUT_EN)) |= source;
20104a0a:	fd842783          	lw	a5,-40(s0)
C:/VSD/FreedomStudio-3-1-1-x86_64-w64-mingw32/FreedomStudio-3-1-1/SiFive/freedom-e-sdk-v21.11.00.00/freedom-metal/src/drivers/sifive_gpio0.c:60
    __METAL_ACCESS_ONCE(
20104a0e:	fec42683          	lw	a3,-20(s0)
20104a12:	06a1                	add	a3,a3,8
C:/VSD/FreedomStudio-3-1-1-x86_64-w64-mingw32/FreedomStudio-3-1-1/SiFive/freedom-e-sdk-v21.11.00.00/freedom-metal/src/drivers/sifive_gpio0.c:61
        (__metal_io_u32 *)(base + METAL_SIFIVE_GPIO0_OUTPUT_EN)) |= source;
20104a14:	8fd9                	or	a5,a5,a4
20104a16:	c29c                	sw	a5,0(a3)
C:/VSD/FreedomStudio-3-1-1-x86_64-w64-mingw32/FreedomStudio-3-1-1/SiFive/freedom-e-sdk-v21.11.00.00/freedom-metal/src/drivers/sifive_gpio0.c:63

    return 0;
20104a18:	4781                	li	a5,0
C:/VSD/FreedomStudio-3-1-1-x86_64-w64-mingw32/FreedomStudio-3-1-1/SiFive/freedom-e-sdk-v21.11.00.00/freedom-metal/src/drivers/sifive_gpio0.c:64
}
20104a1a:	853e                	mv	a0,a5
20104a1c:	50b2                	lw	ra,44(sp)
20104a1e:	5422                	lw	s0,40(sp)
20104a20:	6145                	add	sp,sp,48
20104a22:	8082                	ret

20104a24 <__metal_driver_sifive_gpio0_output_set>:
__metal_driver_sifive_gpio0_output_set():
C:/VSD/FreedomStudio-3-1-1-x86_64-w64-mingw32/FreedomStudio-3-1-1/SiFive/freedom-e-sdk-v21.11.00.00/freedom-metal/src/drivers/sifive_gpio0.c:67

int __metal_driver_sifive_gpio0_output_set(struct metal_gpio *ggpio,
                                           long value) {
20104a24:	7179                	add	sp,sp,-48
20104a26:	d606                	sw	ra,44(sp)
20104a28:	d422                	sw	s0,40(sp)
20104a2a:	1800                	add	s0,sp,48
20104a2c:	fca42e23          	sw	a0,-36(s0)
20104a30:	fcb42c23          	sw	a1,-40(s0)
C:/VSD/FreedomStudio-3-1-1-x86_64-w64-mingw32/FreedomStudio-3-1-1/SiFive/freedom-e-sdk-v21.11.00.00/freedom-metal/src/drivers/sifive_gpio0.c:68
    long base = __metal_driver_sifive_gpio0_base(ggpio);
20104a34:	fdc42503          	lw	a0,-36(s0)
20104a38:	c93ff0ef          	jal	201046ca <__metal_driver_sifive_gpio0_base>
20104a3c:	87aa                	mv	a5,a0
C:/VSD/FreedomStudio-3-1-1-x86_64-w64-mingw32/FreedomStudio-3-1-1/SiFive/freedom-e-sdk-v21.11.00.00/freedom-metal/src/drivers/sifive_gpio0.c:68 (discriminator 1)
20104a3e:	fef42623          	sw	a5,-20(s0)
C:/VSD/FreedomStudio-3-1-1-x86_64-w64-mingw32/FreedomStudio-3-1-1/SiFive/freedom-e-sdk-v21.11.00.00/freedom-metal/src/drivers/sifive_gpio0.c:70

    __METAL_ACCESS_ONCE((__metal_io_u32 *)(base + METAL_SIFIVE_GPIO0_PORT)) |=
20104a42:	fec42783          	lw	a5,-20(s0)
20104a46:	07b1                	add	a5,a5,12
20104a48:	4398                	lw	a4,0(a5)
20104a4a:	fd842783          	lw	a5,-40(s0)
20104a4e:	fec42683          	lw	a3,-20(s0)
20104a52:	06b1                	add	a3,a3,12
20104a54:	8fd9                	or	a5,a5,a4
20104a56:	c29c                	sw	a5,0(a3)
C:/VSD/FreedomStudio-3-1-1-x86_64-w64-mingw32/FreedomStudio-3-1-1/SiFive/freedom-e-sdk-v21.11.00.00/freedom-metal/src/drivers/sifive_gpio0.c:73
        value;

    return 0;
20104a58:	4781                	li	a5,0
C:/VSD/FreedomStudio-3-1-1-x86_64-w64-mingw32/FreedomStudio-3-1-1/SiFive/freedom-e-sdk-v21.11.00.00/freedom-metal/src/drivers/sifive_gpio0.c:74
}
20104a5a:	853e                	mv	a0,a5
20104a5c:	50b2                	lw	ra,44(sp)
20104a5e:	5422                	lw	s0,40(sp)
20104a60:	6145                	add	sp,sp,48
20104a62:	8082                	ret

20104a64 <__metal_driver_sifive_gpio0_output_clear>:
__metal_driver_sifive_gpio0_output_clear():
C:/VSD/FreedomStudio-3-1-1-x86_64-w64-mingw32/FreedomStudio-3-1-1/SiFive/freedom-e-sdk-v21.11.00.00/freedom-metal/src/drivers/sifive_gpio0.c:77

int __metal_driver_sifive_gpio0_output_clear(struct metal_gpio *ggpio,
                                             long value) {
20104a64:	7179                	add	sp,sp,-48
20104a66:	d606                	sw	ra,44(sp)
20104a68:	d422                	sw	s0,40(sp)
20104a6a:	1800                	add	s0,sp,48
20104a6c:	fca42e23          	sw	a0,-36(s0)
20104a70:	fcb42c23          	sw	a1,-40(s0)
C:/VSD/FreedomStudio-3-1-1-x86_64-w64-mingw32/FreedomStudio-3-1-1/SiFive/freedom-e-sdk-v21.11.00.00/freedom-metal/src/drivers/sifive_gpio0.c:78
    long base = __metal_driver_sifive_gpio0_base(ggpio);
20104a74:	fdc42503          	lw	a0,-36(s0)
20104a78:	c53ff0ef          	jal	201046ca <__metal_driver_sifive_gpio0_base>
20104a7c:	87aa                	mv	a5,a0
C:/VSD/FreedomStudio-3-1-1-x86_64-w64-mingw32/FreedomStudio-3-1-1/SiFive/freedom-e-sdk-v21.11.00.00/freedom-metal/src/drivers/sifive_gpio0.c:78 (discriminator 1)
20104a7e:	fef42623          	sw	a5,-20(s0)
C:/VSD/FreedomStudio-3-1-1-x86_64-w64-mingw32/FreedomStudio-3-1-1/SiFive/freedom-e-sdk-v21.11.00.00/freedom-metal/src/drivers/sifive_gpio0.c:80

    __METAL_ACCESS_ONCE((__metal_io_u32 *)(base + METAL_SIFIVE_GPIO0_PORT)) &=
20104a82:	fec42783          	lw	a5,-20(s0)
20104a86:	07b1                	add	a5,a5,12
20104a88:	439c                	lw	a5,0(a5)
C:/VSD/FreedomStudio-3-1-1-x86_64-w64-mingw32/FreedomStudio-3-1-1/SiFive/freedom-e-sdk-v21.11.00.00/freedom-metal/src/drivers/sifive_gpio0.c:81
        ~value;
20104a8a:	fd842703          	lw	a4,-40(s0)
20104a8e:	fff74713          	not	a4,a4
20104a92:	86ba                	mv	a3,a4
C:/VSD/FreedomStudio-3-1-1-x86_64-w64-mingw32/FreedomStudio-3-1-1/SiFive/freedom-e-sdk-v21.11.00.00/freedom-metal/src/drivers/sifive_gpio0.c:80
    __METAL_ACCESS_ONCE((__metal_io_u32 *)(base + METAL_SIFIVE_GPIO0_PORT)) &=
20104a94:	fec42703          	lw	a4,-20(s0)
20104a98:	0731                	add	a4,a4,12
20104a9a:	8ff5                	and	a5,a5,a3
20104a9c:	c31c                	sw	a5,0(a4)
C:/VSD/FreedomStudio-3-1-1-x86_64-w64-mingw32/FreedomStudio-3-1-1/SiFive/freedom-e-sdk-v21.11.00.00/freedom-metal/src/drivers/sifive_gpio0.c:83

    return 0;
20104a9e:	4781                	li	a5,0
C:/VSD/FreedomStudio-3-1-1-x86_64-w64-mingw32/FreedomStudio-3-1-1/SiFive/freedom-e-sdk-v21.11.00.00/freedom-metal/src/drivers/sifive_gpio0.c:84
}
20104aa0:	853e                	mv	a0,a5
20104aa2:	50b2                	lw	ra,44(sp)
20104aa4:	5422                	lw	s0,40(sp)
20104aa6:	6145                	add	sp,sp,48
20104aa8:	8082                	ret

20104aaa <__metal_driver_sifive_gpio0_output_toggle>:
__metal_driver_sifive_gpio0_output_toggle():
C:/VSD/FreedomStudio-3-1-1-x86_64-w64-mingw32/FreedomStudio-3-1-1/SiFive/freedom-e-sdk-v21.11.00.00/freedom-metal/src/drivers/sifive_gpio0.c:87

int __metal_driver_sifive_gpio0_output_toggle(struct metal_gpio *ggpio,
                                              long value) {
20104aaa:	7179                	add	sp,sp,-48
20104aac:	d606                	sw	ra,44(sp)
20104aae:	d422                	sw	s0,40(sp)
20104ab0:	1800                	add	s0,sp,48
20104ab2:	fca42e23          	sw	a0,-36(s0)
20104ab6:	fcb42c23          	sw	a1,-40(s0)
C:/VSD/FreedomStudio-3-1-1-x86_64-w64-mingw32/FreedomStudio-3-1-1/SiFive/freedom-e-sdk-v21.11.00.00/freedom-metal/src/drivers/sifive_gpio0.c:88
    long base = __metal_driver_sifive_gpio0_base(ggpio);
20104aba:	fdc42503          	lw	a0,-36(s0)
20104abe:	c0dff0ef          	jal	201046ca <__metal_driver_sifive_gpio0_base>
20104ac2:	87aa                	mv	a5,a0
C:/VSD/FreedomStudio-3-1-1-x86_64-w64-mingw32/FreedomStudio-3-1-1/SiFive/freedom-e-sdk-v21.11.00.00/freedom-metal/src/drivers/sifive_gpio0.c:88 (discriminator 1)
20104ac4:	fef42623          	sw	a5,-20(s0)
C:/VSD/FreedomStudio-3-1-1-x86_64-w64-mingw32/FreedomStudio-3-1-1/SiFive/freedom-e-sdk-v21.11.00.00/freedom-metal/src/drivers/sifive_gpio0.c:91

    __METAL_ACCESS_ONCE((__metal_io_u32 *)(base + METAL_SIFIVE_GPIO0_PORT)) =
        __METAL_ACCESS_ONCE(
20104ac8:	fec42783          	lw	a5,-20(s0)
20104acc:	07b1                	add	a5,a5,12
20104ace:	4398                	lw	a4,0(a5)
C:/VSD/FreedomStudio-3-1-1-x86_64-w64-mingw32/FreedomStudio-3-1-1/SiFive/freedom-e-sdk-v21.11.00.00/freedom-metal/src/drivers/sifive_gpio0.c:92
            (__metal_io_u32 *)(base + METAL_SIFIVE_GPIO0_PORT)) ^
20104ad0:	fd842783          	lw	a5,-40(s0)
C:/VSD/FreedomStudio-3-1-1-x86_64-w64-mingw32/FreedomStudio-3-1-1/SiFive/freedom-e-sdk-v21.11.00.00/freedom-metal/src/drivers/sifive_gpio0.c:90
    __METAL_ACCESS_ONCE((__metal_io_u32 *)(base + METAL_SIFIVE_GPIO0_PORT)) =
20104ad4:	fec42683          	lw	a3,-20(s0)
20104ad8:	06b1                	add	a3,a3,12
C:/VSD/FreedomStudio-3-1-1-x86_64-w64-mingw32/FreedomStudio-3-1-1/SiFive/freedom-e-sdk-v21.11.00.00/freedom-metal/src/drivers/sifive_gpio0.c:92
            (__metal_io_u32 *)(base + METAL_SIFIVE_GPIO0_PORT)) ^
20104ada:	8fb9                	xor	a5,a5,a4
C:/VSD/FreedomStudio-3-1-1-x86_64-w64-mingw32/FreedomStudio-3-1-1/SiFive/freedom-e-sdk-v21.11.00.00/freedom-metal/src/drivers/sifive_gpio0.c:90
    __METAL_ACCESS_ONCE((__metal_io_u32 *)(base + METAL_SIFIVE_GPIO0_PORT)) =
20104adc:	c29c                	sw	a5,0(a3)
C:/VSD/FreedomStudio-3-1-1-x86_64-w64-mingw32/FreedomStudio-3-1-1/SiFive/freedom-e-sdk-v21.11.00.00/freedom-metal/src/drivers/sifive_gpio0.c:95
        value;

    return 0;
20104ade:	4781                	li	a5,0
C:/VSD/FreedomStudio-3-1-1-x86_64-w64-mingw32/FreedomStudio-3-1-1/SiFive/freedom-e-sdk-v21.11.00.00/freedom-metal/src/drivers/sifive_gpio0.c:96
}
20104ae0:	853e                	mv	a0,a5
20104ae2:	50b2                	lw	ra,44(sp)
20104ae4:	5422                	lw	s0,40(sp)
20104ae6:	6145                	add	sp,sp,48
20104ae8:	8082                	ret

20104aea <__metal_driver_sifive_gpio0_enable_io>:
__metal_driver_sifive_gpio0_enable_io():
C:/VSD/FreedomStudio-3-1-1-x86_64-w64-mingw32/FreedomStudio-3-1-1/SiFive/freedom-e-sdk-v21.11.00.00/freedom-metal/src/drivers/sifive_gpio0.c:99

int __metal_driver_sifive_gpio0_enable_io(struct metal_gpio *ggpio, long source,
                                          long dest) {
20104aea:	7179                	add	sp,sp,-48
20104aec:	d606                	sw	ra,44(sp)
20104aee:	d422                	sw	s0,40(sp)
20104af0:	1800                	add	s0,sp,48
20104af2:	fca42e23          	sw	a0,-36(s0)
20104af6:	fcb42c23          	sw	a1,-40(s0)
20104afa:	fcc42a23          	sw	a2,-44(s0)
C:/VSD/FreedomStudio-3-1-1-x86_64-w64-mingw32/FreedomStudio-3-1-1/SiFive/freedom-e-sdk-v21.11.00.00/freedom-metal/src/drivers/sifive_gpio0.c:100
    long base = __metal_driver_sifive_gpio0_base(ggpio);
20104afe:	fdc42503          	lw	a0,-36(s0)
20104b02:	bc9ff0ef          	jal	201046ca <__metal_driver_sifive_gpio0_base>
20104b06:	87aa                	mv	a5,a0
C:/VSD/FreedomStudio-3-1-1-x86_64-w64-mingw32/FreedomStudio-3-1-1/SiFive/freedom-e-sdk-v21.11.00.00/freedom-metal/src/drivers/sifive_gpio0.c:100 (discriminator 1)
20104b08:	fef42623          	sw	a5,-20(s0)
C:/VSD/FreedomStudio-3-1-1-x86_64-w64-mingw32/FreedomStudio-3-1-1/SiFive/freedom-e-sdk-v21.11.00.00/freedom-metal/src/drivers/sifive_gpio0.c:102

    __METAL_ACCESS_ONCE(
20104b0c:	fec42783          	lw	a5,-20(s0)
20104b10:	03c78793          	add	a5,a5,60
20104b14:	4398                	lw	a4,0(a5)
C:/VSD/FreedomStudio-3-1-1-x86_64-w64-mingw32/FreedomStudio-3-1-1/SiFive/freedom-e-sdk-v21.11.00.00/freedom-metal/src/drivers/sifive_gpio0.c:103
        (__metal_io_u32 *)(base + METAL_SIFIVE_GPIO0_IOF_SEL)) |= source;
20104b16:	fd842783          	lw	a5,-40(s0)
C:/VSD/FreedomStudio-3-1-1-x86_64-w64-mingw32/FreedomStudio-3-1-1/SiFive/freedom-e-sdk-v21.11.00.00/freedom-metal/src/drivers/sifive_gpio0.c:102
    __METAL_ACCESS_ONCE(
20104b1a:	fec42683          	lw	a3,-20(s0)
20104b1e:	03c68693          	add	a3,a3,60
C:/VSD/FreedomStudio-3-1-1-x86_64-w64-mingw32/FreedomStudio-3-1-1/SiFive/freedom-e-sdk-v21.11.00.00/freedom-metal/src/drivers/sifive_gpio0.c:103
        (__metal_io_u32 *)(base + METAL_SIFIVE_GPIO0_IOF_SEL)) |= source;
20104b22:	8fd9                	or	a5,a5,a4
20104b24:	c29c                	sw	a5,0(a3)
C:/VSD/FreedomStudio-3-1-1-x86_64-w64-mingw32/FreedomStudio-3-1-1/SiFive/freedom-e-sdk-v21.11.00.00/freedom-metal/src/drivers/sifive_gpio0.c:104
    __METAL_ACCESS_ONCE((__metal_io_u32 *)(base + METAL_SIFIVE_GPIO0_IOF_EN)) |=
20104b26:	fec42783          	lw	a5,-20(s0)
20104b2a:	03878793          	add	a5,a5,56
20104b2e:	4398                	lw	a4,0(a5)
20104b30:	fd442783          	lw	a5,-44(s0)
20104b34:	fec42683          	lw	a3,-20(s0)
20104b38:	03868693          	add	a3,a3,56
20104b3c:	8fd9                	or	a5,a5,a4
20104b3e:	c29c                	sw	a5,0(a3)
C:/VSD/FreedomStudio-3-1-1-x86_64-w64-mingw32/FreedomStudio-3-1-1/SiFive/freedom-e-sdk-v21.11.00.00/freedom-metal/src/drivers/sifive_gpio0.c:107
        dest;

    return 0;
20104b40:	4781                	li	a5,0
C:/VSD/FreedomStudio-3-1-1-x86_64-w64-mingw32/FreedomStudio-3-1-1/SiFive/freedom-e-sdk-v21.11.00.00/freedom-metal/src/drivers/sifive_gpio0.c:108
}
20104b42:	853e                	mv	a0,a5
20104b44:	50b2                	lw	ra,44(sp)
20104b46:	5422                	lw	s0,40(sp)
20104b48:	6145                	add	sp,sp,48
20104b4a:	8082                	ret

20104b4c <__metal_driver_sifive_gpio0_disable_io>:
__metal_driver_sifive_gpio0_disable_io():
C:/VSD/FreedomStudio-3-1-1-x86_64-w64-mingw32/FreedomStudio-3-1-1/SiFive/freedom-e-sdk-v21.11.00.00/freedom-metal/src/drivers/sifive_gpio0.c:111

int __metal_driver_sifive_gpio0_disable_io(struct metal_gpio *ggpio,
                                           long source) {
20104b4c:	7179                	add	sp,sp,-48
20104b4e:	d606                	sw	ra,44(sp)
20104b50:	d422                	sw	s0,40(sp)
20104b52:	1800                	add	s0,sp,48
20104b54:	fca42e23          	sw	a0,-36(s0)
20104b58:	fcb42c23          	sw	a1,-40(s0)
C:/VSD/FreedomStudio-3-1-1-x86_64-w64-mingw32/FreedomStudio-3-1-1/SiFive/freedom-e-sdk-v21.11.00.00/freedom-metal/src/drivers/sifive_gpio0.c:112
    long base = __metal_driver_sifive_gpio0_base(ggpio);
20104b5c:	fdc42503          	lw	a0,-36(s0)
20104b60:	b6bff0ef          	jal	201046ca <__metal_driver_sifive_gpio0_base>
20104b64:	87aa                	mv	a5,a0
C:/VSD/FreedomStudio-3-1-1-x86_64-w64-mingw32/FreedomStudio-3-1-1/SiFive/freedom-e-sdk-v21.11.00.00/freedom-metal/src/drivers/sifive_gpio0.c:112 (discriminator 1)
20104b66:	fef42623          	sw	a5,-20(s0)
C:/VSD/FreedomStudio-3-1-1-x86_64-w64-mingw32/FreedomStudio-3-1-1/SiFive/freedom-e-sdk-v21.11.00.00/freedom-metal/src/drivers/sifive_gpio0.c:114

    __METAL_ACCESS_ONCE((__metal_io_u32 *)(base + METAL_SIFIVE_GPIO0_IOF_EN)) &=
20104b6a:	fec42783          	lw	a5,-20(s0)
20104b6e:	03878793          	add	a5,a5,56
20104b72:	439c                	lw	a5,0(a5)
C:/VSD/FreedomStudio-3-1-1-x86_64-w64-mingw32/FreedomStudio-3-1-1/SiFive/freedom-e-sdk-v21.11.00.00/freedom-metal/src/drivers/sifive_gpio0.c:115
        ~source;
20104b74:	fd842703          	lw	a4,-40(s0)
20104b78:	fff74713          	not	a4,a4
20104b7c:	86ba                	mv	a3,a4
C:/VSD/FreedomStudio-3-1-1-x86_64-w64-mingw32/FreedomStudio-3-1-1/SiFive/freedom-e-sdk-v21.11.00.00/freedom-metal/src/drivers/sifive_gpio0.c:114
    __METAL_ACCESS_ONCE((__metal_io_u32 *)(base + METAL_SIFIVE_GPIO0_IOF_EN)) &=
20104b7e:	fec42703          	lw	a4,-20(s0)
20104b82:	03870713          	add	a4,a4,56
20104b86:	8ff5                	and	a5,a5,a3
20104b88:	c31c                	sw	a5,0(a4)
C:/VSD/FreedomStudio-3-1-1-x86_64-w64-mingw32/FreedomStudio-3-1-1/SiFive/freedom-e-sdk-v21.11.00.00/freedom-metal/src/drivers/sifive_gpio0.c:117

    return 0;
20104b8a:	4781                	li	a5,0
C:/VSD/FreedomStudio-3-1-1-x86_64-w64-mingw32/FreedomStudio-3-1-1/SiFive/freedom-e-sdk-v21.11.00.00/freedom-metal/src/drivers/sifive_gpio0.c:118
}
20104b8c:	853e                	mv	a0,a5
20104b8e:	50b2                	lw	ra,44(sp)
20104b90:	5422                	lw	s0,40(sp)
20104b92:	6145                	add	sp,sp,48
20104b94:	8082                	ret

20104b96 <__metal_driver_sifive_gpio0_config_int>:
__metal_driver_sifive_gpio0_config_int():
C:/VSD/FreedomStudio-3-1-1-x86_64-w64-mingw32/FreedomStudio-3-1-1/SiFive/freedom-e-sdk-v21.11.00.00/freedom-metal/src/drivers/sifive_gpio0.c:121

int __metal_driver_sifive_gpio0_config_int(struct metal_gpio *ggpio,
                                           long source, int intr_type) {
20104b96:	7179                	add	sp,sp,-48
20104b98:	d606                	sw	ra,44(sp)
20104b9a:	d422                	sw	s0,40(sp)
20104b9c:	1800                	add	s0,sp,48
20104b9e:	fca42e23          	sw	a0,-36(s0)
20104ba2:	fcb42c23          	sw	a1,-40(s0)
20104ba6:	fcc42a23          	sw	a2,-44(s0)
C:/VSD/FreedomStudio-3-1-1-x86_64-w64-mingw32/FreedomStudio-3-1-1/SiFive/freedom-e-sdk-v21.11.00.00/freedom-metal/src/drivers/sifive_gpio0.c:122
    long base = __metal_driver_sifive_gpio0_base(ggpio);
20104baa:	fdc42503          	lw	a0,-36(s0)
20104bae:	b1dff0ef          	jal	201046ca <__metal_driver_sifive_gpio0_base>
20104bb2:	87aa                	mv	a5,a0
C:/VSD/FreedomStudio-3-1-1-x86_64-w64-mingw32/FreedomStudio-3-1-1/SiFive/freedom-e-sdk-v21.11.00.00/freedom-metal/src/drivers/sifive_gpio0.c:122 (discriminator 1)
20104bb4:	fef42623          	sw	a5,-20(s0)
C:/VSD/FreedomStudio-3-1-1-x86_64-w64-mingw32/FreedomStudio-3-1-1/SiFive/freedom-e-sdk-v21.11.00.00/freedom-metal/src/drivers/sifive_gpio0.c:124

    switch (intr_type) {
20104bb8:	fd442703          	lw	a4,-44(s0)
20104bbc:	479d                	li	a5,7
20104bbe:	1ce7e963          	bltu	a5,a4,20104d90 <__metal_driver_sifive_gpio0_config_int+0x1fa>
20104bc2:	fd442783          	lw	a5,-44(s0)
20104bc6:	00279713          	sll	a4,a5,0x2
20104bca:	201017b7          	lui	a5,0x20101
20104bce:	df878793          	add	a5,a5,-520 # 20100df8 <__metal_driver_vtable_sifive_fe310_g000_pll+0xc>
20104bd2:	97ba                	add	a5,a5,a4
20104bd4:	439c                	lw	a5,0(a5)
20104bd6:	8782                	jr	a5
C:/VSD/FreedomStudio-3-1-1-x86_64-w64-mingw32/FreedomStudio-3-1-1/SiFive/freedom-e-sdk-v21.11.00.00/freedom-metal/src/drivers/sifive_gpio0.c:126
    case METAL_GPIO_INT_DISABLE:
        __METAL_ACCESS_ONCE(
20104bd8:	fec42783          	lw	a5,-20(s0)
20104bdc:	07e1                	add	a5,a5,24
20104bde:	439c                	lw	a5,0(a5)
C:/VSD/FreedomStudio-3-1-1-x86_64-w64-mingw32/FreedomStudio-3-1-1/SiFive/freedom-e-sdk-v21.11.00.00/freedom-metal/src/drivers/sifive_gpio0.c:127
            (__metal_io_u32 *)(base + METAL_SIFIVE_GPIO0_RISE_IE)) &= ~source;
20104be0:	fd842703          	lw	a4,-40(s0)
20104be4:	fff74713          	not	a4,a4
20104be8:	86ba                	mv	a3,a4
C:/VSD/FreedomStudio-3-1-1-x86_64-w64-mingw32/FreedomStudio-3-1-1/SiFive/freedom-e-sdk-v21.11.00.00/freedom-metal/src/drivers/sifive_gpio0.c:126
        __METAL_ACCESS_ONCE(
20104bea:	fec42703          	lw	a4,-20(s0)
20104bee:	0761                	add	a4,a4,24
C:/VSD/FreedomStudio-3-1-1-x86_64-w64-mingw32/FreedomStudio-3-1-1/SiFive/freedom-e-sdk-v21.11.00.00/freedom-metal/src/drivers/sifive_gpio0.c:127
            (__metal_io_u32 *)(base + METAL_SIFIVE_GPIO0_RISE_IE)) &= ~source;
20104bf0:	8ff5                	and	a5,a5,a3
20104bf2:	c31c                	sw	a5,0(a4)
C:/VSD/FreedomStudio-3-1-1-x86_64-w64-mingw32/FreedomStudio-3-1-1/SiFive/freedom-e-sdk-v21.11.00.00/freedom-metal/src/drivers/sifive_gpio0.c:128
        __METAL_ACCESS_ONCE(
20104bf4:	fec42783          	lw	a5,-20(s0)
20104bf8:	02078793          	add	a5,a5,32
20104bfc:	439c                	lw	a5,0(a5)
C:/VSD/FreedomStudio-3-1-1-x86_64-w64-mingw32/FreedomStudio-3-1-1/SiFive/freedom-e-sdk-v21.11.00.00/freedom-metal/src/drivers/sifive_gpio0.c:129
            (__metal_io_u32 *)(base + METAL_SIFIVE_GPIO0_FALL_IE)) &= ~source;
20104bfe:	fd842703          	lw	a4,-40(s0)
20104c02:	fff74713          	not	a4,a4
20104c06:	86ba                	mv	a3,a4
C:/VSD/FreedomStudio-3-1-1-x86_64-w64-mingw32/FreedomStudio-3-1-1/SiFive/freedom-e-sdk-v21.11.00.00/freedom-metal/src/drivers/sifive_gpio0.c:128
        __METAL_ACCESS_ONCE(
20104c08:	fec42703          	lw	a4,-20(s0)
20104c0c:	02070713          	add	a4,a4,32
C:/VSD/FreedomStudio-3-1-1-x86_64-w64-mingw32/FreedomStudio-3-1-1/SiFive/freedom-e-sdk-v21.11.00.00/freedom-metal/src/drivers/sifive_gpio0.c:129
            (__metal_io_u32 *)(base + METAL_SIFIVE_GPIO0_FALL_IE)) &= ~source;
20104c10:	8ff5                	and	a5,a5,a3
20104c12:	c31c                	sw	a5,0(a4)
C:/VSD/FreedomStudio-3-1-1-x86_64-w64-mingw32/FreedomStudio-3-1-1/SiFive/freedom-e-sdk-v21.11.00.00/freedom-metal/src/drivers/sifive_gpio0.c:130
        __METAL_ACCESS_ONCE(
20104c14:	fec42783          	lw	a5,-20(s0)
20104c18:	02878793          	add	a5,a5,40
20104c1c:	439c                	lw	a5,0(a5)
C:/VSD/FreedomStudio-3-1-1-x86_64-w64-mingw32/FreedomStudio-3-1-1/SiFive/freedom-e-sdk-v21.11.00.00/freedom-metal/src/drivers/sifive_gpio0.c:131
            (__metal_io_u32 *)(base + METAL_SIFIVE_GPIO0_HIGH_IE)) &= ~source;
20104c1e:	fd842703          	lw	a4,-40(s0)
20104c22:	fff74713          	not	a4,a4
20104c26:	86ba                	mv	a3,a4
C:/VSD/FreedomStudio-3-1-1-x86_64-w64-mingw32/FreedomStudio-3-1-1/SiFive/freedom-e-sdk-v21.11.00.00/freedom-metal/src/drivers/sifive_gpio0.c:130
        __METAL_ACCESS_ONCE(
20104c28:	fec42703          	lw	a4,-20(s0)
20104c2c:	02870713          	add	a4,a4,40
C:/VSD/FreedomStudio-3-1-1-x86_64-w64-mingw32/FreedomStudio-3-1-1/SiFive/freedom-e-sdk-v21.11.00.00/freedom-metal/src/drivers/sifive_gpio0.c:131
            (__metal_io_u32 *)(base + METAL_SIFIVE_GPIO0_HIGH_IE)) &= ~source;
20104c30:	8ff5                	and	a5,a5,a3
20104c32:	c31c                	sw	a5,0(a4)
C:/VSD/FreedomStudio-3-1-1-x86_64-w64-mingw32/FreedomStudio-3-1-1/SiFive/freedom-e-sdk-v21.11.00.00/freedom-metal/src/drivers/sifive_gpio0.c:132
        __METAL_ACCESS_ONCE(
20104c34:	fec42783          	lw	a5,-20(s0)
20104c38:	03078793          	add	a5,a5,48
20104c3c:	439c                	lw	a5,0(a5)
C:/VSD/FreedomStudio-3-1-1-x86_64-w64-mingw32/FreedomStudio-3-1-1/SiFive/freedom-e-sdk-v21.11.00.00/freedom-metal/src/drivers/sifive_gpio0.c:133
            (__metal_io_u32 *)(base + METAL_SIFIVE_GPIO0_LOW_IE)) &= ~source;
20104c3e:	fd842703          	lw	a4,-40(s0)
20104c42:	fff74713          	not	a4,a4
20104c46:	86ba                	mv	a3,a4
C:/VSD/FreedomStudio-3-1-1-x86_64-w64-mingw32/FreedomStudio-3-1-1/SiFive/freedom-e-sdk-v21.11.00.00/freedom-metal/src/drivers/sifive_gpio0.c:132
        __METAL_ACCESS_ONCE(
20104c48:	fec42703          	lw	a4,-20(s0)
20104c4c:	03070713          	add	a4,a4,48
C:/VSD/FreedomStudio-3-1-1-x86_64-w64-mingw32/FreedomStudio-3-1-1/SiFive/freedom-e-sdk-v21.11.00.00/freedom-metal/src/drivers/sifive_gpio0.c:133
            (__metal_io_u32 *)(base + METAL_SIFIVE_GPIO0_LOW_IE)) &= ~source;
20104c50:	8ff5                	and	a5,a5,a3
20104c52:	c31c                	sw	a5,0(a4)
C:/VSD/FreedomStudio-3-1-1-x86_64-w64-mingw32/FreedomStudio-3-1-1/SiFive/freedom-e-sdk-v21.11.00.00/freedom-metal/src/drivers/sifive_gpio0.c:134
        break;
20104c54:	aa35                	j	20104d90 <__metal_driver_sifive_gpio0_config_int+0x1fa>
C:/VSD/FreedomStudio-3-1-1-x86_64-w64-mingw32/FreedomStudio-3-1-1/SiFive/freedom-e-sdk-v21.11.00.00/freedom-metal/src/drivers/sifive_gpio0.c:136
    case METAL_GPIO_INT_RISING:
        __METAL_ACCESS_ONCE(
20104c56:	fec42783          	lw	a5,-20(s0)
20104c5a:	07e1                	add	a5,a5,24
20104c5c:	4398                	lw	a4,0(a5)
C:/VSD/FreedomStudio-3-1-1-x86_64-w64-mingw32/FreedomStudio-3-1-1/SiFive/freedom-e-sdk-v21.11.00.00/freedom-metal/src/drivers/sifive_gpio0.c:137
            (__metal_io_u32 *)(base + METAL_SIFIVE_GPIO0_RISE_IE)) |= source;
20104c5e:	fd842783          	lw	a5,-40(s0)
C:/VSD/FreedomStudio-3-1-1-x86_64-w64-mingw32/FreedomStudio-3-1-1/SiFive/freedom-e-sdk-v21.11.00.00/freedom-metal/src/drivers/sifive_gpio0.c:136
        __METAL_ACCESS_ONCE(
20104c62:	fec42683          	lw	a3,-20(s0)
20104c66:	06e1                	add	a3,a3,24
C:/VSD/FreedomStudio-3-1-1-x86_64-w64-mingw32/FreedomStudio-3-1-1/SiFive/freedom-e-sdk-v21.11.00.00/freedom-metal/src/drivers/sifive_gpio0.c:137
            (__metal_io_u32 *)(base + METAL_SIFIVE_GPIO0_RISE_IE)) |= source;
20104c68:	8fd9                	or	a5,a5,a4
20104c6a:	c29c                	sw	a5,0(a3)
C:/VSD/FreedomStudio-3-1-1-x86_64-w64-mingw32/FreedomStudio-3-1-1/SiFive/freedom-e-sdk-v21.11.00.00/freedom-metal/src/drivers/sifive_gpio0.c:138
        break;
20104c6c:	a215                	j	20104d90 <__metal_driver_sifive_gpio0_config_int+0x1fa>
C:/VSD/FreedomStudio-3-1-1-x86_64-w64-mingw32/FreedomStudio-3-1-1/SiFive/freedom-e-sdk-v21.11.00.00/freedom-metal/src/drivers/sifive_gpio0.c:140
    case METAL_GPIO_INT_FALLING:
        __METAL_ACCESS_ONCE(
20104c6e:	fec42783          	lw	a5,-20(s0)
20104c72:	02078793          	add	a5,a5,32
20104c76:	4398                	lw	a4,0(a5)
C:/VSD/FreedomStudio-3-1-1-x86_64-w64-mingw32/FreedomStudio-3-1-1/SiFive/freedom-e-sdk-v21.11.00.00/freedom-metal/src/drivers/sifive_gpio0.c:141
            (__metal_io_u32 *)(base + METAL_SIFIVE_GPIO0_FALL_IE)) |= source;
20104c78:	fd842783          	lw	a5,-40(s0)
C:/VSD/FreedomStudio-3-1-1-x86_64-w64-mingw32/FreedomStudio-3-1-1/SiFive/freedom-e-sdk-v21.11.00.00/freedom-metal/src/drivers/sifive_gpio0.c:140
        __METAL_ACCESS_ONCE(
20104c7c:	fec42683          	lw	a3,-20(s0)
20104c80:	02068693          	add	a3,a3,32
C:/VSD/FreedomStudio-3-1-1-x86_64-w64-mingw32/FreedomStudio-3-1-1/SiFive/freedom-e-sdk-v21.11.00.00/freedom-metal/src/drivers/sifive_gpio0.c:141
            (__metal_io_u32 *)(base + METAL_SIFIVE_GPIO0_FALL_IE)) |= source;
20104c84:	8fd9                	or	a5,a5,a4
20104c86:	c29c                	sw	a5,0(a3)
C:/VSD/FreedomStudio-3-1-1-x86_64-w64-mingw32/FreedomStudio-3-1-1/SiFive/freedom-e-sdk-v21.11.00.00/freedom-metal/src/drivers/sifive_gpio0.c:142
        break;
20104c88:	a221                	j	20104d90 <__metal_driver_sifive_gpio0_config_int+0x1fa>
C:/VSD/FreedomStudio-3-1-1-x86_64-w64-mingw32/FreedomStudio-3-1-1/SiFive/freedom-e-sdk-v21.11.00.00/freedom-metal/src/drivers/sifive_gpio0.c:144
    case METAL_GPIO_INT_BOTH_EDGE:
        __METAL_ACCESS_ONCE(
20104c8a:	fec42783          	lw	a5,-20(s0)
20104c8e:	07e1                	add	a5,a5,24
20104c90:	4398                	lw	a4,0(a5)
C:/VSD/FreedomStudio-3-1-1-x86_64-w64-mingw32/FreedomStudio-3-1-1/SiFive/freedom-e-sdk-v21.11.00.00/freedom-metal/src/drivers/sifive_gpio0.c:145
            (__metal_io_u32 *)(base + METAL_SIFIVE_GPIO0_RISE_IE)) |= source;
20104c92:	fd842783          	lw	a5,-40(s0)
C:/VSD/FreedomStudio-3-1-1-x86_64-w64-mingw32/FreedomStudio-3-1-1/SiFive/freedom-e-sdk-v21.11.00.00/freedom-metal/src/drivers/sifive_gpio0.c:144
        __METAL_ACCESS_ONCE(
20104c96:	fec42683          	lw	a3,-20(s0)
20104c9a:	06e1                	add	a3,a3,24
C:/VSD/FreedomStudio-3-1-1-x86_64-w64-mingw32/FreedomStudio-3-1-1/SiFive/freedom-e-sdk-v21.11.00.00/freedom-metal/src/drivers/sifive_gpio0.c:145
            (__metal_io_u32 *)(base + METAL_SIFIVE_GPIO0_RISE_IE)) |= source;
20104c9c:	8fd9                	or	a5,a5,a4
20104c9e:	c29c                	sw	a5,0(a3)
C:/VSD/FreedomStudio-3-1-1-x86_64-w64-mingw32/FreedomStudio-3-1-1/SiFive/freedom-e-sdk-v21.11.00.00/freedom-metal/src/drivers/sifive_gpio0.c:146
        __METAL_ACCESS_ONCE(
20104ca0:	fec42783          	lw	a5,-20(s0)
20104ca4:	02078793          	add	a5,a5,32
20104ca8:	4398                	lw	a4,0(a5)
C:/VSD/FreedomStudio-3-1-1-x86_64-w64-mingw32/FreedomStudio-3-1-1/SiFive/freedom-e-sdk-v21.11.00.00/freedom-metal/src/drivers/sifive_gpio0.c:147
            (__metal_io_u32 *)(base + METAL_SIFIVE_GPIO0_FALL_IE)) |= source;
20104caa:	fd842783          	lw	a5,-40(s0)
C:/VSD/FreedomStudio-3-1-1-x86_64-w64-mingw32/FreedomStudio-3-1-1/SiFive/freedom-e-sdk-v21.11.00.00/freedom-metal/src/drivers/sifive_gpio0.c:146
        __METAL_ACCESS_ONCE(
20104cae:	fec42683          	lw	a3,-20(s0)
20104cb2:	02068693          	add	a3,a3,32
C:/VSD/FreedomStudio-3-1-1-x86_64-w64-mingw32/FreedomStudio-3-1-1/SiFive/freedom-e-sdk-v21.11.00.00/freedom-metal/src/drivers/sifive_gpio0.c:147
            (__metal_io_u32 *)(base + METAL_SIFIVE_GPIO0_FALL_IE)) |= source;
20104cb6:	8fd9                	or	a5,a5,a4
20104cb8:	c29c                	sw	a5,0(a3)
C:/VSD/FreedomStudio-3-1-1-x86_64-w64-mingw32/FreedomStudio-3-1-1/SiFive/freedom-e-sdk-v21.11.00.00/freedom-metal/src/drivers/sifive_gpio0.c:148
        break;
20104cba:	a8d9                	j	20104d90 <__metal_driver_sifive_gpio0_config_int+0x1fa>
C:/VSD/FreedomStudio-3-1-1-x86_64-w64-mingw32/FreedomStudio-3-1-1/SiFive/freedom-e-sdk-v21.11.00.00/freedom-metal/src/drivers/sifive_gpio0.c:150
    case METAL_GPIO_INT_HIGH:
        __METAL_ACCESS_ONCE(
20104cbc:	fec42783          	lw	a5,-20(s0)
20104cc0:	02878793          	add	a5,a5,40
20104cc4:	4398                	lw	a4,0(a5)
C:/VSD/FreedomStudio-3-1-1-x86_64-w64-mingw32/FreedomStudio-3-1-1/SiFive/freedom-e-sdk-v21.11.00.00/freedom-metal/src/drivers/sifive_gpio0.c:151
            (__metal_io_u32 *)(base + METAL_SIFIVE_GPIO0_HIGH_IE)) |= source;
20104cc6:	fd842783          	lw	a5,-40(s0)
C:/VSD/FreedomStudio-3-1-1-x86_64-w64-mingw32/FreedomStudio-3-1-1/SiFive/freedom-e-sdk-v21.11.00.00/freedom-metal/src/drivers/sifive_gpio0.c:150
        __METAL_ACCESS_ONCE(
20104cca:	fec42683          	lw	a3,-20(s0)
20104cce:	02868693          	add	a3,a3,40
C:/VSD/FreedomStudio-3-1-1-x86_64-w64-mingw32/FreedomStudio-3-1-1/SiFive/freedom-e-sdk-v21.11.00.00/freedom-metal/src/drivers/sifive_gpio0.c:151
            (__metal_io_u32 *)(base + METAL_SIFIVE_GPIO0_HIGH_IE)) |= source;
20104cd2:	8fd9                	or	a5,a5,a4
20104cd4:	c29c                	sw	a5,0(a3)
C:/VSD/FreedomStudio-3-1-1-x86_64-w64-mingw32/FreedomStudio-3-1-1/SiFive/freedom-e-sdk-v21.11.00.00/freedom-metal/src/drivers/sifive_gpio0.c:152
        break;
20104cd6:	a86d                	j	20104d90 <__metal_driver_sifive_gpio0_config_int+0x1fa>
C:/VSD/FreedomStudio-3-1-1-x86_64-w64-mingw32/FreedomStudio-3-1-1/SiFive/freedom-e-sdk-v21.11.00.00/freedom-metal/src/drivers/sifive_gpio0.c:154
    case METAL_GPIO_INT_LOW:
        __METAL_ACCESS_ONCE(
20104cd8:	fec42783          	lw	a5,-20(s0)
20104cdc:	03078793          	add	a5,a5,48
20104ce0:	4398                	lw	a4,0(a5)
C:/VSD/FreedomStudio-3-1-1-x86_64-w64-mingw32/FreedomStudio-3-1-1/SiFive/freedom-e-sdk-v21.11.00.00/freedom-metal/src/drivers/sifive_gpio0.c:155
            (__metal_io_u32 *)(base + METAL_SIFIVE_GPIO0_LOW_IE)) |= source;
20104ce2:	fd842783          	lw	a5,-40(s0)
C:/VSD/FreedomStudio-3-1-1-x86_64-w64-mingw32/FreedomStudio-3-1-1/SiFive/freedom-e-sdk-v21.11.00.00/freedom-metal/src/drivers/sifive_gpio0.c:154
        __METAL_ACCESS_ONCE(
20104ce6:	fec42683          	lw	a3,-20(s0)
20104cea:	03068693          	add	a3,a3,48
C:/VSD/FreedomStudio-3-1-1-x86_64-w64-mingw32/FreedomStudio-3-1-1/SiFive/freedom-e-sdk-v21.11.00.00/freedom-metal/src/drivers/sifive_gpio0.c:155
            (__metal_io_u32 *)(base + METAL_SIFIVE_GPIO0_LOW_IE)) |= source;
20104cee:	8fd9                	or	a5,a5,a4
20104cf0:	c29c                	sw	a5,0(a3)
C:/VSD/FreedomStudio-3-1-1-x86_64-w64-mingw32/FreedomStudio-3-1-1/SiFive/freedom-e-sdk-v21.11.00.00/freedom-metal/src/drivers/sifive_gpio0.c:156
        break;
20104cf2:	a879                	j	20104d90 <__metal_driver_sifive_gpio0_config_int+0x1fa>
C:/VSD/FreedomStudio-3-1-1-x86_64-w64-mingw32/FreedomStudio-3-1-1/SiFive/freedom-e-sdk-v21.11.00.00/freedom-metal/src/drivers/sifive_gpio0.c:158
    case METAL_GPIO_INT_BOTH_LEVEL:
        __METAL_ACCESS_ONCE(
20104cf4:	fec42783          	lw	a5,-20(s0)
20104cf8:	02878793          	add	a5,a5,40
20104cfc:	4398                	lw	a4,0(a5)
C:/VSD/FreedomStudio-3-1-1-x86_64-w64-mingw32/FreedomStudio-3-1-1/SiFive/freedom-e-sdk-v21.11.00.00/freedom-metal/src/drivers/sifive_gpio0.c:159
            (__metal_io_u32 *)(base + METAL_SIFIVE_GPIO0_HIGH_IE)) |= source;
20104cfe:	fd842783          	lw	a5,-40(s0)
C:/VSD/FreedomStudio-3-1-1-x86_64-w64-mingw32/FreedomStudio-3-1-1/SiFive/freedom-e-sdk-v21.11.00.00/freedom-metal/src/drivers/sifive_gpio0.c:158
        __METAL_ACCESS_ONCE(
20104d02:	fec42683          	lw	a3,-20(s0)
20104d06:	02868693          	add	a3,a3,40
C:/VSD/FreedomStudio-3-1-1-x86_64-w64-mingw32/FreedomStudio-3-1-1/SiFive/freedom-e-sdk-v21.11.00.00/freedom-metal/src/drivers/sifive_gpio0.c:159
            (__metal_io_u32 *)(base + METAL_SIFIVE_GPIO0_HIGH_IE)) |= source;
20104d0a:	8fd9                	or	a5,a5,a4
20104d0c:	c29c                	sw	a5,0(a3)
C:/VSD/FreedomStudio-3-1-1-x86_64-w64-mingw32/FreedomStudio-3-1-1/SiFive/freedom-e-sdk-v21.11.00.00/freedom-metal/src/drivers/sifive_gpio0.c:160
        __METAL_ACCESS_ONCE(
20104d0e:	fec42783          	lw	a5,-20(s0)
20104d12:	03078793          	add	a5,a5,48
20104d16:	4398                	lw	a4,0(a5)
C:/VSD/FreedomStudio-3-1-1-x86_64-w64-mingw32/FreedomStudio-3-1-1/SiFive/freedom-e-sdk-v21.11.00.00/freedom-metal/src/drivers/sifive_gpio0.c:161
            (__metal_io_u32 *)(base + METAL_SIFIVE_GPIO0_LOW_IE)) |= source;
20104d18:	fd842783          	lw	a5,-40(s0)
C:/VSD/FreedomStudio-3-1-1-x86_64-w64-mingw32/FreedomStudio-3-1-1/SiFive/freedom-e-sdk-v21.11.00.00/freedom-metal/src/drivers/sifive_gpio0.c:160
        __METAL_ACCESS_ONCE(
20104d1c:	fec42683          	lw	a3,-20(s0)
20104d20:	03068693          	add	a3,a3,48
C:/VSD/FreedomStudio-3-1-1-x86_64-w64-mingw32/FreedomStudio-3-1-1/SiFive/freedom-e-sdk-v21.11.00.00/freedom-metal/src/drivers/sifive_gpio0.c:161
            (__metal_io_u32 *)(base + METAL_SIFIVE_GPIO0_LOW_IE)) |= source;
20104d24:	8fd9                	or	a5,a5,a4
20104d26:	c29c                	sw	a5,0(a3)
C:/VSD/FreedomStudio-3-1-1-x86_64-w64-mingw32/FreedomStudio-3-1-1/SiFive/freedom-e-sdk-v21.11.00.00/freedom-metal/src/drivers/sifive_gpio0.c:162
        break;
20104d28:	a0a5                	j	20104d90 <__metal_driver_sifive_gpio0_config_int+0x1fa>
C:/VSD/FreedomStudio-3-1-1-x86_64-w64-mingw32/FreedomStudio-3-1-1/SiFive/freedom-e-sdk-v21.11.00.00/freedom-metal/src/drivers/sifive_gpio0.c:164
    case METAL_GPIO_INT_MAX:
        __METAL_ACCESS_ONCE(
20104d2a:	fec42783          	lw	a5,-20(s0)
20104d2e:	07e1                	add	a5,a5,24
20104d30:	4398                	lw	a4,0(a5)
C:/VSD/FreedomStudio-3-1-1-x86_64-w64-mingw32/FreedomStudio-3-1-1/SiFive/freedom-e-sdk-v21.11.00.00/freedom-metal/src/drivers/sifive_gpio0.c:165
            (__metal_io_u32 *)(base + METAL_SIFIVE_GPIO0_RISE_IE)) |= source;
20104d32:	fd842783          	lw	a5,-40(s0)
C:/VSD/FreedomStudio-3-1-1-x86_64-w64-mingw32/FreedomStudio-3-1-1/SiFive/freedom-e-sdk-v21.11.00.00/freedom-metal/src/drivers/sifive_gpio0.c:164
        __METAL_ACCESS_ONCE(
20104d36:	fec42683          	lw	a3,-20(s0)
20104d3a:	06e1                	add	a3,a3,24
C:/VSD/FreedomStudio-3-1-1-x86_64-w64-mingw32/FreedomStudio-3-1-1/SiFive/freedom-e-sdk-v21.11.00.00/freedom-metal/src/drivers/sifive_gpio0.c:165
            (__metal_io_u32 *)(base + METAL_SIFIVE_GPIO0_RISE_IE)) |= source;
20104d3c:	8fd9                	or	a5,a5,a4
20104d3e:	c29c                	sw	a5,0(a3)
C:/VSD/FreedomStudio-3-1-1-x86_64-w64-mingw32/FreedomStudio-3-1-1/SiFive/freedom-e-sdk-v21.11.00.00/freedom-metal/src/drivers/sifive_gpio0.c:166
        __METAL_ACCESS_ONCE(
20104d40:	fec42783          	lw	a5,-20(s0)
20104d44:	02078793          	add	a5,a5,32
20104d48:	4398                	lw	a4,0(a5)
C:/VSD/FreedomStudio-3-1-1-x86_64-w64-mingw32/FreedomStudio-3-1-1/SiFive/freedom-e-sdk-v21.11.00.00/freedom-metal/src/drivers/sifive_gpio0.c:167
            (__metal_io_u32 *)(base + METAL_SIFIVE_GPIO0_FALL_IE)) |= source;
20104d4a:	fd842783          	lw	a5,-40(s0)
C:/VSD/FreedomStudio-3-1-1-x86_64-w64-mingw32/FreedomStudio-3-1-1/SiFive/freedom-e-sdk-v21.11.00.00/freedom-metal/src/drivers/sifive_gpio0.c:166
        __METAL_ACCESS_ONCE(
20104d4e:	fec42683          	lw	a3,-20(s0)
20104d52:	02068693          	add	a3,a3,32
C:/VSD/FreedomStudio-3-1-1-x86_64-w64-mingw32/FreedomStudio-3-1-1/SiFive/freedom-e-sdk-v21.11.00.00/freedom-metal/src/drivers/sifive_gpio0.c:167
            (__metal_io_u32 *)(base + METAL_SIFIVE_GPIO0_FALL_IE)) |= source;
20104d56:	8fd9                	or	a5,a5,a4
20104d58:	c29c                	sw	a5,0(a3)
C:/VSD/FreedomStudio-3-1-1-x86_64-w64-mingw32/FreedomStudio-3-1-1/SiFive/freedom-e-sdk-v21.11.00.00/freedom-metal/src/drivers/sifive_gpio0.c:168
        __METAL_ACCESS_ONCE(
20104d5a:	fec42783          	lw	a5,-20(s0)
20104d5e:	02878793          	add	a5,a5,40
20104d62:	4398                	lw	a4,0(a5)
C:/VSD/FreedomStudio-3-1-1-x86_64-w64-mingw32/FreedomStudio-3-1-1/SiFive/freedom-e-sdk-v21.11.00.00/freedom-metal/src/drivers/sifive_gpio0.c:169
            (__metal_io_u32 *)(base + METAL_SIFIVE_GPIO0_HIGH_IE)) |= source;
20104d64:	fd842783          	lw	a5,-40(s0)
C:/VSD/FreedomStudio-3-1-1-x86_64-w64-mingw32/FreedomStudio-3-1-1/SiFive/freedom-e-sdk-v21.11.00.00/freedom-metal/src/drivers/sifive_gpio0.c:168
        __METAL_ACCESS_ONCE(
20104d68:	fec42683          	lw	a3,-20(s0)
20104d6c:	02868693          	add	a3,a3,40
C:/VSD/FreedomStudio-3-1-1-x86_64-w64-mingw32/FreedomStudio-3-1-1/SiFive/freedom-e-sdk-v21.11.00.00/freedom-metal/src/drivers/sifive_gpio0.c:169
            (__metal_io_u32 *)(base + METAL_SIFIVE_GPIO0_HIGH_IE)) |= source;
20104d70:	8fd9                	or	a5,a5,a4
20104d72:	c29c                	sw	a5,0(a3)
C:/VSD/FreedomStudio-3-1-1-x86_64-w64-mingw32/FreedomStudio-3-1-1/SiFive/freedom-e-sdk-v21.11.00.00/freedom-metal/src/drivers/sifive_gpio0.c:170
        __METAL_ACCESS_ONCE(
20104d74:	fec42783          	lw	a5,-20(s0)
20104d78:	03078793          	add	a5,a5,48
20104d7c:	4398                	lw	a4,0(a5)
C:/VSD/FreedomStudio-3-1-1-x86_64-w64-mingw32/FreedomStudio-3-1-1/SiFive/freedom-e-sdk-v21.11.00.00/freedom-metal/src/drivers/sifive_gpio0.c:171
            (__metal_io_u32 *)(base + METAL_SIFIVE_GPIO0_LOW_IE)) |= source;
20104d7e:	fd842783          	lw	a5,-40(s0)
C:/VSD/FreedomStudio-3-1-1-x86_64-w64-mingw32/FreedomStudio-3-1-1/SiFive/freedom-e-sdk-v21.11.00.00/freedom-metal/src/drivers/sifive_gpio0.c:170
        __METAL_ACCESS_ONCE(
20104d82:	fec42683          	lw	a3,-20(s0)
20104d86:	03068693          	add	a3,a3,48
C:/VSD/FreedomStudio-3-1-1-x86_64-w64-mingw32/FreedomStudio-3-1-1/SiFive/freedom-e-sdk-v21.11.00.00/freedom-metal/src/drivers/sifive_gpio0.c:171
            (__metal_io_u32 *)(base + METAL_SIFIVE_GPIO0_LOW_IE)) |= source;
20104d8a:	8fd9                	or	a5,a5,a4
20104d8c:	c29c                	sw	a5,0(a3)
C:/VSD/FreedomStudio-3-1-1-x86_64-w64-mingw32/FreedomStudio-3-1-1/SiFive/freedom-e-sdk-v21.11.00.00/freedom-metal/src/drivers/sifive_gpio0.c:172
        break;
20104d8e:	0001                	nop
C:/VSD/FreedomStudio-3-1-1-x86_64-w64-mingw32/FreedomStudio-3-1-1/SiFive/freedom-e-sdk-v21.11.00.00/freedom-metal/src/drivers/sifive_gpio0.c:174
    }
    return 0;
20104d90:	4781                	li	a5,0
C:/VSD/FreedomStudio-3-1-1-x86_64-w64-mingw32/FreedomStudio-3-1-1/SiFive/freedom-e-sdk-v21.11.00.00/freedom-metal/src/drivers/sifive_gpio0.c:175
}
20104d92:	853e                	mv	a0,a5
20104d94:	50b2                	lw	ra,44(sp)
20104d96:	5422                	lw	s0,40(sp)
20104d98:	6145                	add	sp,sp,48
20104d9a:	8082                	ret

20104d9c <__metal_driver_sifive_gpio0_clear_int>:
__metal_driver_sifive_gpio0_clear_int():
C:/VSD/FreedomStudio-3-1-1-x86_64-w64-mingw32/FreedomStudio-3-1-1/SiFive/freedom-e-sdk-v21.11.00.00/freedom-metal/src/drivers/sifive_gpio0.c:178

int __metal_driver_sifive_gpio0_clear_int(struct metal_gpio *ggpio, long source,
                                          int intr_type) {
20104d9c:	7179                	add	sp,sp,-48
20104d9e:	d606                	sw	ra,44(sp)
20104da0:	d422                	sw	s0,40(sp)
20104da2:	1800                	add	s0,sp,48
20104da4:	fca42e23          	sw	a0,-36(s0)
20104da8:	fcb42c23          	sw	a1,-40(s0)
20104dac:	fcc42a23          	sw	a2,-44(s0)
C:/VSD/FreedomStudio-3-1-1-x86_64-w64-mingw32/FreedomStudio-3-1-1/SiFive/freedom-e-sdk-v21.11.00.00/freedom-metal/src/drivers/sifive_gpio0.c:179
    long base = __metal_driver_sifive_gpio0_base(ggpio);
20104db0:	fdc42503          	lw	a0,-36(s0)
20104db4:	917ff0ef          	jal	201046ca <__metal_driver_sifive_gpio0_base>
20104db8:	87aa                	mv	a5,a0
C:/VSD/FreedomStudio-3-1-1-x86_64-w64-mingw32/FreedomStudio-3-1-1/SiFive/freedom-e-sdk-v21.11.00.00/freedom-metal/src/drivers/sifive_gpio0.c:179 (discriminator 1)
20104dba:	fef42623          	sw	a5,-20(s0)
C:/VSD/FreedomStudio-3-1-1-x86_64-w64-mingw32/FreedomStudio-3-1-1/SiFive/freedom-e-sdk-v21.11.00.00/freedom-metal/src/drivers/sifive_gpio0.c:181

    switch (intr_type) {
20104dbe:	fd442703          	lw	a4,-44(s0)
20104dc2:	479d                	li	a5,7
20104dc4:	14e7ea63          	bltu	a5,a4,20104f18 <__metal_driver_sifive_gpio0_clear_int+0x17c>
20104dc8:	fd442783          	lw	a5,-44(s0)
20104dcc:	00279713          	sll	a4,a5,0x2
20104dd0:	201017b7          	lui	a5,0x20101
20104dd4:	e1878793          	add	a5,a5,-488 # 20100e18 <__metal_driver_vtable_sifive_fe310_g000_pll+0x2c>
20104dd8:	97ba                	add	a5,a5,a4
20104dda:	439c                	lw	a5,0(a5)
20104ddc:	8782                	jr	a5
C:/VSD/FreedomStudio-3-1-1-x86_64-w64-mingw32/FreedomStudio-3-1-1/SiFive/freedom-e-sdk-v21.11.00.00/freedom-metal/src/drivers/sifive_gpio0.c:183
    case METAL_GPIO_INT_RISING:
        __METAL_ACCESS_ONCE(
20104dde:	fec42783          	lw	a5,-20(s0)
20104de2:	07f1                	add	a5,a5,28
20104de4:	4398                	lw	a4,0(a5)
C:/VSD/FreedomStudio-3-1-1-x86_64-w64-mingw32/FreedomStudio-3-1-1/SiFive/freedom-e-sdk-v21.11.00.00/freedom-metal/src/drivers/sifive_gpio0.c:184
            (__metal_io_u32 *)(base + METAL_SIFIVE_GPIO0_RISE_IP)) |= source;
20104de6:	fd842783          	lw	a5,-40(s0)
C:/VSD/FreedomStudio-3-1-1-x86_64-w64-mingw32/FreedomStudio-3-1-1/SiFive/freedom-e-sdk-v21.11.00.00/freedom-metal/src/drivers/sifive_gpio0.c:183
        __METAL_ACCESS_ONCE(
20104dea:	fec42683          	lw	a3,-20(s0)
20104dee:	06f1                	add	a3,a3,28
C:/VSD/FreedomStudio-3-1-1-x86_64-w64-mingw32/FreedomStudio-3-1-1/SiFive/freedom-e-sdk-v21.11.00.00/freedom-metal/src/drivers/sifive_gpio0.c:184
            (__metal_io_u32 *)(base + METAL_SIFIVE_GPIO0_RISE_IP)) |= source;
20104df0:	8fd9                	or	a5,a5,a4
20104df2:	c29c                	sw	a5,0(a3)
C:/VSD/FreedomStudio-3-1-1-x86_64-w64-mingw32/FreedomStudio-3-1-1/SiFive/freedom-e-sdk-v21.11.00.00/freedom-metal/src/drivers/sifive_gpio0.c:185
        break;
20104df4:	a215                	j	20104f18 <__metal_driver_sifive_gpio0_clear_int+0x17c>
C:/VSD/FreedomStudio-3-1-1-x86_64-w64-mingw32/FreedomStudio-3-1-1/SiFive/freedom-e-sdk-v21.11.00.00/freedom-metal/src/drivers/sifive_gpio0.c:187
    case METAL_GPIO_INT_FALLING:
        __METAL_ACCESS_ONCE(
20104df6:	fec42783          	lw	a5,-20(s0)
20104dfa:	02478793          	add	a5,a5,36
20104dfe:	4398                	lw	a4,0(a5)
C:/VSD/FreedomStudio-3-1-1-x86_64-w64-mingw32/FreedomStudio-3-1-1/SiFive/freedom-e-sdk-v21.11.00.00/freedom-metal/src/drivers/sifive_gpio0.c:188
            (__metal_io_u32 *)(base + METAL_SIFIVE_GPIO0_FALL_IP)) |= source;
20104e00:	fd842783          	lw	a5,-40(s0)
C:/VSD/FreedomStudio-3-1-1-x86_64-w64-mingw32/FreedomStudio-3-1-1/SiFive/freedom-e-sdk-v21.11.00.00/freedom-metal/src/drivers/sifive_gpio0.c:187
        __METAL_ACCESS_ONCE(
20104e04:	fec42683          	lw	a3,-20(s0)
20104e08:	02468693          	add	a3,a3,36
C:/VSD/FreedomStudio-3-1-1-x86_64-w64-mingw32/FreedomStudio-3-1-1/SiFive/freedom-e-sdk-v21.11.00.00/freedom-metal/src/drivers/sifive_gpio0.c:188
            (__metal_io_u32 *)(base + METAL_SIFIVE_GPIO0_FALL_IP)) |= source;
20104e0c:	8fd9                	or	a5,a5,a4
20104e0e:	c29c                	sw	a5,0(a3)
C:/VSD/FreedomStudio-3-1-1-x86_64-w64-mingw32/FreedomStudio-3-1-1/SiFive/freedom-e-sdk-v21.11.00.00/freedom-metal/src/drivers/sifive_gpio0.c:189
        break;
20104e10:	a221                	j	20104f18 <__metal_driver_sifive_gpio0_clear_int+0x17c>
C:/VSD/FreedomStudio-3-1-1-x86_64-w64-mingw32/FreedomStudio-3-1-1/SiFive/freedom-e-sdk-v21.11.00.00/freedom-metal/src/drivers/sifive_gpio0.c:191
    case METAL_GPIO_INT_BOTH_EDGE:
        __METAL_ACCESS_ONCE(
20104e12:	fec42783          	lw	a5,-20(s0)
20104e16:	07f1                	add	a5,a5,28
20104e18:	4398                	lw	a4,0(a5)
C:/VSD/FreedomStudio-3-1-1-x86_64-w64-mingw32/FreedomStudio-3-1-1/SiFive/freedom-e-sdk-v21.11.00.00/freedom-metal/src/drivers/sifive_gpio0.c:192
            (__metal_io_u32 *)(base + METAL_SIFIVE_GPIO0_RISE_IP)) |= source;
20104e1a:	fd842783          	lw	a5,-40(s0)
C:/VSD/FreedomStudio-3-1-1-x86_64-w64-mingw32/FreedomStudio-3-1-1/SiFive/freedom-e-sdk-v21.11.00.00/freedom-metal/src/drivers/sifive_gpio0.c:191
        __METAL_ACCESS_ONCE(
20104e1e:	fec42683          	lw	a3,-20(s0)
20104e22:	06f1                	add	a3,a3,28
C:/VSD/FreedomStudio-3-1-1-x86_64-w64-mingw32/FreedomStudio-3-1-1/SiFive/freedom-e-sdk-v21.11.00.00/freedom-metal/src/drivers/sifive_gpio0.c:192
            (__metal_io_u32 *)(base + METAL_SIFIVE_GPIO0_RISE_IP)) |= source;
20104e24:	8fd9                	or	a5,a5,a4
20104e26:	c29c                	sw	a5,0(a3)
C:/VSD/FreedomStudio-3-1-1-x86_64-w64-mingw32/FreedomStudio-3-1-1/SiFive/freedom-e-sdk-v21.11.00.00/freedom-metal/src/drivers/sifive_gpio0.c:193
        __METAL_ACCESS_ONCE(
20104e28:	fec42783          	lw	a5,-20(s0)
20104e2c:	02478793          	add	a5,a5,36
20104e30:	4398                	lw	a4,0(a5)
C:/VSD/FreedomStudio-3-1-1-x86_64-w64-mingw32/FreedomStudio-3-1-1/SiFive/freedom-e-sdk-v21.11.00.00/freedom-metal/src/drivers/sifive_gpio0.c:194
            (__metal_io_u32 *)(base + METAL_SIFIVE_GPIO0_FALL_IP)) |= source;
20104e32:	fd842783          	lw	a5,-40(s0)
C:/VSD/FreedomStudio-3-1-1-x86_64-w64-mingw32/FreedomStudio-3-1-1/SiFive/freedom-e-sdk-v21.11.00.00/freedom-metal/src/drivers/sifive_gpio0.c:193
        __METAL_ACCESS_ONCE(
20104e36:	fec42683          	lw	a3,-20(s0)
20104e3a:	02468693          	add	a3,a3,36
C:/VSD/FreedomStudio-3-1-1-x86_64-w64-mingw32/FreedomStudio-3-1-1/SiFive/freedom-e-sdk-v21.11.00.00/freedom-metal/src/drivers/sifive_gpio0.c:194
            (__metal_io_u32 *)(base + METAL_SIFIVE_GPIO0_FALL_IP)) |= source;
20104e3e:	8fd9                	or	a5,a5,a4
20104e40:	c29c                	sw	a5,0(a3)
C:/VSD/FreedomStudio-3-1-1-x86_64-w64-mingw32/FreedomStudio-3-1-1/SiFive/freedom-e-sdk-v21.11.00.00/freedom-metal/src/drivers/sifive_gpio0.c:195
        break;
20104e42:	a8d9                	j	20104f18 <__metal_driver_sifive_gpio0_clear_int+0x17c>
C:/VSD/FreedomStudio-3-1-1-x86_64-w64-mingw32/FreedomStudio-3-1-1/SiFive/freedom-e-sdk-v21.11.00.00/freedom-metal/src/drivers/sifive_gpio0.c:197
    case METAL_GPIO_INT_HIGH:
        __METAL_ACCESS_ONCE(
20104e44:	fec42783          	lw	a5,-20(s0)
20104e48:	02c78793          	add	a5,a5,44
20104e4c:	4398                	lw	a4,0(a5)
C:/VSD/FreedomStudio-3-1-1-x86_64-w64-mingw32/FreedomStudio-3-1-1/SiFive/freedom-e-sdk-v21.11.00.00/freedom-metal/src/drivers/sifive_gpio0.c:198
            (__metal_io_u32 *)(base + METAL_SIFIVE_GPIO0_HIGH_IP)) |= source;
20104e4e:	fd842783          	lw	a5,-40(s0)
C:/VSD/FreedomStudio-3-1-1-x86_64-w64-mingw32/FreedomStudio-3-1-1/SiFive/freedom-e-sdk-v21.11.00.00/freedom-metal/src/drivers/sifive_gpio0.c:197
        __METAL_ACCESS_ONCE(
20104e52:	fec42683          	lw	a3,-20(s0)
20104e56:	02c68693          	add	a3,a3,44
C:/VSD/FreedomStudio-3-1-1-x86_64-w64-mingw32/FreedomStudio-3-1-1/SiFive/freedom-e-sdk-v21.11.00.00/freedom-metal/src/drivers/sifive_gpio0.c:198
            (__metal_io_u32 *)(base + METAL_SIFIVE_GPIO0_HIGH_IP)) |= source;
20104e5a:	8fd9                	or	a5,a5,a4
20104e5c:	c29c                	sw	a5,0(a3)
C:/VSD/FreedomStudio-3-1-1-x86_64-w64-mingw32/FreedomStudio-3-1-1/SiFive/freedom-e-sdk-v21.11.00.00/freedom-metal/src/drivers/sifive_gpio0.c:199
        break;
20104e5e:	a86d                	j	20104f18 <__metal_driver_sifive_gpio0_clear_int+0x17c>
C:/VSD/FreedomStudio-3-1-1-x86_64-w64-mingw32/FreedomStudio-3-1-1/SiFive/freedom-e-sdk-v21.11.00.00/freedom-metal/src/drivers/sifive_gpio0.c:201
    case METAL_GPIO_INT_LOW:
        __METAL_ACCESS_ONCE(
20104e60:	fec42783          	lw	a5,-20(s0)
20104e64:	03478793          	add	a5,a5,52
20104e68:	4398                	lw	a4,0(a5)
C:/VSD/FreedomStudio-3-1-1-x86_64-w64-mingw32/FreedomStudio-3-1-1/SiFive/freedom-e-sdk-v21.11.00.00/freedom-metal/src/drivers/sifive_gpio0.c:202
            (__metal_io_u32 *)(base + METAL_SIFIVE_GPIO0_LOW_IP)) |= source;
20104e6a:	fd842783          	lw	a5,-40(s0)
C:/VSD/FreedomStudio-3-1-1-x86_64-w64-mingw32/FreedomStudio-3-1-1/SiFive/freedom-e-sdk-v21.11.00.00/freedom-metal/src/drivers/sifive_gpio0.c:201
        __METAL_ACCESS_ONCE(
20104e6e:	fec42683          	lw	a3,-20(s0)
20104e72:	03468693          	add	a3,a3,52
C:/VSD/FreedomStudio-3-1-1-x86_64-w64-mingw32/FreedomStudio-3-1-1/SiFive/freedom-e-sdk-v21.11.00.00/freedom-metal/src/drivers/sifive_gpio0.c:202
            (__metal_io_u32 *)(base + METAL_SIFIVE_GPIO0_LOW_IP)) |= source;
20104e76:	8fd9                	or	a5,a5,a4
20104e78:	c29c                	sw	a5,0(a3)
C:/VSD/FreedomStudio-3-1-1-x86_64-w64-mingw32/FreedomStudio-3-1-1/SiFive/freedom-e-sdk-v21.11.00.00/freedom-metal/src/drivers/sifive_gpio0.c:203
        break;
20104e7a:	a879                	j	20104f18 <__metal_driver_sifive_gpio0_clear_int+0x17c>
C:/VSD/FreedomStudio-3-1-1-x86_64-w64-mingw32/FreedomStudio-3-1-1/SiFive/freedom-e-sdk-v21.11.00.00/freedom-metal/src/drivers/sifive_gpio0.c:205
    case METAL_GPIO_INT_BOTH_LEVEL:
        __METAL_ACCESS_ONCE(
20104e7c:	fec42783          	lw	a5,-20(s0)
20104e80:	02c78793          	add	a5,a5,44
20104e84:	4398                	lw	a4,0(a5)
C:/VSD/FreedomStudio-3-1-1-x86_64-w64-mingw32/FreedomStudio-3-1-1/SiFive/freedom-e-sdk-v21.11.00.00/freedom-metal/src/drivers/sifive_gpio0.c:206
            (__metal_io_u32 *)(base + METAL_SIFIVE_GPIO0_HIGH_IP)) |= source;
20104e86:	fd842783          	lw	a5,-40(s0)
C:/VSD/FreedomStudio-3-1-1-x86_64-w64-mingw32/FreedomStudio-3-1-1/SiFive/freedom-e-sdk-v21.11.00.00/freedom-metal/src/drivers/sifive_gpio0.c:205
        __METAL_ACCESS_ONCE(
20104e8a:	fec42683          	lw	a3,-20(s0)
20104e8e:	02c68693          	add	a3,a3,44
C:/VSD/FreedomStudio-3-1-1-x86_64-w64-mingw32/FreedomStudio-3-1-1/SiFive/freedom-e-sdk-v21.11.00.00/freedom-metal/src/drivers/sifive_gpio0.c:206
            (__metal_io_u32 *)(base + METAL_SIFIVE_GPIO0_HIGH_IP)) |= source;
20104e92:	8fd9                	or	a5,a5,a4
20104e94:	c29c                	sw	a5,0(a3)
C:/VSD/FreedomStudio-3-1-1-x86_64-w64-mingw32/FreedomStudio-3-1-1/SiFive/freedom-e-sdk-v21.11.00.00/freedom-metal/src/drivers/sifive_gpio0.c:207
        __METAL_ACCESS_ONCE(
20104e96:	fec42783          	lw	a5,-20(s0)
20104e9a:	03478793          	add	a5,a5,52
20104e9e:	4398                	lw	a4,0(a5)
C:/VSD/FreedomStudio-3-1-1-x86_64-w64-mingw32/FreedomStudio-3-1-1/SiFive/freedom-e-sdk-v21.11.00.00/freedom-metal/src/drivers/sifive_gpio0.c:208
            (__metal_io_u32 *)(base + METAL_SIFIVE_GPIO0_LOW_IP)) |= source;
20104ea0:	fd842783          	lw	a5,-40(s0)
C:/VSD/FreedomStudio-3-1-1-x86_64-w64-mingw32/FreedomStudio-3-1-1/SiFive/freedom-e-sdk-v21.11.00.00/freedom-metal/src/drivers/sifive_gpio0.c:207
        __METAL_ACCESS_ONCE(
20104ea4:	fec42683          	lw	a3,-20(s0)
20104ea8:	03468693          	add	a3,a3,52
C:/VSD/FreedomStudio-3-1-1-x86_64-w64-mingw32/FreedomStudio-3-1-1/SiFive/freedom-e-sdk-v21.11.00.00/freedom-metal/src/drivers/sifive_gpio0.c:208
            (__metal_io_u32 *)(base + METAL_SIFIVE_GPIO0_LOW_IP)) |= source;
20104eac:	8fd9                	or	a5,a5,a4
20104eae:	c29c                	sw	a5,0(a3)
C:/VSD/FreedomStudio-3-1-1-x86_64-w64-mingw32/FreedomStudio-3-1-1/SiFive/freedom-e-sdk-v21.11.00.00/freedom-metal/src/drivers/sifive_gpio0.c:209
        break;
20104eb0:	a0a5                	j	20104f18 <__metal_driver_sifive_gpio0_clear_int+0x17c>
C:/VSD/FreedomStudio-3-1-1-x86_64-w64-mingw32/FreedomStudio-3-1-1/SiFive/freedom-e-sdk-v21.11.00.00/freedom-metal/src/drivers/sifive_gpio0.c:211
    case METAL_GPIO_INT_MAX:
        __METAL_ACCESS_ONCE(
20104eb2:	fec42783          	lw	a5,-20(s0)
20104eb6:	07f1                	add	a5,a5,28
20104eb8:	4398                	lw	a4,0(a5)
C:/VSD/FreedomStudio-3-1-1-x86_64-w64-mingw32/FreedomStudio-3-1-1/SiFive/freedom-e-sdk-v21.11.00.00/freedom-metal/src/drivers/sifive_gpio0.c:212
            (__metal_io_u32 *)(base + METAL_SIFIVE_GPIO0_RISE_IP)) |= source;
20104eba:	fd842783          	lw	a5,-40(s0)
C:/VSD/FreedomStudio-3-1-1-x86_64-w64-mingw32/FreedomStudio-3-1-1/SiFive/freedom-e-sdk-v21.11.00.00/freedom-metal/src/drivers/sifive_gpio0.c:211
        __METAL_ACCESS_ONCE(
20104ebe:	fec42683          	lw	a3,-20(s0)
20104ec2:	06f1                	add	a3,a3,28
C:/VSD/FreedomStudio-3-1-1-x86_64-w64-mingw32/FreedomStudio-3-1-1/SiFive/freedom-e-sdk-v21.11.00.00/freedom-metal/src/drivers/sifive_gpio0.c:212
            (__metal_io_u32 *)(base + METAL_SIFIVE_GPIO0_RISE_IP)) |= source;
20104ec4:	8fd9                	or	a5,a5,a4
20104ec6:	c29c                	sw	a5,0(a3)
C:/VSD/FreedomStudio-3-1-1-x86_64-w64-mingw32/FreedomStudio-3-1-1/SiFive/freedom-e-sdk-v21.11.00.00/freedom-metal/src/drivers/sifive_gpio0.c:213
        __METAL_ACCESS_ONCE(
20104ec8:	fec42783          	lw	a5,-20(s0)
20104ecc:	02478793          	add	a5,a5,36
20104ed0:	4398                	lw	a4,0(a5)
C:/VSD/FreedomStudio-3-1-1-x86_64-w64-mingw32/FreedomStudio-3-1-1/SiFive/freedom-e-sdk-v21.11.00.00/freedom-metal/src/drivers/sifive_gpio0.c:214
            (__metal_io_u32 *)(base + METAL_SIFIVE_GPIO0_FALL_IP)) |= source;
20104ed2:	fd842783          	lw	a5,-40(s0)
C:/VSD/FreedomStudio-3-1-1-x86_64-w64-mingw32/FreedomStudio-3-1-1/SiFive/freedom-e-sdk-v21.11.00.00/freedom-metal/src/drivers/sifive_gpio0.c:213
        __METAL_ACCESS_ONCE(
20104ed6:	fec42683          	lw	a3,-20(s0)
20104eda:	02468693          	add	a3,a3,36
C:/VSD/FreedomStudio-3-1-1-x86_64-w64-mingw32/FreedomStudio-3-1-1/SiFive/freedom-e-sdk-v21.11.00.00/freedom-metal/src/drivers/sifive_gpio0.c:214
            (__metal_io_u32 *)(base + METAL_SIFIVE_GPIO0_FALL_IP)) |= source;
20104ede:	8fd9                	or	a5,a5,a4
20104ee0:	c29c                	sw	a5,0(a3)
C:/VSD/FreedomStudio-3-1-1-x86_64-w64-mingw32/FreedomStudio-3-1-1/SiFive/freedom-e-sdk-v21.11.00.00/freedom-metal/src/drivers/sifive_gpio0.c:215
        __METAL_ACCESS_ONCE(
20104ee2:	fec42783          	lw	a5,-20(s0)
20104ee6:	02c78793          	add	a5,a5,44
20104eea:	4398                	lw	a4,0(a5)
C:/VSD/FreedomStudio-3-1-1-x86_64-w64-mingw32/FreedomStudio-3-1-1/SiFive/freedom-e-sdk-v21.11.00.00/freedom-metal/src/drivers/sifive_gpio0.c:216
            (__metal_io_u32 *)(base + METAL_SIFIVE_GPIO0_HIGH_IP)) |= source;
20104eec:	fd842783          	lw	a5,-40(s0)
C:/VSD/FreedomStudio-3-1-1-x86_64-w64-mingw32/FreedomStudio-3-1-1/SiFive/freedom-e-sdk-v21.11.00.00/freedom-metal/src/drivers/sifive_gpio0.c:215
        __METAL_ACCESS_ONCE(
20104ef0:	fec42683          	lw	a3,-20(s0)
20104ef4:	02c68693          	add	a3,a3,44
C:/VSD/FreedomStudio-3-1-1-x86_64-w64-mingw32/FreedomStudio-3-1-1/SiFive/freedom-e-sdk-v21.11.00.00/freedom-metal/src/drivers/sifive_gpio0.c:216
            (__metal_io_u32 *)(base + METAL_SIFIVE_GPIO0_HIGH_IP)) |= source;
20104ef8:	8fd9                	or	a5,a5,a4
20104efa:	c29c                	sw	a5,0(a3)
C:/VSD/FreedomStudio-3-1-1-x86_64-w64-mingw32/FreedomStudio-3-1-1/SiFive/freedom-e-sdk-v21.11.00.00/freedom-metal/src/drivers/sifive_gpio0.c:217
        __METAL_ACCESS_ONCE(
20104efc:	fec42783          	lw	a5,-20(s0)
20104f00:	03478793          	add	a5,a5,52
20104f04:	4398                	lw	a4,0(a5)
C:/VSD/FreedomStudio-3-1-1-x86_64-w64-mingw32/FreedomStudio-3-1-1/SiFive/freedom-e-sdk-v21.11.00.00/freedom-metal/src/drivers/sifive_gpio0.c:218
            (__metal_io_u32 *)(base + METAL_SIFIVE_GPIO0_LOW_IP)) |= source;
20104f06:	fd842783          	lw	a5,-40(s0)
C:/VSD/FreedomStudio-3-1-1-x86_64-w64-mingw32/FreedomStudio-3-1-1/SiFive/freedom-e-sdk-v21.11.00.00/freedom-metal/src/drivers/sifive_gpio0.c:217
        __METAL_ACCESS_ONCE(
20104f0a:	fec42683          	lw	a3,-20(s0)
20104f0e:	03468693          	add	a3,a3,52
C:/VSD/FreedomStudio-3-1-1-x86_64-w64-mingw32/FreedomStudio-3-1-1/SiFive/freedom-e-sdk-v21.11.00.00/freedom-metal/src/drivers/sifive_gpio0.c:218
            (__metal_io_u32 *)(base + METAL_SIFIVE_GPIO0_LOW_IP)) |= source;
20104f12:	8fd9                	or	a5,a5,a4
20104f14:	c29c                	sw	a5,0(a3)
C:/VSD/FreedomStudio-3-1-1-x86_64-w64-mingw32/FreedomStudio-3-1-1/SiFive/freedom-e-sdk-v21.11.00.00/freedom-metal/src/drivers/sifive_gpio0.c:219
        break;
20104f16:	0001                	nop
C:/VSD/FreedomStudio-3-1-1-x86_64-w64-mingw32/FreedomStudio-3-1-1/SiFive/freedom-e-sdk-v21.11.00.00/freedom-metal/src/drivers/sifive_gpio0.c:221
    }
    return 0;
20104f18:	4781                	li	a5,0
C:/VSD/FreedomStudio-3-1-1-x86_64-w64-mingw32/FreedomStudio-3-1-1/SiFive/freedom-e-sdk-v21.11.00.00/freedom-metal/src/drivers/sifive_gpio0.c:222
}
20104f1a:	853e                	mv	a0,a5
20104f1c:	50b2                	lw	ra,44(sp)
20104f1e:	5422                	lw	s0,40(sp)
20104f20:	6145                	add	sp,sp,48
20104f22:	8082                	ret

20104f24 <__metal_driver_gpio_interrupt_controller>:
__metal_driver_gpio_interrupt_controller():
C:/VSD/FreedomStudio-3-1-1-x86_64-w64-mingw32/FreedomStudio-3-1-1/SiFive/freedom-e-sdk-v21.11.00.00/freedom-metal/src/drivers/sifive_gpio0.c:225

struct metal_interrupt *
__metal_driver_gpio_interrupt_controller(struct metal_gpio *gpio) {
20104f24:	1101                	add	sp,sp,-32
20104f26:	ce06                	sw	ra,28(sp)
20104f28:	cc22                	sw	s0,24(sp)
20104f2a:	1000                	add	s0,sp,32
20104f2c:	fea42623          	sw	a0,-20(s0)
C:/VSD/FreedomStudio-3-1-1-x86_64-w64-mingw32/FreedomStudio-3-1-1/SiFive/freedom-e-sdk-v21.11.00.00/freedom-metal/src/drivers/sifive_gpio0.c:226
    return __metal_driver_sifive_gpio0_interrupt_parent(gpio);
20104f30:	fec42503          	lw	a0,-20(s0)
20104f34:	fbcff0ef          	jal	201046f0 <__metal_driver_sifive_gpio0_interrupt_parent>
20104f38:	87aa                	mv	a5,a0
C:/VSD/FreedomStudio-3-1-1-x86_64-w64-mingw32/FreedomStudio-3-1-1/SiFive/freedom-e-sdk-v21.11.00.00/freedom-metal/src/drivers/sifive_gpio0.c:227
}
20104f3a:	853e                	mv	a0,a5
20104f3c:	40f2                	lw	ra,28(sp)
20104f3e:	4462                	lw	s0,24(sp)
20104f40:	6105                	add	sp,sp,32
20104f42:	8082                	ret

20104f44 <__metal_driver_gpio_get_interrupt_id>:
__metal_driver_gpio_get_interrupt_id():
C:/VSD/FreedomStudio-3-1-1-x86_64-w64-mingw32/FreedomStudio-3-1-1/SiFive/freedom-e-sdk-v21.11.00.00/freedom-metal/src/drivers/sifive_gpio0.c:229

int __metal_driver_gpio_get_interrupt_id(struct metal_gpio *gpio, int pin) {
20104f44:	7179                	add	sp,sp,-48
20104f46:	d606                	sw	ra,44(sp)
20104f48:	d422                	sw	s0,40(sp)
20104f4a:	1800                	add	s0,sp,48
20104f4c:	fca42e23          	sw	a0,-36(s0)
20104f50:	fcb42c23          	sw	a1,-40(s0)
C:/VSD/FreedomStudio-3-1-1-x86_64-w64-mingw32/FreedomStudio-3-1-1/SiFive/freedom-e-sdk-v21.11.00.00/freedom-metal/src/drivers/sifive_gpio0.c:231
    int irq;
    irq = __metal_driver_sifive_gpio0_interrupt_lines(gpio, pin);
20104f54:	fd842583          	lw	a1,-40(s0)
20104f58:	fdc42503          	lw	a0,-36(s0)
20104f5c:	fbeff0ef          	jal	2010471a <__metal_driver_sifive_gpio0_interrupt_lines>
20104f60:	fea42623          	sw	a0,-20(s0)
C:/VSD/FreedomStudio-3-1-1-x86_64-w64-mingw32/FreedomStudio-3-1-1/SiFive/freedom-e-sdk-v21.11.00.00/freedom-metal/src/drivers/sifive_gpio0.c:232
    return irq;
20104f64:	fec42783          	lw	a5,-20(s0)
C:/VSD/FreedomStudio-3-1-1-x86_64-w64-mingw32/FreedomStudio-3-1-1/SiFive/freedom-e-sdk-v21.11.00.00/freedom-metal/src/drivers/sifive_gpio0.c:233
}
20104f68:	853e                	mv	a0,a5
20104f6a:	50b2                	lw	ra,44(sp)
20104f6c:	5422                	lw	s0,40(sp)
20104f6e:	6145                	add	sp,sp,48
20104f70:	8082                	ret

20104f72 <__metal_driver_sifive_uart0_control_base>:
__metal_driver_sifive_uart0_control_base():
C:\VSD\FreedomStudio-3-1-1-x86_64-w64-mingw32\FreedomStudio-3-1-1\SiFive\freedom-e-sdk-v21.11.00.00\bsp\sifive-hifive1\build\debug/./metal/machine.h:958
{
20104f72:	1101                	add	sp,sp,-32
20104f74:	ce22                	sw	s0,28(sp)
20104f76:	1000                	add	s0,sp,32
20104f78:	fea42623          	sw	a0,-20(s0)
C:\VSD\FreedomStudio-3-1-1-x86_64-w64-mingw32\FreedomStudio-3-1-1\SiFive\freedom-e-sdk-v21.11.00.00\bsp\sifive-hifive1\build\debug/./metal/machine.h:959
	if ((uintptr_t)uart == (uintptr_t)&__metal_dt_serial_10013000) {
20104f7c:	fec42703          	lw	a4,-20(s0)
20104f80:	800017b7          	lui	a5,0x80001
20104f84:	9d078793          	add	a5,a5,-1584 # 800009d0 <__metal_dt_serial_10013000>
20104f88:	00f71563          	bne	a4,a5,20104f92 <__metal_driver_sifive_uart0_control_base+0x20>
C:\VSD\FreedomStudio-3-1-1-x86_64-w64-mingw32\FreedomStudio-3-1-1\SiFive\freedom-e-sdk-v21.11.00.00\bsp\sifive-hifive1\build\debug/./metal/machine.h:960
		return METAL_SIFIVE_UART0_10013000_BASE_ADDRESS;
20104f8c:	100137b7          	lui	a5,0x10013
20104f90:	a011                	j	20104f94 <__metal_driver_sifive_uart0_control_base+0x22>
C:\VSD\FreedomStudio-3-1-1-x86_64-w64-mingw32\FreedomStudio-3-1-1\SiFive\freedom-e-sdk-v21.11.00.00\bsp\sifive-hifive1\build\debug/./metal/machine.h:963
		return 0;
20104f92:	4781                	li	a5,0
C:\VSD\FreedomStudio-3-1-1-x86_64-w64-mingw32\FreedomStudio-3-1-1\SiFive\freedom-e-sdk-v21.11.00.00\bsp\sifive-hifive1\build\debug/./metal/machine.h:965
}
20104f94:	853e                	mv	a0,a5
20104f96:	4472                	lw	s0,28(sp)
20104f98:	6105                	add	sp,sp,32
20104f9a:	8082                	ret

20104f9c <__metal_driver_sifive_uart0_interrupt_parent>:
__metal_driver_sifive_uart0_interrupt_parent():
C:\VSD\FreedomStudio-3-1-1-x86_64-w64-mingw32\FreedomStudio-3-1-1\SiFive\freedom-e-sdk-v21.11.00.00\bsp\sifive-hifive1\build\debug/./metal/machine.h:988
{
20104f9c:	1101                	add	sp,sp,-32
20104f9e:	ce22                	sw	s0,28(sp)
20104fa0:	1000                	add	s0,sp,32
20104fa2:	fea42623          	sw	a0,-20(s0)
C:\VSD\FreedomStudio-3-1-1-x86_64-w64-mingw32\FreedomStudio-3-1-1\SiFive\freedom-e-sdk-v21.11.00.00\bsp\sifive-hifive1\build\debug/./metal/machine.h:989
	if ((uintptr_t)uart == (uintptr_t)&__metal_dt_serial_10013000) {
20104fa6:	fec42703          	lw	a4,-20(s0)
20104faa:	800017b7          	lui	a5,0x80001
20104fae:	9d078793          	add	a5,a5,-1584 # 800009d0 <__metal_dt_serial_10013000>
20104fb2:	00f71763          	bne	a4,a5,20104fc0 <__metal_driver_sifive_uart0_interrupt_parent+0x24>
C:\VSD\FreedomStudio-3-1-1-x86_64-w64-mingw32\FreedomStudio-3-1-1\SiFive\freedom-e-sdk-v21.11.00.00\bsp\sifive-hifive1\build\debug/./metal/machine.h:990
		return (struct metal_interrupt *)&__metal_dt_interrupt_controller_c000000.controller;
20104fb6:	800007b7          	lui	a5,0x80000
20104fba:	3f878793          	add	a5,a5,1016 # 800003f8 <__metal_dt_interrupt_controller_c000000>
20104fbe:	a011                	j	20104fc2 <__metal_driver_sifive_uart0_interrupt_parent+0x26>
C:\VSD\FreedomStudio-3-1-1-x86_64-w64-mingw32\FreedomStudio-3-1-1\SiFive\freedom-e-sdk-v21.11.00.00\bsp\sifive-hifive1\build\debug/./metal/machine.h:993
		return 0;
20104fc0:	4781                	li	a5,0
C:\VSD\FreedomStudio-3-1-1-x86_64-w64-mingw32\FreedomStudio-3-1-1\SiFive\freedom-e-sdk-v21.11.00.00\bsp\sifive-hifive1\build\debug/./metal/machine.h:995
}
20104fc2:	853e                	mv	a0,a5
20104fc4:	4472                	lw	s0,28(sp)
20104fc6:	6105                	add	sp,sp,32
20104fc8:	8082                	ret

20104fca <__metal_driver_sifive_uart0_interrupt_line>:
__metal_driver_sifive_uart0_interrupt_line():
C:\VSD\FreedomStudio-3-1-1-x86_64-w64-mingw32\FreedomStudio-3-1-1\SiFive\freedom-e-sdk-v21.11.00.00\bsp\sifive-hifive1\build\debug/./metal/machine.h:998
{
20104fca:	1101                	add	sp,sp,-32
20104fcc:	ce22                	sw	s0,28(sp)
20104fce:	1000                	add	s0,sp,32
20104fd0:	fea42623          	sw	a0,-20(s0)
C:\VSD\FreedomStudio-3-1-1-x86_64-w64-mingw32\FreedomStudio-3-1-1\SiFive\freedom-e-sdk-v21.11.00.00\bsp\sifive-hifive1\build\debug/./metal/machine.h:999
	if ((uintptr_t)uart == (uintptr_t)&__metal_dt_serial_10013000) {
20104fd4:	fec42703          	lw	a4,-20(s0)
20104fd8:	800017b7          	lui	a5,0x80001
20104fdc:	9d078793          	add	a5,a5,-1584 # 800009d0 <__metal_dt_serial_10013000>
20104fe0:	00f71463          	bne	a4,a5,20104fe8 <__metal_driver_sifive_uart0_interrupt_line+0x1e>
C:\VSD\FreedomStudio-3-1-1-x86_64-w64-mingw32\FreedomStudio-3-1-1\SiFive\freedom-e-sdk-v21.11.00.00\bsp\sifive-hifive1\build\debug/./metal/machine.h:1000
		return 5;
20104fe4:	4795                	li	a5,5
20104fe6:	a011                	j	20104fea <__metal_driver_sifive_uart0_interrupt_line+0x20>
C:\VSD\FreedomStudio-3-1-1-x86_64-w64-mingw32\FreedomStudio-3-1-1\SiFive\freedom-e-sdk-v21.11.00.00\bsp\sifive-hifive1\build\debug/./metal/machine.h:1003
		return 0;
20104fe8:	4781                	li	a5,0
C:\VSD\FreedomStudio-3-1-1-x86_64-w64-mingw32\FreedomStudio-3-1-1\SiFive\freedom-e-sdk-v21.11.00.00\bsp\sifive-hifive1\build\debug/./metal/machine.h:1005
}
20104fea:	853e                	mv	a0,a5
20104fec:	4472                	lw	s0,28(sp)
20104fee:	6105                	add	sp,sp,32
20104ff0:	8082                	ret

20104ff2 <__metal_driver_sifive_uart0_clock>:
__metal_driver_sifive_uart0_clock():
C:\VSD\FreedomStudio-3-1-1-x86_64-w64-mingw32\FreedomStudio-3-1-1\SiFive\freedom-e-sdk-v21.11.00.00\bsp\sifive-hifive1\build\debug/./metal/machine.h:1008
{
20104ff2:	1101                	add	sp,sp,-32
20104ff4:	ce22                	sw	s0,28(sp)
20104ff6:	1000                	add	s0,sp,32
20104ff8:	fea42623          	sw	a0,-20(s0)
C:\VSD\FreedomStudio-3-1-1-x86_64-w64-mingw32\FreedomStudio-3-1-1\SiFive\freedom-e-sdk-v21.11.00.00\bsp\sifive-hifive1\build\debug/./metal/machine.h:1009
	if ((uintptr_t)uart == (uintptr_t)&__metal_dt_serial_10013000) {
20104ffc:	fec42703          	lw	a4,-20(s0)
20105000:	800017b7          	lui	a5,0x80001
20105004:	9d078793          	add	a5,a5,-1584 # 800009d0 <__metal_dt_serial_10013000>
20105008:	00f71763          	bne	a4,a5,20105016 <__metal_driver_sifive_uart0_clock+0x24>
C:\VSD\FreedomStudio-3-1-1-x86_64-w64-mingw32\FreedomStudio-3-1-1\SiFive\freedom-e-sdk-v21.11.00.00\bsp\sifive-hifive1\build\debug/./metal/machine.h:1010
		return (struct metal_clock *)&__metal_dt_clock_4.clock;
2010500c:	800017b7          	lui	a5,0x80001
20105010:	a0878793          	add	a5,a5,-1528 # 80000a08 <__metal_dt_clock_4>
20105014:	a011                	j	20105018 <__metal_driver_sifive_uart0_clock+0x26>
C:\VSD\FreedomStudio-3-1-1-x86_64-w64-mingw32\FreedomStudio-3-1-1\SiFive\freedom-e-sdk-v21.11.00.00\bsp\sifive-hifive1\build\debug/./metal/machine.h:1013
		return 0;
20105016:	4781                	li	a5,0
C:\VSD\FreedomStudio-3-1-1-x86_64-w64-mingw32\FreedomStudio-3-1-1\SiFive\freedom-e-sdk-v21.11.00.00\bsp\sifive-hifive1\build\debug/./metal/machine.h:1015
}
20105018:	853e                	mv	a0,a5
2010501a:	4472                	lw	s0,28(sp)
2010501c:	6105                	add	sp,sp,32
2010501e:	8082                	ret

20105020 <__metal_driver_sifive_uart0_pinmux>:
__metal_driver_sifive_uart0_pinmux():
C:\VSD\FreedomStudio-3-1-1-x86_64-w64-mingw32\FreedomStudio-3-1-1\SiFive\freedom-e-sdk-v21.11.00.00\bsp\sifive-hifive1\build\debug/./metal/machine.h:1018
{
20105020:	1101                	add	sp,sp,-32
20105022:	ce22                	sw	s0,28(sp)
20105024:	1000                	add	s0,sp,32
20105026:	fea42623          	sw	a0,-20(s0)
C:\VSD\FreedomStudio-3-1-1-x86_64-w64-mingw32\FreedomStudio-3-1-1\SiFive\freedom-e-sdk-v21.11.00.00\bsp\sifive-hifive1\build\debug/./metal/machine.h:1019
	if ((uintptr_t)uart == (uintptr_t)&__metal_dt_serial_10013000) {
2010502a:	fec42703          	lw	a4,-20(s0)
2010502e:	800017b7          	lui	a5,0x80001
20105032:	9d078793          	add	a5,a5,-1584 # 800009d0 <__metal_dt_serial_10013000>
20105036:	00f71563          	bne	a4,a5,20105040 <__metal_driver_sifive_uart0_pinmux+0x20>
C:\VSD\FreedomStudio-3-1-1-x86_64-w64-mingw32\FreedomStudio-3-1-1\SiFive\freedom-e-sdk-v21.11.00.00\bsp\sifive-hifive1\build\debug/./metal/machine.h:1020
		return (struct __metal_driver_sifive_gpio0 *)&__metal_dt_gpio_10012000;
2010503a:	81418793          	add	a5,gp,-2028 # 80000a2c <__metal_dt_gpio_10012000>
2010503e:	a011                	j	20105042 <__metal_driver_sifive_uart0_pinmux+0x22>
C:\VSD\FreedomStudio-3-1-1-x86_64-w64-mingw32\FreedomStudio-3-1-1\SiFive\freedom-e-sdk-v21.11.00.00\bsp\sifive-hifive1\build\debug/./metal/machine.h:1023
		return 0;
20105040:	4781                	li	a5,0
C:\VSD\FreedomStudio-3-1-1-x86_64-w64-mingw32\FreedomStudio-3-1-1\SiFive\freedom-e-sdk-v21.11.00.00\bsp\sifive-hifive1\build\debug/./metal/machine.h:1025
}
20105042:	853e                	mv	a0,a5
20105044:	4472                	lw	s0,28(sp)
20105046:	6105                	add	sp,sp,32
20105048:	8082                	ret

2010504a <__metal_driver_sifive_uart0_pinmux_output_selector>:
__metal_driver_sifive_uart0_pinmux_output_selector():
C:\VSD\FreedomStudio-3-1-1-x86_64-w64-mingw32\FreedomStudio-3-1-1\SiFive\freedom-e-sdk-v21.11.00.00\bsp\sifive-hifive1\build\debug/./metal/machine.h:1028
{
2010504a:	1101                	add	sp,sp,-32
2010504c:	ce22                	sw	s0,28(sp)
2010504e:	1000                	add	s0,sp,32
20105050:	fea42623          	sw	a0,-20(s0)
C:\VSD\FreedomStudio-3-1-1-x86_64-w64-mingw32\FreedomStudio-3-1-1\SiFive\freedom-e-sdk-v21.11.00.00\bsp\sifive-hifive1\build\debug/./metal/machine.h:1029
	if ((uintptr_t)uart == (uintptr_t)&__metal_dt_serial_10013000) {
20105054:	fec42703          	lw	a4,-20(s0)
20105058:	800017b7          	lui	a5,0x80001
2010505c:	9d078793          	add	a5,a5,-1584 # 800009d0 <__metal_dt_serial_10013000>
20105060:	00f71463          	bne	a4,a5,20105068 <__metal_driver_sifive_uart0_pinmux_output_selector+0x1e>
C:\VSD\FreedomStudio-3-1-1-x86_64-w64-mingw32\FreedomStudio-3-1-1\SiFive\freedom-e-sdk-v21.11.00.00\bsp\sifive-hifive1\build\debug/./metal/machine.h:1030
		return 0;
20105064:	4781                	li	a5,0
20105066:	a011                	j	2010506a <__metal_driver_sifive_uart0_pinmux_output_selector+0x20>
C:\VSD\FreedomStudio-3-1-1-x86_64-w64-mingw32\FreedomStudio-3-1-1\SiFive\freedom-e-sdk-v21.11.00.00\bsp\sifive-hifive1\build\debug/./metal/machine.h:1033
		return 0;
20105068:	4781                	li	a5,0
C:\VSD\FreedomStudio-3-1-1-x86_64-w64-mingw32\FreedomStudio-3-1-1\SiFive\freedom-e-sdk-v21.11.00.00\bsp\sifive-hifive1\build\debug/./metal/machine.h:1035
}
2010506a:	853e                	mv	a0,a5
2010506c:	4472                	lw	s0,28(sp)
2010506e:	6105                	add	sp,sp,32
20105070:	8082                	ret

20105072 <__metal_driver_sifive_uart0_pinmux_source_selector>:
__metal_driver_sifive_uart0_pinmux_source_selector():
C:\VSD\FreedomStudio-3-1-1-x86_64-w64-mingw32\FreedomStudio-3-1-1\SiFive\freedom-e-sdk-v21.11.00.00\bsp\sifive-hifive1\build\debug/./metal/machine.h:1038
{
20105072:	1101                	add	sp,sp,-32
20105074:	ce22                	sw	s0,28(sp)
20105076:	1000                	add	s0,sp,32
20105078:	fea42623          	sw	a0,-20(s0)
C:\VSD\FreedomStudio-3-1-1-x86_64-w64-mingw32\FreedomStudio-3-1-1\SiFive\freedom-e-sdk-v21.11.00.00\bsp\sifive-hifive1\build\debug/./metal/machine.h:1039
	if ((uintptr_t)uart == (uintptr_t)&__metal_dt_serial_10013000) {
2010507c:	fec42703          	lw	a4,-20(s0)
20105080:	800017b7          	lui	a5,0x80001
20105084:	9d078793          	add	a5,a5,-1584 # 800009d0 <__metal_dt_serial_10013000>
20105088:	00f71563          	bne	a4,a5,20105092 <__metal_driver_sifive_uart0_pinmux_source_selector+0x20>
C:\VSD\FreedomStudio-3-1-1-x86_64-w64-mingw32\FreedomStudio-3-1-1\SiFive\freedom-e-sdk-v21.11.00.00\bsp\sifive-hifive1\build\debug/./metal/machine.h:1040
		return 196608;
2010508c:	000307b7          	lui	a5,0x30
20105090:	a011                	j	20105094 <__metal_driver_sifive_uart0_pinmux_source_selector+0x22>
C:\VSD\FreedomStudio-3-1-1-x86_64-w64-mingw32\FreedomStudio-3-1-1\SiFive\freedom-e-sdk-v21.11.00.00\bsp\sifive-hifive1\build\debug/./metal/machine.h:1043
		return 0;
20105092:	4781                	li	a5,0
C:\VSD\FreedomStudio-3-1-1-x86_64-w64-mingw32\FreedomStudio-3-1-1\SiFive\freedom-e-sdk-v21.11.00.00\bsp\sifive-hifive1\build\debug/./metal/machine.h:1045
}
20105094:	853e                	mv	a0,a5
20105096:	4472                	lw	s0,28(sp)
20105098:	6105                	add	sp,sp,32
2010509a:	8082                	ret

2010509c <__metal_driver_sifive_uart0_interrupt_controller>:
__metal_driver_sifive_uart0_interrupt_controller():
C:/VSD/FreedomStudio-3-1-1-x86_64-w64-mingw32/FreedomStudio-3-1-1/SiFive/freedom-e-sdk-v21.11.00.00/freedom-metal/src/drivers/sifive_uart0.c:37
    (__METAL_ACCESS_ONCE((__metal_io_u8 *)UART_REG(offset)))
#define UART_REGW(offset)                                                      \
    (__METAL_ACCESS_ONCE((__metal_io_u32 *)UART_REG(offset)))

struct metal_interrupt *
__metal_driver_sifive_uart0_interrupt_controller(struct metal_uart *uart) {
2010509c:	1101                	add	sp,sp,-32
2010509e:	ce06                	sw	ra,28(sp)
201050a0:	cc22                	sw	s0,24(sp)
201050a2:	1000                	add	s0,sp,32
201050a4:	fea42623          	sw	a0,-20(s0)
C:/VSD/FreedomStudio-3-1-1-x86_64-w64-mingw32/FreedomStudio-3-1-1/SiFive/freedom-e-sdk-v21.11.00.00/freedom-metal/src/drivers/sifive_uart0.c:38
    return __metal_driver_sifive_uart0_interrupt_parent(uart);
201050a8:	fec42503          	lw	a0,-20(s0)
201050ac:	3dc5                	jal	20104f9c <__metal_driver_sifive_uart0_interrupt_parent>
201050ae:	87aa                	mv	a5,a0
C:/VSD/FreedomStudio-3-1-1-x86_64-w64-mingw32/FreedomStudio-3-1-1/SiFive/freedom-e-sdk-v21.11.00.00/freedom-metal/src/drivers/sifive_uart0.c:39
}
201050b0:	853e                	mv	a0,a5
201050b2:	40f2                	lw	ra,28(sp)
201050b4:	4462                	lw	s0,24(sp)
201050b6:	6105                	add	sp,sp,32
201050b8:	8082                	ret

201050ba <__metal_driver_sifive_uart0_get_interrupt_id>:
__metal_driver_sifive_uart0_get_interrupt_id():
C:/VSD/FreedomStudio-3-1-1-x86_64-w64-mingw32/FreedomStudio-3-1-1/SiFive/freedom-e-sdk-v21.11.00.00/freedom-metal/src/drivers/sifive_uart0.c:41

int __metal_driver_sifive_uart0_get_interrupt_id(struct metal_uart *uart) {
201050ba:	1101                	add	sp,sp,-32
201050bc:	ce06                	sw	ra,28(sp)
201050be:	cc22                	sw	s0,24(sp)
201050c0:	1000                	add	s0,sp,32
201050c2:	fea42623          	sw	a0,-20(s0)
C:/VSD/FreedomStudio-3-1-1-x86_64-w64-mingw32/FreedomStudio-3-1-1/SiFive/freedom-e-sdk-v21.11.00.00/freedom-metal/src/drivers/sifive_uart0.c:42
    return __metal_driver_sifive_uart0_interrupt_line(uart);
201050c6:	fec42503          	lw	a0,-20(s0)
201050ca:	3701                	jal	20104fca <__metal_driver_sifive_uart0_interrupt_line>
201050cc:	87aa                	mv	a5,a0
C:/VSD/FreedomStudio-3-1-1-x86_64-w64-mingw32/FreedomStudio-3-1-1/SiFive/freedom-e-sdk-v21.11.00.00/freedom-metal/src/drivers/sifive_uart0.c:43
}
201050ce:	853e                	mv	a0,a5
201050d0:	40f2                	lw	ra,28(sp)
201050d2:	4462                	lw	s0,24(sp)
201050d4:	6105                	add	sp,sp,32
201050d6:	8082                	ret

201050d8 <__metal_driver_sifive_uart0_tx_interrupt_enable>:
__metal_driver_sifive_uart0_tx_interrupt_enable():
C:/VSD/FreedomStudio-3-1-1-x86_64-w64-mingw32/FreedomStudio-3-1-1/SiFive/freedom-e-sdk-v21.11.00.00/freedom-metal/src/drivers/sifive_uart0.c:45

int __metal_driver_sifive_uart0_tx_interrupt_enable(struct metal_uart *uart) {
201050d8:	7179                	add	sp,sp,-48
201050da:	d606                	sw	ra,44(sp)
201050dc:	d422                	sw	s0,40(sp)
201050de:	1800                	add	s0,sp,48
201050e0:	fca42e23          	sw	a0,-36(s0)
C:/VSD/FreedomStudio-3-1-1-x86_64-w64-mingw32/FreedomStudio-3-1-1/SiFive/freedom-e-sdk-v21.11.00.00/freedom-metal/src/drivers/sifive_uart0.c:46
    long control_base = __metal_driver_sifive_uart0_control_base(uart);
201050e4:	fdc42503          	lw	a0,-36(s0)
201050e8:	3569                	jal	20104f72 <__metal_driver_sifive_uart0_control_base>
201050ea:	87aa                	mv	a5,a0
C:/VSD/FreedomStudio-3-1-1-x86_64-w64-mingw32/FreedomStudio-3-1-1/SiFive/freedom-e-sdk-v21.11.00.00/freedom-metal/src/drivers/sifive_uart0.c:46 (discriminator 1)
201050ec:	fef42623          	sw	a5,-20(s0)
C:/VSD/FreedomStudio-3-1-1-x86_64-w64-mingw32/FreedomStudio-3-1-1/SiFive/freedom-e-sdk-v21.11.00.00/freedom-metal/src/drivers/sifive_uart0.c:48

    UART_REGW(METAL_SIFIVE_UART0_IE) |= UART_TXWM;
201050f0:	fec42783          	lw	a5,-20(s0)
201050f4:	07c1                	add	a5,a5,16 # 30010 <__heap_size+0x2f810>
201050f6:	439c                	lw	a5,0(a5)
201050f8:	fec42703          	lw	a4,-20(s0)
201050fc:	0741                	add	a4,a4,16
201050fe:	0017e793          	or	a5,a5,1
20105102:	c31c                	sw	a5,0(a4)
C:/VSD/FreedomStudio-3-1-1-x86_64-w64-mingw32/FreedomStudio-3-1-1/SiFive/freedom-e-sdk-v21.11.00.00/freedom-metal/src/drivers/sifive_uart0.c:49
    return 0;
20105104:	4781                	li	a5,0
C:/VSD/FreedomStudio-3-1-1-x86_64-w64-mingw32/FreedomStudio-3-1-1/SiFive/freedom-e-sdk-v21.11.00.00/freedom-metal/src/drivers/sifive_uart0.c:50
}
20105106:	853e                	mv	a0,a5
20105108:	50b2                	lw	ra,44(sp)
2010510a:	5422                	lw	s0,40(sp)
2010510c:	6145                	add	sp,sp,48
2010510e:	8082                	ret

20105110 <__metal_driver_sifive_uart0_tx_interrupt_disable>:
__metal_driver_sifive_uart0_tx_interrupt_disable():
C:/VSD/FreedomStudio-3-1-1-x86_64-w64-mingw32/FreedomStudio-3-1-1/SiFive/freedom-e-sdk-v21.11.00.00/freedom-metal/src/drivers/sifive_uart0.c:52

int __metal_driver_sifive_uart0_tx_interrupt_disable(struct metal_uart *uart) {
20105110:	7179                	add	sp,sp,-48
20105112:	d606                	sw	ra,44(sp)
20105114:	d422                	sw	s0,40(sp)
20105116:	1800                	add	s0,sp,48
20105118:	fca42e23          	sw	a0,-36(s0)
C:/VSD/FreedomStudio-3-1-1-x86_64-w64-mingw32/FreedomStudio-3-1-1/SiFive/freedom-e-sdk-v21.11.00.00/freedom-metal/src/drivers/sifive_uart0.c:53
    long control_base = __metal_driver_sifive_uart0_control_base(uart);
2010511c:	fdc42503          	lw	a0,-36(s0)
20105120:	3d89                	jal	20104f72 <__metal_driver_sifive_uart0_control_base>
20105122:	87aa                	mv	a5,a0
C:/VSD/FreedomStudio-3-1-1-x86_64-w64-mingw32/FreedomStudio-3-1-1/SiFive/freedom-e-sdk-v21.11.00.00/freedom-metal/src/drivers/sifive_uart0.c:53 (discriminator 1)
20105124:	fef42623          	sw	a5,-20(s0)
C:/VSD/FreedomStudio-3-1-1-x86_64-w64-mingw32/FreedomStudio-3-1-1/SiFive/freedom-e-sdk-v21.11.00.00/freedom-metal/src/drivers/sifive_uart0.c:55

    UART_REGW(METAL_SIFIVE_UART0_IE) &= ~UART_TXWM;
20105128:	fec42783          	lw	a5,-20(s0)
2010512c:	07c1                	add	a5,a5,16
2010512e:	439c                	lw	a5,0(a5)
20105130:	fec42703          	lw	a4,-20(s0)
20105134:	0741                	add	a4,a4,16
20105136:	9bf9                	and	a5,a5,-2
20105138:	c31c                	sw	a5,0(a4)
C:/VSD/FreedomStudio-3-1-1-x86_64-w64-mingw32/FreedomStudio-3-1-1/SiFive/freedom-e-sdk-v21.11.00.00/freedom-metal/src/drivers/sifive_uart0.c:56
    return 0;
2010513a:	4781                	li	a5,0
C:/VSD/FreedomStudio-3-1-1-x86_64-w64-mingw32/FreedomStudio-3-1-1/SiFive/freedom-e-sdk-v21.11.00.00/freedom-metal/src/drivers/sifive_uart0.c:57
}
2010513c:	853e                	mv	a0,a5
2010513e:	50b2                	lw	ra,44(sp)
20105140:	5422                	lw	s0,40(sp)
20105142:	6145                	add	sp,sp,48
20105144:	8082                	ret

20105146 <__metal_driver_sifive_uart0_rx_interrupt_enable>:
__metal_driver_sifive_uart0_rx_interrupt_enable():
C:/VSD/FreedomStudio-3-1-1-x86_64-w64-mingw32/FreedomStudio-3-1-1/SiFive/freedom-e-sdk-v21.11.00.00/freedom-metal/src/drivers/sifive_uart0.c:59

int __metal_driver_sifive_uart0_rx_interrupt_enable(struct metal_uart *uart) {
20105146:	7179                	add	sp,sp,-48
20105148:	d606                	sw	ra,44(sp)
2010514a:	d422                	sw	s0,40(sp)
2010514c:	1800                	add	s0,sp,48
2010514e:	fca42e23          	sw	a0,-36(s0)
C:/VSD/FreedomStudio-3-1-1-x86_64-w64-mingw32/FreedomStudio-3-1-1/SiFive/freedom-e-sdk-v21.11.00.00/freedom-metal/src/drivers/sifive_uart0.c:60
    long control_base = __metal_driver_sifive_uart0_control_base(uart);
20105152:	fdc42503          	lw	a0,-36(s0)
20105156:	3d31                	jal	20104f72 <__metal_driver_sifive_uart0_control_base>
20105158:	87aa                	mv	a5,a0
C:/VSD/FreedomStudio-3-1-1-x86_64-w64-mingw32/FreedomStudio-3-1-1/SiFive/freedom-e-sdk-v21.11.00.00/freedom-metal/src/drivers/sifive_uart0.c:60 (discriminator 1)
2010515a:	fef42623          	sw	a5,-20(s0)
C:/VSD/FreedomStudio-3-1-1-x86_64-w64-mingw32/FreedomStudio-3-1-1/SiFive/freedom-e-sdk-v21.11.00.00/freedom-metal/src/drivers/sifive_uart0.c:62

    UART_REGW(METAL_SIFIVE_UART0_IE) |= UART_RXWM;
2010515e:	fec42783          	lw	a5,-20(s0)
20105162:	07c1                	add	a5,a5,16
20105164:	439c                	lw	a5,0(a5)
20105166:	fec42703          	lw	a4,-20(s0)
2010516a:	0741                	add	a4,a4,16
2010516c:	0027e793          	or	a5,a5,2
20105170:	c31c                	sw	a5,0(a4)
C:/VSD/FreedomStudio-3-1-1-x86_64-w64-mingw32/FreedomStudio-3-1-1/SiFive/freedom-e-sdk-v21.11.00.00/freedom-metal/src/drivers/sifive_uart0.c:63
    return 0;
20105172:	4781                	li	a5,0
C:/VSD/FreedomStudio-3-1-1-x86_64-w64-mingw32/FreedomStudio-3-1-1/SiFive/freedom-e-sdk-v21.11.00.00/freedom-metal/src/drivers/sifive_uart0.c:64
}
20105174:	853e                	mv	a0,a5
20105176:	50b2                	lw	ra,44(sp)
20105178:	5422                	lw	s0,40(sp)
2010517a:	6145                	add	sp,sp,48
2010517c:	8082                	ret

2010517e <__metal_driver_sifive_uart0_rx_interrupt_disable>:
__metal_driver_sifive_uart0_rx_interrupt_disable():
C:/VSD/FreedomStudio-3-1-1-x86_64-w64-mingw32/FreedomStudio-3-1-1/SiFive/freedom-e-sdk-v21.11.00.00/freedom-metal/src/drivers/sifive_uart0.c:66

int __metal_driver_sifive_uart0_rx_interrupt_disable(struct metal_uart *uart) {
2010517e:	7179                	add	sp,sp,-48
20105180:	d606                	sw	ra,44(sp)
20105182:	d422                	sw	s0,40(sp)
20105184:	1800                	add	s0,sp,48
20105186:	fca42e23          	sw	a0,-36(s0)
C:/VSD/FreedomStudio-3-1-1-x86_64-w64-mingw32/FreedomStudio-3-1-1/SiFive/freedom-e-sdk-v21.11.00.00/freedom-metal/src/drivers/sifive_uart0.c:67
    long control_base = __metal_driver_sifive_uart0_control_base(uart);
2010518a:	fdc42503          	lw	a0,-36(s0)
2010518e:	33d5                	jal	20104f72 <__metal_driver_sifive_uart0_control_base>
20105190:	87aa                	mv	a5,a0
C:/VSD/FreedomStudio-3-1-1-x86_64-w64-mingw32/FreedomStudio-3-1-1/SiFive/freedom-e-sdk-v21.11.00.00/freedom-metal/src/drivers/sifive_uart0.c:67 (discriminator 1)
20105192:	fef42623          	sw	a5,-20(s0)
C:/VSD/FreedomStudio-3-1-1-x86_64-w64-mingw32/FreedomStudio-3-1-1/SiFive/freedom-e-sdk-v21.11.00.00/freedom-metal/src/drivers/sifive_uart0.c:69

    UART_REGW(METAL_SIFIVE_UART0_IE) &= ~UART_RXWM;
20105196:	fec42783          	lw	a5,-20(s0)
2010519a:	07c1                	add	a5,a5,16
2010519c:	439c                	lw	a5,0(a5)
2010519e:	fec42703          	lw	a4,-20(s0)
201051a2:	0741                	add	a4,a4,16
201051a4:	9bf5                	and	a5,a5,-3
201051a6:	c31c                	sw	a5,0(a4)
C:/VSD/FreedomStudio-3-1-1-x86_64-w64-mingw32/FreedomStudio-3-1-1/SiFive/freedom-e-sdk-v21.11.00.00/freedom-metal/src/drivers/sifive_uart0.c:70
    return 0;
201051a8:	4781                	li	a5,0
C:/VSD/FreedomStudio-3-1-1-x86_64-w64-mingw32/FreedomStudio-3-1-1/SiFive/freedom-e-sdk-v21.11.00.00/freedom-metal/src/drivers/sifive_uart0.c:71
}
201051aa:	853e                	mv	a0,a5
201051ac:	50b2                	lw	ra,44(sp)
201051ae:	5422                	lw	s0,40(sp)
201051b0:	6145                	add	sp,sp,48
201051b2:	8082                	ret

201051b4 <__metal_driver_sifive_uart0_txready>:
__metal_driver_sifive_uart0_txready():
C:/VSD/FreedomStudio-3-1-1-x86_64-w64-mingw32/FreedomStudio-3-1-1/SiFive/freedom-e-sdk-v21.11.00.00/freedom-metal/src/drivers/sifive_uart0.c:73

int __metal_driver_sifive_uart0_txready(struct metal_uart *uart) {
201051b4:	7179                	add	sp,sp,-48
201051b6:	d606                	sw	ra,44(sp)
201051b8:	d422                	sw	s0,40(sp)
201051ba:	1800                	add	s0,sp,48
201051bc:	fca42e23          	sw	a0,-36(s0)
C:/VSD/FreedomStudio-3-1-1-x86_64-w64-mingw32/FreedomStudio-3-1-1/SiFive/freedom-e-sdk-v21.11.00.00/freedom-metal/src/drivers/sifive_uart0.c:74
    long control_base = __metal_driver_sifive_uart0_control_base(uart);
201051c0:	fdc42503          	lw	a0,-36(s0)
201051c4:	337d                	jal	20104f72 <__metal_driver_sifive_uart0_control_base>
201051c6:	87aa                	mv	a5,a0
C:/VSD/FreedomStudio-3-1-1-x86_64-w64-mingw32/FreedomStudio-3-1-1/SiFive/freedom-e-sdk-v21.11.00.00/freedom-metal/src/drivers/sifive_uart0.c:74 (discriminator 1)
201051c8:	fef42623          	sw	a5,-20(s0)
C:/VSD/FreedomStudio-3-1-1-x86_64-w64-mingw32/FreedomStudio-3-1-1/SiFive/freedom-e-sdk-v21.11.00.00/freedom-metal/src/drivers/sifive_uart0.c:76

    return !!((UART_REGW(METAL_SIFIVE_UART0_TXDATA) & UART_TXFULL));
201051cc:	fec42783          	lw	a5,-20(s0)
201051d0:	439c                	lw	a5,0(a5)
201051d2:	83fd                	srl	a5,a5,0x1f
201051d4:	0ff7f793          	zext.b	a5,a5
C:/VSD/FreedomStudio-3-1-1-x86_64-w64-mingw32/FreedomStudio-3-1-1/SiFive/freedom-e-sdk-v21.11.00.00/freedom-metal/src/drivers/sifive_uart0.c:77
}
201051d8:	853e                	mv	a0,a5
201051da:	50b2                	lw	ra,44(sp)
201051dc:	5422                	lw	s0,40(sp)
201051de:	6145                	add	sp,sp,48
201051e0:	8082                	ret

201051e2 <__metal_driver_sifive_uart0_set_tx_watermark>:
__metal_driver_sifive_uart0_set_tx_watermark():
C:/VSD/FreedomStudio-3-1-1-x86_64-w64-mingw32/FreedomStudio-3-1-1/SiFive/freedom-e-sdk-v21.11.00.00/freedom-metal/src/drivers/sifive_uart0.c:80

int __metal_driver_sifive_uart0_set_tx_watermark(struct metal_uart *uart,
                                                 size_t level) {
201051e2:	7179                	add	sp,sp,-48
201051e4:	d606                	sw	ra,44(sp)
201051e6:	d422                	sw	s0,40(sp)
201051e8:	1800                	add	s0,sp,48
201051ea:	fca42e23          	sw	a0,-36(s0)
201051ee:	fcb42c23          	sw	a1,-40(s0)
C:/VSD/FreedomStudio-3-1-1-x86_64-w64-mingw32/FreedomStudio-3-1-1/SiFive/freedom-e-sdk-v21.11.00.00/freedom-metal/src/drivers/sifive_uart0.c:81
    long control_base = __metal_driver_sifive_uart0_control_base(uart);
201051f2:	fdc42503          	lw	a0,-36(s0)
201051f6:	3bb5                	jal	20104f72 <__metal_driver_sifive_uart0_control_base>
201051f8:	87aa                	mv	a5,a0
C:/VSD/FreedomStudio-3-1-1-x86_64-w64-mingw32/FreedomStudio-3-1-1/SiFive/freedom-e-sdk-v21.11.00.00/freedom-metal/src/drivers/sifive_uart0.c:81 (discriminator 1)
201051fa:	fef42623          	sw	a5,-20(s0)
C:/VSD/FreedomStudio-3-1-1-x86_64-w64-mingw32/FreedomStudio-3-1-1/SiFive/freedom-e-sdk-v21.11.00.00/freedom-metal/src/drivers/sifive_uart0.c:83

    UART_REGW(METAL_SIFIVE_UART0_TXCTRL) |= UART_TXCNT(level);
201051fe:	fec42783          	lw	a5,-20(s0)
20105202:	07a1                	add	a5,a5,8
20105204:	4398                	lw	a4,0(a5)
20105206:	fd842783          	lw	a5,-40(s0)
2010520a:	01079693          	sll	a3,a5,0x10
2010520e:	000707b7          	lui	a5,0x70
20105212:	8ff5                	and	a5,a5,a3
20105214:	fec42683          	lw	a3,-20(s0)
20105218:	06a1                	add	a3,a3,8
2010521a:	8fd9                	or	a5,a5,a4
2010521c:	c29c                	sw	a5,0(a3)
C:/VSD/FreedomStudio-3-1-1-x86_64-w64-mingw32/FreedomStudio-3-1-1/SiFive/freedom-e-sdk-v21.11.00.00/freedom-metal/src/drivers/sifive_uart0.c:84
    return 0;
2010521e:	4781                	li	a5,0
C:/VSD/FreedomStudio-3-1-1-x86_64-w64-mingw32/FreedomStudio-3-1-1/SiFive/freedom-e-sdk-v21.11.00.00/freedom-metal/src/drivers/sifive_uart0.c:85
}
20105220:	853e                	mv	a0,a5
20105222:	50b2                	lw	ra,44(sp)
20105224:	5422                	lw	s0,40(sp)
20105226:	6145                	add	sp,sp,48
20105228:	8082                	ret

2010522a <__metal_driver_sifive_uart0_get_tx_watermark>:
__metal_driver_sifive_uart0_get_tx_watermark():
C:/VSD/FreedomStudio-3-1-1-x86_64-w64-mingw32/FreedomStudio-3-1-1/SiFive/freedom-e-sdk-v21.11.00.00/freedom-metal/src/drivers/sifive_uart0.c:87

size_t __metal_driver_sifive_uart0_get_tx_watermark(struct metal_uart *uart) {
2010522a:	7179                	add	sp,sp,-48
2010522c:	d606                	sw	ra,44(sp)
2010522e:	d422                	sw	s0,40(sp)
20105230:	1800                	add	s0,sp,48
20105232:	fca42e23          	sw	a0,-36(s0)
C:/VSD/FreedomStudio-3-1-1-x86_64-w64-mingw32/FreedomStudio-3-1-1/SiFive/freedom-e-sdk-v21.11.00.00/freedom-metal/src/drivers/sifive_uart0.c:88
    long control_base = __metal_driver_sifive_uart0_control_base(uart);
20105236:	fdc42503          	lw	a0,-36(s0)
2010523a:	3b25                	jal	20104f72 <__metal_driver_sifive_uart0_control_base>
2010523c:	87aa                	mv	a5,a0
C:/VSD/FreedomStudio-3-1-1-x86_64-w64-mingw32/FreedomStudio-3-1-1/SiFive/freedom-e-sdk-v21.11.00.00/freedom-metal/src/drivers/sifive_uart0.c:88 (discriminator 1)
2010523e:	fef42623          	sw	a5,-20(s0)
C:/VSD/FreedomStudio-3-1-1-x86_64-w64-mingw32/FreedomStudio-3-1-1/SiFive/freedom-e-sdk-v21.11.00.00/freedom-metal/src/drivers/sifive_uart0.c:90

    return ((UART_REGW(METAL_SIFIVE_UART0_TXCTRL) >> 16) & 0x7);
20105242:	fec42783          	lw	a5,-20(s0)
20105246:	07a1                	add	a5,a5,8 # 70008 <__heap_size+0x6f808>
20105248:	439c                	lw	a5,0(a5)
2010524a:	83c1                	srl	a5,a5,0x10
2010524c:	8b9d                	and	a5,a5,7
C:/VSD/FreedomStudio-3-1-1-x86_64-w64-mingw32/FreedomStudio-3-1-1/SiFive/freedom-e-sdk-v21.11.00.00/freedom-metal/src/drivers/sifive_uart0.c:91
}
2010524e:	853e                	mv	a0,a5
20105250:	50b2                	lw	ra,44(sp)
20105252:	5422                	lw	s0,40(sp)
20105254:	6145                	add	sp,sp,48
20105256:	8082                	ret

20105258 <__metal_driver_sifive_uart0_set_rx_watermark>:
__metal_driver_sifive_uart0_set_rx_watermark():
C:/VSD/FreedomStudio-3-1-1-x86_64-w64-mingw32/FreedomStudio-3-1-1/SiFive/freedom-e-sdk-v21.11.00.00/freedom-metal/src/drivers/sifive_uart0.c:94

int __metal_driver_sifive_uart0_set_rx_watermark(struct metal_uart *uart,
                                                 size_t level) {
20105258:	7179                	add	sp,sp,-48
2010525a:	d606                	sw	ra,44(sp)
2010525c:	d422                	sw	s0,40(sp)
2010525e:	1800                	add	s0,sp,48
20105260:	fca42e23          	sw	a0,-36(s0)
20105264:	fcb42c23          	sw	a1,-40(s0)
C:/VSD/FreedomStudio-3-1-1-x86_64-w64-mingw32/FreedomStudio-3-1-1/SiFive/freedom-e-sdk-v21.11.00.00/freedom-metal/src/drivers/sifive_uart0.c:95
    long control_base = __metal_driver_sifive_uart0_control_base(uart);
20105268:	fdc42503          	lw	a0,-36(s0)
2010526c:	d07ff0ef          	jal	20104f72 <__metal_driver_sifive_uart0_control_base>
20105270:	87aa                	mv	a5,a0
C:/VSD/FreedomStudio-3-1-1-x86_64-w64-mingw32/FreedomStudio-3-1-1/SiFive/freedom-e-sdk-v21.11.00.00/freedom-metal/src/drivers/sifive_uart0.c:95 (discriminator 1)
20105272:	fef42623          	sw	a5,-20(s0)
C:/VSD/FreedomStudio-3-1-1-x86_64-w64-mingw32/FreedomStudio-3-1-1/SiFive/freedom-e-sdk-v21.11.00.00/freedom-metal/src/drivers/sifive_uart0.c:97

    UART_REGW(METAL_SIFIVE_UART0_RXCTRL) |= UART_RXCNT(level);
20105276:	fec42783          	lw	a5,-20(s0)
2010527a:	07b1                	add	a5,a5,12
2010527c:	4398                	lw	a4,0(a5)
2010527e:	fd842783          	lw	a5,-40(s0)
20105282:	01079693          	sll	a3,a5,0x10
20105286:	000707b7          	lui	a5,0x70
2010528a:	8ff5                	and	a5,a5,a3
2010528c:	fec42683          	lw	a3,-20(s0)
20105290:	06b1                	add	a3,a3,12
20105292:	8fd9                	or	a5,a5,a4
20105294:	c29c                	sw	a5,0(a3)
C:/VSD/FreedomStudio-3-1-1-x86_64-w64-mingw32/FreedomStudio-3-1-1/SiFive/freedom-e-sdk-v21.11.00.00/freedom-metal/src/drivers/sifive_uart0.c:98
    return 0;
20105296:	4781                	li	a5,0
C:/VSD/FreedomStudio-3-1-1-x86_64-w64-mingw32/FreedomStudio-3-1-1/SiFive/freedom-e-sdk-v21.11.00.00/freedom-metal/src/drivers/sifive_uart0.c:99
}
20105298:	853e                	mv	a0,a5
2010529a:	50b2                	lw	ra,44(sp)
2010529c:	5422                	lw	s0,40(sp)
2010529e:	6145                	add	sp,sp,48
201052a0:	8082                	ret

201052a2 <__metal_driver_sifive_uart0_get_rx_watermark>:
__metal_driver_sifive_uart0_get_rx_watermark():
C:/VSD/FreedomStudio-3-1-1-x86_64-w64-mingw32/FreedomStudio-3-1-1/SiFive/freedom-e-sdk-v21.11.00.00/freedom-metal/src/drivers/sifive_uart0.c:101

size_t __metal_driver_sifive_uart0_get_rx_watermark(struct metal_uart *uart) {
201052a2:	7179                	add	sp,sp,-48
201052a4:	d606                	sw	ra,44(sp)
201052a6:	d422                	sw	s0,40(sp)
201052a8:	1800                	add	s0,sp,48
201052aa:	fca42e23          	sw	a0,-36(s0)
C:/VSD/FreedomStudio-3-1-1-x86_64-w64-mingw32/FreedomStudio-3-1-1/SiFive/freedom-e-sdk-v21.11.00.00/freedom-metal/src/drivers/sifive_uart0.c:102
    long control_base = __metal_driver_sifive_uart0_control_base(uart);
201052ae:	fdc42503          	lw	a0,-36(s0)
201052b2:	cc1ff0ef          	jal	20104f72 <__metal_driver_sifive_uart0_control_base>
201052b6:	87aa                	mv	a5,a0
C:/VSD/FreedomStudio-3-1-1-x86_64-w64-mingw32/FreedomStudio-3-1-1/SiFive/freedom-e-sdk-v21.11.00.00/freedom-metal/src/drivers/sifive_uart0.c:102 (discriminator 1)
201052b8:	fef42623          	sw	a5,-20(s0)
C:/VSD/FreedomStudio-3-1-1-x86_64-w64-mingw32/FreedomStudio-3-1-1/SiFive/freedom-e-sdk-v21.11.00.00/freedom-metal/src/drivers/sifive_uart0.c:104

    return ((UART_REGW(METAL_SIFIVE_UART0_RXCTRL) >> 16) & 0x7);
201052bc:	fec42783          	lw	a5,-20(s0)
201052c0:	07b1                	add	a5,a5,12 # 7000c <__heap_size+0x6f80c>
201052c2:	439c                	lw	a5,0(a5)
201052c4:	83c1                	srl	a5,a5,0x10
201052c6:	8b9d                	and	a5,a5,7
C:/VSD/FreedomStudio-3-1-1-x86_64-w64-mingw32/FreedomStudio-3-1-1/SiFive/freedom-e-sdk-v21.11.00.00/freedom-metal/src/drivers/sifive_uart0.c:105
}
201052c8:	853e                	mv	a0,a5
201052ca:	50b2                	lw	ra,44(sp)
201052cc:	5422                	lw	s0,40(sp)
201052ce:	6145                	add	sp,sp,48
201052d0:	8082                	ret

201052d2 <__metal_driver_sifive_uart0_putc>:
__metal_driver_sifive_uart0_putc():
C:/VSD/FreedomStudio-3-1-1-x86_64-w64-mingw32/FreedomStudio-3-1-1/SiFive/freedom-e-sdk-v21.11.00.00/freedom-metal/src/drivers/sifive_uart0.c:107

int __metal_driver_sifive_uart0_putc(struct metal_uart *uart, int c) {
201052d2:	7179                	add	sp,sp,-48
201052d4:	d606                	sw	ra,44(sp)
201052d6:	d422                	sw	s0,40(sp)
201052d8:	1800                	add	s0,sp,48
201052da:	fca42e23          	sw	a0,-36(s0)
201052de:	fcb42c23          	sw	a1,-40(s0)
C:/VSD/FreedomStudio-3-1-1-x86_64-w64-mingw32/FreedomStudio-3-1-1/SiFive/freedom-e-sdk-v21.11.00.00/freedom-metal/src/drivers/sifive_uart0.c:108
    long control_base = __metal_driver_sifive_uart0_control_base(uart);
201052e2:	fdc42503          	lw	a0,-36(s0)
201052e6:	c8dff0ef          	jal	20104f72 <__metal_driver_sifive_uart0_control_base>
201052ea:	87aa                	mv	a5,a0
C:/VSD/FreedomStudio-3-1-1-x86_64-w64-mingw32/FreedomStudio-3-1-1/SiFive/freedom-e-sdk-v21.11.00.00/freedom-metal/src/drivers/sifive_uart0.c:108 (discriminator 1)
201052ec:	fef42623          	sw	a5,-20(s0)
C:/VSD/FreedomStudio-3-1-1-x86_64-w64-mingw32/FreedomStudio-3-1-1/SiFive/freedom-e-sdk-v21.11.00.00/freedom-metal/src/drivers/sifive_uart0.c:110

    while (__metal_driver_sifive_uart0_txready(uart) != 0) {
201052f0:	0001                	nop
C:/VSD/FreedomStudio-3-1-1-x86_64-w64-mingw32/FreedomStudio-3-1-1/SiFive/freedom-e-sdk-v21.11.00.00/freedom-metal/src/drivers/sifive_uart0.c:110 (discriminator 1)
201052f2:	fdc42503          	lw	a0,-36(s0)
201052f6:	3d7d                	jal	201051b4 <__metal_driver_sifive_uart0_txready>
201052f8:	87aa                	mv	a5,a0
201052fa:	ffe5                	bnez	a5,201052f2 <__metal_driver_sifive_uart0_putc+0x20>
C:/VSD/FreedomStudio-3-1-1-x86_64-w64-mingw32/FreedomStudio-3-1-1/SiFive/freedom-e-sdk-v21.11.00.00/freedom-metal/src/drivers/sifive_uart0.c:113
        /* wait */
    }
    UART_REGW(METAL_SIFIVE_UART0_TXDATA) = c;
201052fc:	fec42783          	lw	a5,-20(s0)
20105300:	fd842703          	lw	a4,-40(s0)
20105304:	c398                	sw	a4,0(a5)
C:/VSD/FreedomStudio-3-1-1-x86_64-w64-mingw32/FreedomStudio-3-1-1/SiFive/freedom-e-sdk-v21.11.00.00/freedom-metal/src/drivers/sifive_uart0.c:114
    return 0;
20105306:	4781                	li	a5,0
C:/VSD/FreedomStudio-3-1-1-x86_64-w64-mingw32/FreedomStudio-3-1-1/SiFive/freedom-e-sdk-v21.11.00.00/freedom-metal/src/drivers/sifive_uart0.c:115
}
20105308:	853e                	mv	a0,a5
2010530a:	50b2                	lw	ra,44(sp)
2010530c:	5422                	lw	s0,40(sp)
2010530e:	6145                	add	sp,sp,48
20105310:	8082                	ret

20105312 <__metal_driver_sifive_uart0_getc>:
__metal_driver_sifive_uart0_getc():
C:/VSD/FreedomStudio-3-1-1-x86_64-w64-mingw32/FreedomStudio-3-1-1/SiFive/freedom-e-sdk-v21.11.00.00/freedom-metal/src/drivers/sifive_uart0.c:117

int __metal_driver_sifive_uart0_getc(struct metal_uart *uart, int *c) {
20105312:	7179                	add	sp,sp,-48
20105314:	d606                	sw	ra,44(sp)
20105316:	d422                	sw	s0,40(sp)
20105318:	1800                	add	s0,sp,48
2010531a:	fca42e23          	sw	a0,-36(s0)
2010531e:	fcb42c23          	sw	a1,-40(s0)
C:/VSD/FreedomStudio-3-1-1-x86_64-w64-mingw32/FreedomStudio-3-1-1/SiFive/freedom-e-sdk-v21.11.00.00/freedom-metal/src/drivers/sifive_uart0.c:119
    uint32_t ch;
    long control_base = __metal_driver_sifive_uart0_control_base(uart);
20105322:	fdc42503          	lw	a0,-36(s0)
20105326:	c4dff0ef          	jal	20104f72 <__metal_driver_sifive_uart0_control_base>
2010532a:	87aa                	mv	a5,a0
C:/VSD/FreedomStudio-3-1-1-x86_64-w64-mingw32/FreedomStudio-3-1-1/SiFive/freedom-e-sdk-v21.11.00.00/freedom-metal/src/drivers/sifive_uart0.c:119 (discriminator 1)
2010532c:	fef42623          	sw	a5,-20(s0)
C:/VSD/FreedomStudio-3-1-1-x86_64-w64-mingw32/FreedomStudio-3-1-1/SiFive/freedom-e-sdk-v21.11.00.00/freedom-metal/src/drivers/sifive_uart0.c:121
    /* No seperate status register, we get status and the byte at same time */
    ch = UART_REGW(METAL_SIFIVE_UART0_RXDATA);
20105330:	fec42783          	lw	a5,-20(s0)
20105334:	0791                	add	a5,a5,4
20105336:	439c                	lw	a5,0(a5)
20105338:	fef42423          	sw	a5,-24(s0)
C:/VSD/FreedomStudio-3-1-1-x86_64-w64-mingw32/FreedomStudio-3-1-1/SiFive/freedom-e-sdk-v21.11.00.00/freedom-metal/src/drivers/sifive_uart0.c:123
    ;
    if (ch & UART_RXEMPTY) {
2010533c:	fe842783          	lw	a5,-24(s0)
20105340:	0007d763          	bgez	a5,2010534e <__metal_driver_sifive_uart0_getc+0x3c>
C:/VSD/FreedomStudio-3-1-1-x86_64-w64-mingw32/FreedomStudio-3-1-1/SiFive/freedom-e-sdk-v21.11.00.00/freedom-metal/src/drivers/sifive_uart0.c:124
        *c = -1; /* aka: EOF in most of the world */
20105344:	fd842783          	lw	a5,-40(s0)
20105348:	577d                	li	a4,-1
2010534a:	c398                	sw	a4,0(a5)
2010534c:	a801                	j	2010535c <__metal_driver_sifive_uart0_getc+0x4a>
C:/VSD/FreedomStudio-3-1-1-x86_64-w64-mingw32/FreedomStudio-3-1-1/SiFive/freedom-e-sdk-v21.11.00.00/freedom-metal/src/drivers/sifive_uart0.c:126
    } else {
        *c = ch & 0x0ff;
2010534e:	fe842783          	lw	a5,-24(s0)
20105352:	0ff7f713          	zext.b	a4,a5
20105356:	fd842783          	lw	a5,-40(s0)
2010535a:	c398                	sw	a4,0(a5)
C:/VSD/FreedomStudio-3-1-1-x86_64-w64-mingw32/FreedomStudio-3-1-1/SiFive/freedom-e-sdk-v21.11.00.00/freedom-metal/src/drivers/sifive_uart0.c:128
    }
    return 0;
2010535c:	4781                	li	a5,0
C:/VSD/FreedomStudio-3-1-1-x86_64-w64-mingw32/FreedomStudio-3-1-1/SiFive/freedom-e-sdk-v21.11.00.00/freedom-metal/src/drivers/sifive_uart0.c:129
}
2010535e:	853e                	mv	a0,a5
20105360:	50b2                	lw	ra,44(sp)
20105362:	5422                	lw	s0,40(sp)
20105364:	6145                	add	sp,sp,48
20105366:	8082                	ret

20105368 <__metal_driver_sifive_uart0_get_baud_rate>:
__metal_driver_sifive_uart0_get_baud_rate():
C:/VSD/FreedomStudio-3-1-1-x86_64-w64-mingw32/FreedomStudio-3-1-1/SiFive/freedom-e-sdk-v21.11.00.00/freedom-metal/src/drivers/sifive_uart0.c:131

int __metal_driver_sifive_uart0_get_baud_rate(struct metal_uart *guart) {
20105368:	7179                	add	sp,sp,-48
2010536a:	d622                	sw	s0,44(sp)
2010536c:	1800                	add	s0,sp,48
2010536e:	fca42e23          	sw	a0,-36(s0)
C:/VSD/FreedomStudio-3-1-1-x86_64-w64-mingw32/FreedomStudio-3-1-1/SiFive/freedom-e-sdk-v21.11.00.00/freedom-metal/src/drivers/sifive_uart0.c:132
    struct __metal_driver_sifive_uart0 *uart = (void *)guart;
20105372:	fdc42783          	lw	a5,-36(s0)
20105376:	fef42623          	sw	a5,-20(s0)
C:/VSD/FreedomStudio-3-1-1-x86_64-w64-mingw32/FreedomStudio-3-1-1/SiFive/freedom-e-sdk-v21.11.00.00/freedom-metal/src/drivers/sifive_uart0.c:133
    return uart->baud_rate;
2010537a:	fec42783          	lw	a5,-20(s0)
2010537e:	43dc                	lw	a5,4(a5)
C:/VSD/FreedomStudio-3-1-1-x86_64-w64-mingw32/FreedomStudio-3-1-1/SiFive/freedom-e-sdk-v21.11.00.00/freedom-metal/src/drivers/sifive_uart0.c:134
}
20105380:	853e                	mv	a0,a5
20105382:	5432                	lw	s0,44(sp)
20105384:	6145                	add	sp,sp,48
20105386:	8082                	ret

20105388 <__metal_driver_sifive_uart0_set_baud_rate>:
__metal_driver_sifive_uart0_set_baud_rate():
C:/VSD/FreedomStudio-3-1-1-x86_64-w64-mingw32/FreedomStudio-3-1-1/SiFive/freedom-e-sdk-v21.11.00.00/freedom-metal/src/drivers/sifive_uart0.c:137

int __metal_driver_sifive_uart0_set_baud_rate(struct metal_uart *guart,
                                              int baud_rate) {
20105388:	7179                	add	sp,sp,-48
2010538a:	d606                	sw	ra,44(sp)
2010538c:	d422                	sw	s0,40(sp)
2010538e:	1800                	add	s0,sp,48
20105390:	fca42e23          	sw	a0,-36(s0)
20105394:	fcb42c23          	sw	a1,-40(s0)
C:/VSD/FreedomStudio-3-1-1-x86_64-w64-mingw32/FreedomStudio-3-1-1/SiFive/freedom-e-sdk-v21.11.00.00/freedom-metal/src/drivers/sifive_uart0.c:138
    struct __metal_driver_sifive_uart0 *uart = (void *)guart;
20105398:	fdc42783          	lw	a5,-36(s0)
2010539c:	fef42623          	sw	a5,-20(s0)
C:/VSD/FreedomStudio-3-1-1-x86_64-w64-mingw32/FreedomStudio-3-1-1/SiFive/freedom-e-sdk-v21.11.00.00/freedom-metal/src/drivers/sifive_uart0.c:139
    long control_base = __metal_driver_sifive_uart0_control_base(guart);
201053a0:	fdc42503          	lw	a0,-36(s0)
201053a4:	bcfff0ef          	jal	20104f72 <__metal_driver_sifive_uart0_control_base>
201053a8:	87aa                	mv	a5,a0
C:/VSD/FreedomStudio-3-1-1-x86_64-w64-mingw32/FreedomStudio-3-1-1/SiFive/freedom-e-sdk-v21.11.00.00/freedom-metal/src/drivers/sifive_uart0.c:139 (discriminator 1)
201053aa:	fef42423          	sw	a5,-24(s0)
C:/VSD/FreedomStudio-3-1-1-x86_64-w64-mingw32/FreedomStudio-3-1-1/SiFive/freedom-e-sdk-v21.11.00.00/freedom-metal/src/drivers/sifive_uart0.c:140
    struct metal_clock *clock = __metal_driver_sifive_uart0_clock(guart);
201053ae:	fdc42503          	lw	a0,-36(s0)
201053b2:	c41ff0ef          	jal	20104ff2 <__metal_driver_sifive_uart0_clock>
201053b6:	fea42223          	sw	a0,-28(s0)
C:/VSD/FreedomStudio-3-1-1-x86_64-w64-mingw32/FreedomStudio-3-1-1/SiFive/freedom-e-sdk-v21.11.00.00/freedom-metal/src/drivers/sifive_uart0.c:142

    uart->baud_rate = baud_rate;
201053ba:	fd842703          	lw	a4,-40(s0)
201053be:	fec42783          	lw	a5,-20(s0)
201053c2:	c3d8                	sw	a4,4(a5)
C:/VSD/FreedomStudio-3-1-1-x86_64-w64-mingw32/FreedomStudio-3-1-1/SiFive/freedom-e-sdk-v21.11.00.00/freedom-metal/src/drivers/sifive_uart0.c:144

    if (clock != NULL) {
201053c4:	fe442783          	lw	a5,-28(s0)
201053c8:	cbb1                	beqz	a5,2010541c <__metal_driver_sifive_uart0_set_baud_rate+0x94>
C:/VSD/FreedomStudio-3-1-1-x86_64-w64-mingw32/FreedomStudio-3-1-1/SiFive/freedom-e-sdk-v21.11.00.00/freedom-metal/src/drivers/sifive_uart0.c:145
        long clock_rate = clock->vtable->get_rate_hz(clock);
201053ca:	fe442783          	lw	a5,-28(s0)
201053ce:	439c                	lw	a5,0(a5)
201053d0:	439c                	lw	a5,0(a5)
201053d2:	fe442503          	lw	a0,-28(s0)
201053d6:	9782                	jalr	a5
201053d8:	fea42023          	sw	a0,-32(s0)
C:/VSD/FreedomStudio-3-1-1-x86_64-w64-mingw32/FreedomStudio-3-1-1/SiFive/freedom-e-sdk-v21.11.00.00/freedom-metal/src/drivers/sifive_uart0.c:146
        UART_REGW(METAL_SIFIVE_UART0_DIV) = clock_rate / baud_rate - 1;
201053dc:	fe042703          	lw	a4,-32(s0)
201053e0:	fd842783          	lw	a5,-40(s0)
201053e4:	02f747b3          	div	a5,a4,a5
201053e8:	fff78713          	add	a4,a5,-1
201053ec:	fe842783          	lw	a5,-24(s0)
201053f0:	07e1                	add	a5,a5,24
201053f2:	c398                	sw	a4,0(a5)
C:/VSD/FreedomStudio-3-1-1-x86_64-w64-mingw32/FreedomStudio-3-1-1/SiFive/freedom-e-sdk-v21.11.00.00/freedom-metal/src/drivers/sifive_uart0.c:147
        UART_REGW(METAL_SIFIVE_UART0_TXCTRL) |= UART_TXEN;
201053f4:	fe842783          	lw	a5,-24(s0)
201053f8:	07a1                	add	a5,a5,8
201053fa:	439c                	lw	a5,0(a5)
201053fc:	fe842703          	lw	a4,-24(s0)
20105400:	0721                	add	a4,a4,8
20105402:	0017e793          	or	a5,a5,1
20105406:	c31c                	sw	a5,0(a4)
C:/VSD/FreedomStudio-3-1-1-x86_64-w64-mingw32/FreedomStudio-3-1-1/SiFive/freedom-e-sdk-v21.11.00.00/freedom-metal/src/drivers/sifive_uart0.c:148
        UART_REGW(METAL_SIFIVE_UART0_RXCTRL) |= UART_RXEN;
20105408:	fe842783          	lw	a5,-24(s0)
2010540c:	07b1                	add	a5,a5,12
2010540e:	439c                	lw	a5,0(a5)
20105410:	fe842703          	lw	a4,-24(s0)
20105414:	0731                	add	a4,a4,12
20105416:	0017e793          	or	a5,a5,1
2010541a:	c31c                	sw	a5,0(a4)
C:/VSD/FreedomStudio-3-1-1-x86_64-w64-mingw32/FreedomStudio-3-1-1/SiFive/freedom-e-sdk-v21.11.00.00/freedom-metal/src/drivers/sifive_uart0.c:150
    }
    return 0;
2010541c:	4781                	li	a5,0
C:/VSD/FreedomStudio-3-1-1-x86_64-w64-mingw32/FreedomStudio-3-1-1/SiFive/freedom-e-sdk-v21.11.00.00/freedom-metal/src/drivers/sifive_uart0.c:151
}
2010541e:	853e                	mv	a0,a5
20105420:	50b2                	lw	ra,44(sp)
20105422:	5422                	lw	s0,40(sp)
20105424:	6145                	add	sp,sp,48
20105426:	8082                	ret

20105428 <pre_rate_change_callback_func>:
pre_rate_change_callback_func():
C:/VSD/FreedomStudio-3-1-1-x86_64-w64-mingw32/FreedomStudio-3-1-1/SiFive/freedom-e-sdk-v21.11.00.00/freedom-metal/src/drivers/sifive_uart0.c:153

static void pre_rate_change_callback_func(void *priv) {
20105428:	7139                	add	sp,sp,-64
2010542a:	de06                	sw	ra,60(sp)
2010542c:	dc22                	sw	s0,56(sp)
2010542e:	0080                	add	s0,sp,64
20105430:	fca42623          	sw	a0,-52(s0)
C:/VSD/FreedomStudio-3-1-1-x86_64-w64-mingw32/FreedomStudio-3-1-1/SiFive/freedom-e-sdk-v21.11.00.00/freedom-metal/src/drivers/sifive_uart0.c:154
    struct __metal_driver_sifive_uart0 *uart = priv;
20105434:	fcc42783          	lw	a5,-52(s0)
20105438:	fef42623          	sw	a5,-20(s0)
C:/VSD/FreedomStudio-3-1-1-x86_64-w64-mingw32/FreedomStudio-3-1-1/SiFive/freedom-e-sdk-v21.11.00.00/freedom-metal/src/drivers/sifive_uart0.c:156
    long control_base =
        __metal_driver_sifive_uart0_control_base((struct metal_uart *)priv);
2010543c:	fcc42503          	lw	a0,-52(s0)
20105440:	b33ff0ef          	jal	20104f72 <__metal_driver_sifive_uart0_control_base>
20105444:	87aa                	mv	a5,a0
C:/VSD/FreedomStudio-3-1-1-x86_64-w64-mingw32/FreedomStudio-3-1-1/SiFive/freedom-e-sdk-v21.11.00.00/freedom-metal/src/drivers/sifive_uart0.c:155
    long control_base =
20105446:	fef42423          	sw	a5,-24(s0)
C:/VSD/FreedomStudio-3-1-1-x86_64-w64-mingw32/FreedomStudio-3-1-1/SiFive/freedom-e-sdk-v21.11.00.00/freedom-metal/src/drivers/sifive_uart0.c:158
    struct metal_clock *clock =
        __metal_driver_sifive_uart0_clock((struct metal_uart *)priv);
2010544a:	fcc42503          	lw	a0,-52(s0)
2010544e:	ba5ff0ef          	jal	20104ff2 <__metal_driver_sifive_uart0_clock>
20105452:	fea42223          	sw	a0,-28(s0)
C:/VSD/FreedomStudio-3-1-1-x86_64-w64-mingw32/FreedomStudio-3-1-1/SiFive/freedom-e-sdk-v21.11.00.00/freedom-metal/src/drivers/sifive_uart0.c:163

    /* Detect when the TXDATA is empty by setting the transmit watermark count
     * to one and waiting until an interrupt is pending */

    UART_REGW(METAL_SIFIVE_UART0_TXCTRL) &= ~(UART_TXCNT(0x7));
20105456:	fe842783          	lw	a5,-24(s0)
2010545a:	07a1                	add	a5,a5,8
2010545c:	4398                	lw	a4,0(a5)
2010545e:	fe842783          	lw	a5,-24(s0)
20105462:	07a1                	add	a5,a5,8
20105464:	86be                	mv	a3,a5
20105466:	fff907b7          	lui	a5,0xfff90
2010546a:	17fd                	add	a5,a5,-1 # fff8ffff <metal_segment_heap_target_end+0x7ff8e91f>
2010546c:	8ff9                	and	a5,a5,a4
2010546e:	c29c                	sw	a5,0(a3)
C:/VSD/FreedomStudio-3-1-1-x86_64-w64-mingw32/FreedomStudio-3-1-1/SiFive/freedom-e-sdk-v21.11.00.00/freedom-metal/src/drivers/sifive_uart0.c:164
    UART_REGW(METAL_SIFIVE_UART0_TXCTRL) |= UART_TXCNT(1);
20105470:	fe842783          	lw	a5,-24(s0)
20105474:	07a1                	add	a5,a5,8
20105476:	4398                	lw	a4,0(a5)
20105478:	fe842783          	lw	a5,-24(s0)
2010547c:	07a1                	add	a5,a5,8
2010547e:	86be                	mv	a3,a5
20105480:	67c1                	lui	a5,0x10
20105482:	8fd9                	or	a5,a5,a4
20105484:	c29c                	sw	a5,0(a3)
C:/VSD/FreedomStudio-3-1-1-x86_64-w64-mingw32/FreedomStudio-3-1-1/SiFive/freedom-e-sdk-v21.11.00.00/freedom-metal/src/drivers/sifive_uart0.c:166

    while ((UART_REGW(METAL_SIFIVE_UART0_IP) & UART_TXWM) == 0)
20105486:	0001                	nop
C:/VSD/FreedomStudio-3-1-1-x86_64-w64-mingw32/FreedomStudio-3-1-1/SiFive/freedom-e-sdk-v21.11.00.00/freedom-metal/src/drivers/sifive_uart0.c:166 (discriminator 1)
20105488:	fe842783          	lw	a5,-24(s0)
2010548c:	07d1                	add	a5,a5,20 # 10014 <__heap_size+0xf814>
2010548e:	439c                	lw	a5,0(a5)
20105490:	8b85                	and	a5,a5,1
20105492:	dbfd                	beqz	a5,20105488 <pre_rate_change_callback_func+0x60>
C:/VSD/FreedomStudio-3-1-1-x86_64-w64-mingw32/FreedomStudio-3-1-1/SiFive/freedom-e-sdk-v21.11.00.00/freedom-metal/src/drivers/sifive_uart0.c:174
    /* When the TXDATA clears, the UART is still shifting out the last byte.
     * Calculate the time we must drain to finish transmitting and then wait
     * that long. */

    long bits_per_symbol =
        (UART_REGW(METAL_SIFIVE_UART0_TXCTRL) & (1 << 1)) ? 9 : 10;
20105494:	fe842783          	lw	a5,-24(s0)
20105498:	07a1                	add	a5,a5,8
2010549a:	439c                	lw	a5,0(a5)
2010549c:	8b89                	and	a5,a5,2
2010549e:	c399                	beqz	a5,201054a4 <pre_rate_change_callback_func+0x7c>
C:/VSD/FreedomStudio-3-1-1-x86_64-w64-mingw32/FreedomStudio-3-1-1/SiFive/freedom-e-sdk-v21.11.00.00/freedom-metal/src/drivers/sifive_uart0.c:174 (discriminator 1)
201054a0:	47a5                	li	a5,9
201054a2:	a011                	j	201054a6 <pre_rate_change_callback_func+0x7e>
C:/VSD/FreedomStudio-3-1-1-x86_64-w64-mingw32/FreedomStudio-3-1-1/SiFive/freedom-e-sdk-v21.11.00.00/freedom-metal/src/drivers/sifive_uart0.c:174 (discriminator 2)
201054a4:	47a9                	li	a5,10
C:/VSD/FreedomStudio-3-1-1-x86_64-w64-mingw32/FreedomStudio-3-1-1/SiFive/freedom-e-sdk-v21.11.00.00/freedom-metal/src/drivers/sifive_uart0.c:173
    long bits_per_symbol =
201054a6:	fef42023          	sw	a5,-32(s0)
C:/VSD/FreedomStudio-3-1-1-x86_64-w64-mingw32/FreedomStudio-3-1-1/SiFive/freedom-e-sdk-v21.11.00.00/freedom-metal/src/drivers/sifive_uart0.c:175
    long clk_freq = clock->vtable->get_rate_hz(clock);
201054aa:	fe442783          	lw	a5,-28(s0)
201054ae:	439c                	lw	a5,0(a5)
201054b0:	439c                	lw	a5,0(a5)
201054b2:	fe442503          	lw	a0,-28(s0)
201054b6:	9782                	jalr	a5
201054b8:	fca42e23          	sw	a0,-36(s0)
C:/VSD/FreedomStudio-3-1-1-x86_64-w64-mingw32/FreedomStudio-3-1-1/SiFive/freedom-e-sdk-v21.11.00.00/freedom-metal/src/drivers/sifive_uart0.c:176
    long cycles_to_wait = bits_per_symbol * clk_freq / uart->baud_rate;
201054bc:	fe042703          	lw	a4,-32(s0)
201054c0:	fdc42783          	lw	a5,-36(s0)
201054c4:	02f707b3          	mul	a5,a4,a5
201054c8:	873e                	mv	a4,a5
201054ca:	fec42783          	lw	a5,-20(s0)
201054ce:	43dc                	lw	a5,4(a5)
201054d0:	02f757b3          	divu	a5,a4,a5
201054d4:	fcf42c23          	sw	a5,-40(s0)
C:/VSD/FreedomStudio-3-1-1-x86_64-w64-mingw32/FreedomStudio-3-1-1/SiFive/freedom-e-sdk-v21.11.00.00/freedom-metal/src/drivers/sifive_uart0.c:178

    for (volatile long x = 0; x < cycles_to_wait; x++)
201054d8:	fc042a23          	sw	zero,-44(s0)
201054dc:	a039                	j	201054ea <pre_rate_change_callback_func+0xc2>
C:/VSD/FreedomStudio-3-1-1-x86_64-w64-mingw32/FreedomStudio-3-1-1/SiFive/freedom-e-sdk-v21.11.00.00/freedom-metal/src/drivers/sifive_uart0.c:179
        __asm__("nop");
201054de:	0001                	nop
C:/VSD/FreedomStudio-3-1-1-x86_64-w64-mingw32/FreedomStudio-3-1-1/SiFive/freedom-e-sdk-v21.11.00.00/freedom-metal/src/drivers/sifive_uart0.c:178 (discriminator 3)
    for (volatile long x = 0; x < cycles_to_wait; x++)
201054e0:	fd442783          	lw	a5,-44(s0)
201054e4:	0785                	add	a5,a5,1
201054e6:	fcf42a23          	sw	a5,-44(s0)
C:/VSD/FreedomStudio-3-1-1-x86_64-w64-mingw32/FreedomStudio-3-1-1/SiFive/freedom-e-sdk-v21.11.00.00/freedom-metal/src/drivers/sifive_uart0.c:178 (discriminator 1)
201054ea:	fd442783          	lw	a5,-44(s0)
201054ee:	fd842703          	lw	a4,-40(s0)
201054f2:	fee7c6e3          	blt	a5,a4,201054de <pre_rate_change_callback_func+0xb6>
C:/VSD/FreedomStudio-3-1-1-x86_64-w64-mingw32/FreedomStudio-3-1-1/SiFive/freedom-e-sdk-v21.11.00.00/freedom-metal/src/drivers/sifive_uart0.c:180
}
201054f6:	0001                	nop
201054f8:	0001                	nop
201054fa:	50f2                	lw	ra,60(sp)
201054fc:	5462                	lw	s0,56(sp)
201054fe:	6121                	add	sp,sp,64
20105500:	8082                	ret

20105502 <post_rate_change_callback_func>:
post_rate_change_callback_func():
C:/VSD/FreedomStudio-3-1-1-x86_64-w64-mingw32/FreedomStudio-3-1-1/SiFive/freedom-e-sdk-v21.11.00.00/freedom-metal/src/drivers/sifive_uart0.c:182

static void post_rate_change_callback_func(void *priv) {
20105502:	7179                	add	sp,sp,-48
20105504:	d606                	sw	ra,44(sp)
20105506:	d422                	sw	s0,40(sp)
20105508:	1800                	add	s0,sp,48
2010550a:	fca42e23          	sw	a0,-36(s0)
C:/VSD/FreedomStudio-3-1-1-x86_64-w64-mingw32/FreedomStudio-3-1-1/SiFive/freedom-e-sdk-v21.11.00.00/freedom-metal/src/drivers/sifive_uart0.c:183
    struct __metal_driver_sifive_uart0 *uart = priv;
2010550e:	fdc42783          	lw	a5,-36(s0)
20105512:	fef42623          	sw	a5,-20(s0)
C:/VSD/FreedomStudio-3-1-1-x86_64-w64-mingw32/FreedomStudio-3-1-1/SiFive/freedom-e-sdk-v21.11.00.00/freedom-metal/src/drivers/sifive_uart0.c:184
    metal_uart_set_baud_rate(&uart->uart, uart->baud_rate);
20105516:	fec42703          	lw	a4,-20(s0)
2010551a:	fec42783          	lw	a5,-20(s0)
2010551e:	43dc                	lw	a5,4(a5)
20105520:	85be                	mv	a1,a5
20105522:	853a                	mv	a0,a4
20105524:	24e5                	jal	2010580c <metal_uart_set_baud_rate>
C:/VSD/FreedomStudio-3-1-1-x86_64-w64-mingw32/FreedomStudio-3-1-1/SiFive/freedom-e-sdk-v21.11.00.00/freedom-metal/src/drivers/sifive_uart0.c:185
}
20105526:	0001                	nop
20105528:	50b2                	lw	ra,44(sp)
2010552a:	5422                	lw	s0,40(sp)
2010552c:	6145                	add	sp,sp,48
2010552e:	8082                	ret

20105530 <__metal_driver_sifive_uart0_init>:
__metal_driver_sifive_uart0_init():
C:/VSD/FreedomStudio-3-1-1-x86_64-w64-mingw32/FreedomStudio-3-1-1/SiFive/freedom-e-sdk-v21.11.00.00/freedom-metal/src/drivers/sifive_uart0.c:187

void __metal_driver_sifive_uart0_init(struct metal_uart *guart, int baud_rate) {
20105530:	7139                	add	sp,sp,-64
20105532:	de06                	sw	ra,60(sp)
20105534:	dc22                	sw	s0,56(sp)
20105536:	0080                	add	s0,sp,64
20105538:	fca42623          	sw	a0,-52(s0)
2010553c:	fcb42423          	sw	a1,-56(s0)
C:/VSD/FreedomStudio-3-1-1-x86_64-w64-mingw32/FreedomStudio-3-1-1/SiFive/freedom-e-sdk-v21.11.00.00/freedom-metal/src/drivers/sifive_uart0.c:188
    struct __metal_driver_sifive_uart0 *uart = (void *)(guart);
20105540:	fcc42783          	lw	a5,-52(s0)
20105544:	fef42623          	sw	a5,-20(s0)
C:/VSD/FreedomStudio-3-1-1-x86_64-w64-mingw32/FreedomStudio-3-1-1/SiFive/freedom-e-sdk-v21.11.00.00/freedom-metal/src/drivers/sifive_uart0.c:189
    struct metal_clock *clock = __metal_driver_sifive_uart0_clock(guart);
20105548:	fcc42503          	lw	a0,-52(s0)
2010554c:	aa7ff0ef          	jal	20104ff2 <__metal_driver_sifive_uart0_clock>
20105550:	fea42423          	sw	a0,-24(s0)
C:/VSD/FreedomStudio-3-1-1-x86_64-w64-mingw32/FreedomStudio-3-1-1/SiFive/freedom-e-sdk-v21.11.00.00/freedom-metal/src/drivers/sifive_uart0.c:191
    struct __metal_driver_sifive_gpio0 *pinmux =
        __metal_driver_sifive_uart0_pinmux(guart);
20105554:	fcc42503          	lw	a0,-52(s0)
20105558:	ac9ff0ef          	jal	20105020 <__metal_driver_sifive_uart0_pinmux>
2010555c:	fea42223          	sw	a0,-28(s0)
C:/VSD/FreedomStudio-3-1-1-x86_64-w64-mingw32/FreedomStudio-3-1-1/SiFive/freedom-e-sdk-v21.11.00.00/freedom-metal/src/drivers/sifive_uart0.c:193

    if (clock != NULL) {
20105560:	fe842783          	lw	a5,-24(s0)
20105564:	c7b9                	beqz	a5,201055b2 <__metal_driver_sifive_uart0_init+0x82>
C:/VSD/FreedomStudio-3-1-1-x86_64-w64-mingw32/FreedomStudio-3-1-1/SiFive/freedom-e-sdk-v21.11.00.00/freedom-metal/src/drivers/sifive_uart0.c:194
        uart->pre_rate_change_callback.callback =
20105566:	fec42783          	lw	a5,-20(s0)
2010556a:	20105737          	lui	a4,0x20105
2010556e:	42870713          	add	a4,a4,1064 # 20105428 <pre_rate_change_callback_func>
20105572:	c798                	sw	a4,8(a5)
C:/VSD/FreedomStudio-3-1-1-x86_64-w64-mingw32/FreedomStudio-3-1-1/SiFive/freedom-e-sdk-v21.11.00.00/freedom-metal/src/drivers/sifive_uart0.c:196
            &pre_rate_change_callback_func;
        uart->pre_rate_change_callback.priv = guart;
20105574:	fec42783          	lw	a5,-20(s0)
20105578:	fcc42703          	lw	a4,-52(s0)
2010557c:	c7d8                	sw	a4,12(a5)
C:/VSD/FreedomStudio-3-1-1-x86_64-w64-mingw32/FreedomStudio-3-1-1/SiFive/freedom-e-sdk-v21.11.00.00/freedom-metal/src/drivers/sifive_uart0.c:197
        metal_clock_register_pre_rate_change_callback(
2010557e:	fec42783          	lw	a5,-20(s0)
20105582:	07a1                	add	a5,a5,8
20105584:	85be                	mv	a1,a5
20105586:	fe842503          	lw	a0,-24(s0)
2010558a:	2aad                	jal	20105704 <metal_clock_register_pre_rate_change_callback>
C:/VSD/FreedomStudio-3-1-1-x86_64-w64-mingw32/FreedomStudio-3-1-1/SiFive/freedom-e-sdk-v21.11.00.00/freedom-metal/src/drivers/sifive_uart0.c:200
            clock, &(uart->pre_rate_change_callback));

        uart->post_rate_change_callback.callback =
2010558c:	fec42783          	lw	a5,-20(s0)
20105590:	20105737          	lui	a4,0x20105
20105594:	50270713          	add	a4,a4,1282 # 20105502 <post_rate_change_callback_func>
20105598:	cbd8                	sw	a4,20(a5)
C:/VSD/FreedomStudio-3-1-1-x86_64-w64-mingw32/FreedomStudio-3-1-1/SiFive/freedom-e-sdk-v21.11.00.00/freedom-metal/src/drivers/sifive_uart0.c:202
            &post_rate_change_callback_func;
        uart->post_rate_change_callback.priv = guart;
2010559a:	fec42783          	lw	a5,-20(s0)
2010559e:	fcc42703          	lw	a4,-52(s0)
201055a2:	cf98                	sw	a4,24(a5)
C:/VSD/FreedomStudio-3-1-1-x86_64-w64-mingw32/FreedomStudio-3-1-1/SiFive/freedom-e-sdk-v21.11.00.00/freedom-metal/src/drivers/sifive_uart0.c:203
        metal_clock_register_post_rate_change_callback(
201055a4:	fec42783          	lw	a5,-20(s0)
201055a8:	07d1                	add	a5,a5,20
201055aa:	85be                	mv	a1,a5
201055ac:	fe842503          	lw	a0,-24(s0)
201055b0:	2251                	jal	20105734 <metal_clock_register_post_rate_change_callback>
C:/VSD/FreedomStudio-3-1-1-x86_64-w64-mingw32/FreedomStudio-3-1-1/SiFive/freedom-e-sdk-v21.11.00.00/freedom-metal/src/drivers/sifive_uart0.c:207
            clock, &(uart->post_rate_change_callback));
    }

    metal_uart_set_baud_rate(&(uart->uart), baud_rate);
201055b2:	fec42783          	lw	a5,-20(s0)
201055b6:	fc842583          	lw	a1,-56(s0)
201055ba:	853e                	mv	a0,a5
201055bc:	2c81                	jal	2010580c <metal_uart_set_baud_rate>
C:/VSD/FreedomStudio-3-1-1-x86_64-w64-mingw32/FreedomStudio-3-1-1/SiFive/freedom-e-sdk-v21.11.00.00/freedom-metal/src/drivers/sifive_uart0.c:209

    if (pinmux != NULL) {
201055be:	fe442783          	lw	a5,-28(s0)
201055c2:	cb95                	beqz	a5,201055f6 <__metal_driver_sifive_uart0_init+0xc6>
C:/VSD/FreedomStudio-3-1-1-x86_64-w64-mingw32/FreedomStudio-3-1-1/SiFive/freedom-e-sdk-v21.11.00.00/freedom-metal/src/drivers/sifive_uart0.c:211
        long pinmux_output_selector =
            __metal_driver_sifive_uart0_pinmux_output_selector(guart);
201055c4:	fcc42503          	lw	a0,-52(s0)
201055c8:	a83ff0ef          	jal	2010504a <__metal_driver_sifive_uart0_pinmux_output_selector>
201055cc:	87aa                	mv	a5,a0
C:/VSD/FreedomStudio-3-1-1-x86_64-w64-mingw32/FreedomStudio-3-1-1/SiFive/freedom-e-sdk-v21.11.00.00/freedom-metal/src/drivers/sifive_uart0.c:210
        long pinmux_output_selector =
201055ce:	fef42023          	sw	a5,-32(s0)
C:/VSD/FreedomStudio-3-1-1-x86_64-w64-mingw32/FreedomStudio-3-1-1/SiFive/freedom-e-sdk-v21.11.00.00/freedom-metal/src/drivers/sifive_uart0.c:213
        long pinmux_source_selector =
            __metal_driver_sifive_uart0_pinmux_source_selector(guart);
201055d2:	fcc42503          	lw	a0,-52(s0)
201055d6:	a9dff0ef          	jal	20105072 <__metal_driver_sifive_uart0_pinmux_source_selector>
201055da:	87aa                	mv	a5,a0
C:/VSD/FreedomStudio-3-1-1-x86_64-w64-mingw32/FreedomStudio-3-1-1/SiFive/freedom-e-sdk-v21.11.00.00/freedom-metal/src/drivers/sifive_uart0.c:212
        long pinmux_source_selector =
201055dc:	fcf42e23          	sw	a5,-36(s0)
C:/VSD/FreedomStudio-3-1-1-x86_64-w64-mingw32/FreedomStudio-3-1-1/SiFive/freedom-e-sdk-v21.11.00.00/freedom-metal/src/drivers/sifive_uart0.c:214
        pinmux->gpio.vtable->enable_io((struct metal_gpio *)pinmux,
201055e0:	fe442783          	lw	a5,-28(s0)
201055e4:	439c                	lw	a5,0(a5)
201055e6:	53dc                	lw	a5,36(a5)
201055e8:	fdc42603          	lw	a2,-36(s0)
201055ec:	fe042583          	lw	a1,-32(s0)
201055f0:	fe442503          	lw	a0,-28(s0)
201055f4:	9782                	jalr	a5
C:/VSD/FreedomStudio-3-1-1-x86_64-w64-mingw32/FreedomStudio-3-1-1/SiFive/freedom-e-sdk-v21.11.00.00/freedom-metal/src/drivers/sifive_uart0.c:218
                                       pinmux_output_selector,
                                       pinmux_source_selector);
    }
}
201055f6:	0001                	nop
201055f8:	50f2                	lw	ra,60(sp)
201055fa:	5462                	lw	s0,56(sp)
201055fc:	6121                	add	sp,sp,64
201055fe:	8082                	ret

20105600 <_metal_clock_call_all_callbacks>:
_metal_clock_call_all_callbacks():
C:/VSD/FreedomStudio-3-1-1-x86_64-w64-mingw32/FreedomStudio-3-1-1/SiFive/freedom-e-sdk-v21.11.00.00/freedom-metal/metal/clock.h:50

/*!
 * @brief Call all callbacks in the linked list, if any are registered
 */
__inline__ void
_metal_clock_call_all_callbacks(const metal_clock_callback *const list) {
20105600:	7179                	add	sp,sp,-48
20105602:	d606                	sw	ra,44(sp)
20105604:	d422                	sw	s0,40(sp)
20105606:	1800                	add	s0,sp,48
20105608:	fca42e23          	sw	a0,-36(s0)
C:/VSD/FreedomStudio-3-1-1-x86_64-w64-mingw32/FreedomStudio-3-1-1/SiFive/freedom-e-sdk-v21.11.00.00/freedom-metal/metal/clock.h:51
    const metal_clock_callback *current = list;
2010560c:	fdc42783          	lw	a5,-36(s0)
20105610:	fef42623          	sw	a5,-20(s0)
C:/VSD/FreedomStudio-3-1-1-x86_64-w64-mingw32/FreedomStudio-3-1-1/SiFive/freedom-e-sdk-v21.11.00.00/freedom-metal/metal/clock.h:52
    while (current) {
20105614:	a831                	j	20105630 <_metal_clock_call_all_callbacks+0x30>
C:/VSD/FreedomStudio-3-1-1-x86_64-w64-mingw32/FreedomStudio-3-1-1/SiFive/freedom-e-sdk-v21.11.00.00/freedom-metal/metal/clock.h:53
        current->callback(current->priv);
20105616:	fec42783          	lw	a5,-20(s0)
2010561a:	439c                	lw	a5,0(a5)
2010561c:	fec42703          	lw	a4,-20(s0)
20105620:	4358                	lw	a4,4(a4)
20105622:	853a                	mv	a0,a4
20105624:	9782                	jalr	a5
C:/VSD/FreedomStudio-3-1-1-x86_64-w64-mingw32/FreedomStudio-3-1-1/SiFive/freedom-e-sdk-v21.11.00.00/freedom-metal/metal/clock.h:54
        current = current->_next;
20105626:	fec42783          	lw	a5,-20(s0)
2010562a:	479c                	lw	a5,8(a5)
2010562c:	fef42623          	sw	a5,-20(s0)
C:/VSD/FreedomStudio-3-1-1-x86_64-w64-mingw32/FreedomStudio-3-1-1/SiFive/freedom-e-sdk-v21.11.00.00/freedom-metal/metal/clock.h:52
    while (current) {
20105630:	fec42783          	lw	a5,-20(s0)
20105634:	f3ed                	bnez	a5,20105616 <_metal_clock_call_all_callbacks+0x16>
C:/VSD/FreedomStudio-3-1-1-x86_64-w64-mingw32/FreedomStudio-3-1-1/SiFive/freedom-e-sdk-v21.11.00.00/freedom-metal/metal/clock.h:56
    }
}
20105636:	0001                	nop
20105638:	0001                	nop
2010563a:	50b2                	lw	ra,44(sp)
2010563c:	5422                	lw	s0,40(sp)
2010563e:	6145                	add	sp,sp,48
20105640:	8082                	ret

20105642 <_metal_clock_append_to_callbacks>:
_metal_clock_append_to_callbacks():
C:/VSD/FreedomStudio-3-1-1-x86_64-w64-mingw32/FreedomStudio-3-1-1/SiFive/freedom-e-sdk-v21.11.00.00/freedom-metal/metal/clock.h:63
/*!
 * @brief Append a callback to the linked list and return the head of the list
 */
__inline__ metal_clock_callback *
_metal_clock_append_to_callbacks(metal_clock_callback *list,
                                 metal_clock_callback *const cb) {
20105642:	7179                	add	sp,sp,-48
20105644:	d622                	sw	s0,44(sp)
20105646:	1800                	add	s0,sp,48
20105648:	fca42e23          	sw	a0,-36(s0)
2010564c:	fcb42c23          	sw	a1,-40(s0)
C:/VSD/FreedomStudio-3-1-1-x86_64-w64-mingw32/FreedomStudio-3-1-1/SiFive/freedom-e-sdk-v21.11.00.00/freedom-metal/metal/clock.h:64
    cb->_next = NULL;
20105650:	fd842783          	lw	a5,-40(s0)
20105654:	0007a423          	sw	zero,8(a5)
C:/VSD/FreedomStudio-3-1-1-x86_64-w64-mingw32/FreedomStudio-3-1-1/SiFive/freedom-e-sdk-v21.11.00.00/freedom-metal/metal/clock.h:66

    if (!list) {
20105658:	fdc42783          	lw	a5,-36(s0)
2010565c:	e781                	bnez	a5,20105664 <_metal_clock_append_to_callbacks+0x22>
C:/VSD/FreedomStudio-3-1-1-x86_64-w64-mingw32/FreedomStudio-3-1-1/SiFive/freedom-e-sdk-v21.11.00.00/freedom-metal/metal/clock.h:67
        return cb;
2010565e:	fd842783          	lw	a5,-40(s0)
20105662:	a035                	j	2010568e <_metal_clock_append_to_callbacks+0x4c>
C:/VSD/FreedomStudio-3-1-1-x86_64-w64-mingw32/FreedomStudio-3-1-1/SiFive/freedom-e-sdk-v21.11.00.00/freedom-metal/metal/clock.h:70
    }

    metal_clock_callback *current = list;
20105664:	fdc42783          	lw	a5,-36(s0)
20105668:	fef42623          	sw	a5,-20(s0)
C:/VSD/FreedomStudio-3-1-1-x86_64-w64-mingw32/FreedomStudio-3-1-1/SiFive/freedom-e-sdk-v21.11.00.00/freedom-metal/metal/clock.h:72

    while ((current->_next) != NULL) {
2010566c:	a031                	j	20105678 <_metal_clock_append_to_callbacks+0x36>
C:/VSD/FreedomStudio-3-1-1-x86_64-w64-mingw32/FreedomStudio-3-1-1/SiFive/freedom-e-sdk-v21.11.00.00/freedom-metal/metal/clock.h:73
        current = current->_next;
2010566e:	fec42783          	lw	a5,-20(s0)
20105672:	479c                	lw	a5,8(a5)
20105674:	fef42623          	sw	a5,-20(s0)
C:/VSD/FreedomStudio-3-1-1-x86_64-w64-mingw32/FreedomStudio-3-1-1/SiFive/freedom-e-sdk-v21.11.00.00/freedom-metal/metal/clock.h:72
    while ((current->_next) != NULL) {
20105678:	fec42783          	lw	a5,-20(s0)
2010567c:	479c                	lw	a5,8(a5)
2010567e:	fbe5                	bnez	a5,2010566e <_metal_clock_append_to_callbacks+0x2c>
C:/VSD/FreedomStudio-3-1-1-x86_64-w64-mingw32/FreedomStudio-3-1-1/SiFive/freedom-e-sdk-v21.11.00.00/freedom-metal/metal/clock.h:76
    }

    current->_next = cb;
20105680:	fec42783          	lw	a5,-20(s0)
20105684:	fd842703          	lw	a4,-40(s0)
20105688:	c798                	sw	a4,8(a5)
C:/VSD/FreedomStudio-3-1-1-x86_64-w64-mingw32/FreedomStudio-3-1-1/SiFive/freedom-e-sdk-v21.11.00.00/freedom-metal/metal/clock.h:78

    return list;
2010568a:	fdc42783          	lw	a5,-36(s0)
C:/VSD/FreedomStudio-3-1-1-x86_64-w64-mingw32/FreedomStudio-3-1-1/SiFive/freedom-e-sdk-v21.11.00.00/freedom-metal/metal/clock.h:79
}
2010568e:	853e                	mv	a0,a5
20105690:	5432                	lw	s0,44(sp)
20105692:	6145                	add	sp,sp,48
20105694:	8082                	ret

20105696 <metal_clock_get_rate_hz>:
metal_clock_get_rate_hz():
C:/VSD/FreedomStudio-3-1-1-x86_64-w64-mingw32/FreedomStudio-3-1-1/SiFive/freedom-e-sdk-v21.11.00.00/freedom-metal/metal/clock.h:110
 * @brief Returns the current rate of the given clock
 *
 * @param clk The handle for the clock
 * @return The current rate of the clock in Hz
 */
__inline__ long metal_clock_get_rate_hz(const struct metal_clock *clk) {
20105696:	1101                	add	sp,sp,-32
20105698:	ce06                	sw	ra,28(sp)
2010569a:	cc22                	sw	s0,24(sp)
2010569c:	1000                	add	s0,sp,32
2010569e:	fea42623          	sw	a0,-20(s0)
C:/VSD/FreedomStudio-3-1-1-x86_64-w64-mingw32/FreedomStudio-3-1-1/SiFive/freedom-e-sdk-v21.11.00.00/freedom-metal/metal/clock.h:111
    return clk->vtable->get_rate_hz(clk);
201056a2:	fec42783          	lw	a5,-20(s0)
201056a6:	439c                	lw	a5,0(a5)
201056a8:	439c                	lw	a5,0(a5)
201056aa:	fec42503          	lw	a0,-20(s0)
201056ae:	9782                	jalr	a5
201056b0:	87aa                	mv	a5,a0
C:/VSD/FreedomStudio-3-1-1-x86_64-w64-mingw32/FreedomStudio-3-1-1/SiFive/freedom-e-sdk-v21.11.00.00/freedom-metal/metal/clock.h:112
}
201056b2:	853e                	mv	a0,a5
201056b4:	40f2                	lw	ra,28(sp)
201056b6:	4462                	lw	s0,24(sp)
201056b8:	6105                	add	sp,sp,32
201056ba:	8082                	ret

201056bc <metal_clock_set_rate_hz>:
metal_clock_set_rate_hz():
C:/VSD/FreedomStudio-3-1-1-x86_64-w64-mingw32/FreedomStudio-3-1-1/SiFive/freedom-e-sdk-v21.11.00.00/freedom-metal/metal/clock.h:128
 * could be anything!
 *
 * Prior to and after the rate change of the clock, this will call the
 * registered pre- and post-rate change callbacks.
 */
__inline__ long metal_clock_set_rate_hz(struct metal_clock *clk, long hz) {
201056bc:	7179                	add	sp,sp,-48
201056be:	d606                	sw	ra,44(sp)
201056c0:	d422                	sw	s0,40(sp)
201056c2:	1800                	add	s0,sp,48
201056c4:	fca42e23          	sw	a0,-36(s0)
201056c8:	fcb42c23          	sw	a1,-40(s0)
C:/VSD/FreedomStudio-3-1-1-x86_64-w64-mingw32/FreedomStudio-3-1-1/SiFive/freedom-e-sdk-v21.11.00.00/freedom-metal/metal/clock.h:129
    _metal_clock_call_all_callbacks(clk->_pre_rate_change_callback);
201056cc:	fdc42783          	lw	a5,-36(s0)
201056d0:	43dc                	lw	a5,4(a5)
201056d2:	853e                	mv	a0,a5
201056d4:	3735                	jal	20105600 <_metal_clock_call_all_callbacks>
C:/VSD/FreedomStudio-3-1-1-x86_64-w64-mingw32/FreedomStudio-3-1-1/SiFive/freedom-e-sdk-v21.11.00.00/freedom-metal/metal/clock.h:131

    long out = clk->vtable->set_rate_hz(clk, hz);
201056d6:	fdc42783          	lw	a5,-36(s0)
201056da:	439c                	lw	a5,0(a5)
201056dc:	43dc                	lw	a5,4(a5)
201056de:	fd842583          	lw	a1,-40(s0)
201056e2:	fdc42503          	lw	a0,-36(s0)
201056e6:	9782                	jalr	a5
201056e8:	fea42623          	sw	a0,-20(s0)
C:/VSD/FreedomStudio-3-1-1-x86_64-w64-mingw32/FreedomStudio-3-1-1/SiFive/freedom-e-sdk-v21.11.00.00/freedom-metal/metal/clock.h:133

    _metal_clock_call_all_callbacks(clk->_post_rate_change_callback);
201056ec:	fdc42783          	lw	a5,-36(s0)
201056f0:	479c                	lw	a5,8(a5)
201056f2:	853e                	mv	a0,a5
201056f4:	3731                	jal	20105600 <_metal_clock_call_all_callbacks>
C:/VSD/FreedomStudio-3-1-1-x86_64-w64-mingw32/FreedomStudio-3-1-1/SiFive/freedom-e-sdk-v21.11.00.00/freedom-metal/metal/clock.h:135

    return out;
201056f6:	fec42783          	lw	a5,-20(s0)
C:/VSD/FreedomStudio-3-1-1-x86_64-w64-mingw32/FreedomStudio-3-1-1/SiFive/freedom-e-sdk-v21.11.00.00/freedom-metal/metal/clock.h:136
}
201056fa:	853e                	mv	a0,a5
201056fc:	50b2                	lw	ra,44(sp)
201056fe:	5422                	lw	s0,40(sp)
20105700:	6145                	add	sp,sp,48
20105702:	8082                	ret

20105704 <metal_clock_register_pre_rate_change_callback>:
metal_clock_register_pre_rate_change_callback():
C:/VSD/FreedomStudio-3-1-1-x86_64-w64-mingw32/FreedomStudio-3-1-1/SiFive/freedom-e-sdk-v21.11.00.00/freedom-metal/metal/clock.h:146
 * @param clk The handle for the clock
 * @param cb The callback to be registered
 */
__inline__ void
metal_clock_register_pre_rate_change_callback(struct metal_clock *clk,
                                              metal_clock_callback *cb) {
20105704:	1101                	add	sp,sp,-32
20105706:	ce06                	sw	ra,28(sp)
20105708:	cc22                	sw	s0,24(sp)
2010570a:	1000                	add	s0,sp,32
2010570c:	fea42623          	sw	a0,-20(s0)
20105710:	feb42423          	sw	a1,-24(s0)
C:/VSD/FreedomStudio-3-1-1-x86_64-w64-mingw32/FreedomStudio-3-1-1/SiFive/freedom-e-sdk-v21.11.00.00/freedom-metal/metal/clock.h:148
    clk->_pre_rate_change_callback =
        _metal_clock_append_to_callbacks(clk->_pre_rate_change_callback, cb);
20105714:	fec42783          	lw	a5,-20(s0)
20105718:	43dc                	lw	a5,4(a5)
2010571a:	fe842583          	lw	a1,-24(s0)
2010571e:	853e                	mv	a0,a5
20105720:	370d                	jal	20105642 <_metal_clock_append_to_callbacks>
20105722:	872a                	mv	a4,a0
C:/VSD/FreedomStudio-3-1-1-x86_64-w64-mingw32/FreedomStudio-3-1-1/SiFive/freedom-e-sdk-v21.11.00.00/freedom-metal/metal/clock.h:147
    clk->_pre_rate_change_callback =
20105724:	fec42783          	lw	a5,-20(s0)
20105728:	c3d8                	sw	a4,4(a5)
C:/VSD/FreedomStudio-3-1-1-x86_64-w64-mingw32/FreedomStudio-3-1-1/SiFive/freedom-e-sdk-v21.11.00.00/freedom-metal/metal/clock.h:149
}
2010572a:	0001                	nop
2010572c:	40f2                	lw	ra,28(sp)
2010572e:	4462                	lw	s0,24(sp)
20105730:	6105                	add	sp,sp,32
20105732:	8082                	ret

20105734 <metal_clock_register_post_rate_change_callback>:
metal_clock_register_post_rate_change_callback():
C:/VSD/FreedomStudio-3-1-1-x86_64-w64-mingw32/FreedomStudio-3-1-1/SiFive/freedom-e-sdk-v21.11.00.00/freedom-metal/metal/clock.h:159
 * @param clk The handle for the clock
 * @param cb The callback to be registered
 */
__inline__ void
metal_clock_register_post_rate_change_callback(struct metal_clock *clk,
                                               metal_clock_callback *cb) {
20105734:	1101                	add	sp,sp,-32
20105736:	ce06                	sw	ra,28(sp)
20105738:	cc22                	sw	s0,24(sp)
2010573a:	1000                	add	s0,sp,32
2010573c:	fea42623          	sw	a0,-20(s0)
20105740:	feb42423          	sw	a1,-24(s0)
C:/VSD/FreedomStudio-3-1-1-x86_64-w64-mingw32/FreedomStudio-3-1-1/SiFive/freedom-e-sdk-v21.11.00.00/freedom-metal/metal/clock.h:161
    clk->_post_rate_change_callback =
        _metal_clock_append_to_callbacks(clk->_post_rate_change_callback, cb);
20105744:	fec42783          	lw	a5,-20(s0)
20105748:	479c                	lw	a5,8(a5)
2010574a:	fe842583          	lw	a1,-24(s0)
2010574e:	853e                	mv	a0,a5
20105750:	3dcd                	jal	20105642 <_metal_clock_append_to_callbacks>
20105752:	872a                	mv	a4,a0
C:/VSD/FreedomStudio-3-1-1-x86_64-w64-mingw32/FreedomStudio-3-1-1/SiFive/freedom-e-sdk-v21.11.00.00/freedom-metal/metal/clock.h:160
    clk->_post_rate_change_callback =
20105754:	fec42783          	lw	a5,-20(s0)
20105758:	c798                	sw	a4,8(a5)
C:/VSD/FreedomStudio-3-1-1-x86_64-w64-mingw32/FreedomStudio-3-1-1/SiFive/freedom-e-sdk-v21.11.00.00/freedom-metal/metal/clock.h:162
}
2010575a:	0001                	nop
2010575c:	40f2                	lw	ra,28(sp)
2010575e:	4462                	lw	s0,24(sp)
20105760:	6105                	add	sp,sp,32
20105762:	8082                	ret

20105764 <metal_cpu_interrupt_controller>:
metal_cpu_interrupt_controller():
C:/VSD/FreedomStudio-3-1-1-x86_64-w64-mingw32/FreedomStudio-3-1-1/SiFive/freedom-e-sdk-v21.11.00.00/freedom-metal/metal/cpu.h:224
 *
 * @param cpu The CPU device handle
 * @return The handle for the CPU interrupt controller
 */
__inline__ struct metal_interrupt *
metal_cpu_interrupt_controller(struct metal_cpu *cpu) {
20105764:	1101                	add	sp,sp,-32
20105766:	ce06                	sw	ra,28(sp)
20105768:	cc22                	sw	s0,24(sp)
2010576a:	1000                	add	s0,sp,32
2010576c:	fea42623          	sw	a0,-20(s0)
C:/VSD/FreedomStudio-3-1-1-x86_64-w64-mingw32/FreedomStudio-3-1-1/SiFive/freedom-e-sdk-v21.11.00.00/freedom-metal/metal/cpu.h:225
    return cpu->vtable->controller_interrupt(cpu);
20105770:	fec42783          	lw	a5,-20(s0)
20105774:	439c                	lw	a5,0(a5)
20105776:	57dc                	lw	a5,44(a5)
20105778:	fec42503          	lw	a0,-20(s0)
2010577c:	9782                	jalr	a5
2010577e:	87aa                	mv	a5,a0
C:/VSD/FreedomStudio-3-1-1-x86_64-w64-mingw32/FreedomStudio-3-1-1/SiFive/freedom-e-sdk-v21.11.00.00/freedom-metal/metal/cpu.h:226
}
20105780:	853e                	mv	a0,a5
20105782:	40f2                	lw	ra,28(sp)
20105784:	4462                	lw	s0,24(sp)
20105786:	6105                	add	sp,sp,32
20105788:	8082                	ret

2010578a <metal_cpu_get>:
metal_cpu_get():
C:/VSD/FreedomStudio-3-1-1-x86_64-w64-mingw32/FreedomStudio-3-1-1/SiFive/freedom-e-sdk-v21.11.00.00/freedom-metal/src/cpu.c:7
/* SPDX-License-Identifier: Apache-2.0 */

#include <metal/cpu.h>
#include <metal/machine.h>

struct metal_cpu *metal_cpu_get(unsigned int hartid) {
2010578a:	1101                	add	sp,sp,-32
2010578c:	ce22                	sw	s0,28(sp)
2010578e:	1000                	add	s0,sp,32
20105790:	fea42623          	sw	a0,-20(s0)
C:/VSD/FreedomStudio-3-1-1-x86_64-w64-mingw32/FreedomStudio-3-1-1/SiFive/freedom-e-sdk-v21.11.00.00/freedom-metal/src/cpu.c:8
    if (hartid < __METAL_DT_MAX_HARTS) {
20105794:	fec42783          	lw	a5,-20(s0)
20105798:	eb99                	bnez	a5,201057ae <metal_cpu_get+0x24>
C:/VSD/FreedomStudio-3-1-1-x86_64-w64-mingw32/FreedomStudio-3-1-1/SiFive/freedom-e-sdk-v21.11.00.00/freedom-metal/src/cpu.c:9
        return (struct metal_cpu *)__metal_cpu_table[hartid];
2010579a:	800017b7          	lui	a5,0x80001
2010579e:	fec42703          	lw	a4,-20(s0)
201057a2:	070a                	sll	a4,a4,0x2
201057a4:	a1878793          	add	a5,a5,-1512 # 80000a18 <__metal_cpu_table>
201057a8:	97ba                	add	a5,a5,a4
201057aa:	439c                	lw	a5,0(a5)
201057ac:	a011                	j	201057b0 <metal_cpu_get+0x26>
C:/VSD/FreedomStudio-3-1-1-x86_64-w64-mingw32/FreedomStudio-3-1-1/SiFive/freedom-e-sdk-v21.11.00.00/freedom-metal/src/cpu.c:11
    }
    return NULL;
201057ae:	4781                	li	a5,0
C:/VSD/FreedomStudio-3-1-1-x86_64-w64-mingw32/FreedomStudio-3-1-1/SiFive/freedom-e-sdk-v21.11.00.00/freedom-metal/src/cpu.c:12
}
201057b0:	853e                	mv	a0,a5
201057b2:	4472                	lw	s0,28(sp)
201057b4:	6105                	add	sp,sp,32
201057b6:	8082                	ret

201057b8 <metal_cpu_get_current_hartid>:
metal_cpu_get_current_hartid():
C:/VSD/FreedomStudio-3-1-1-x86_64-w64-mingw32/FreedomStudio-3-1-1/SiFive/freedom-e-sdk-v21.11.00.00/freedom-metal/src/cpu.c:14

int metal_cpu_get_current_hartid() {
201057b8:	1101                	add	sp,sp,-32
201057ba:	ce22                	sw	s0,28(sp)
201057bc:	1000                	add	s0,sp,32
C:/VSD/FreedomStudio-3-1-1-x86_64-w64-mingw32/FreedomStudio-3-1-1/SiFive/freedom-e-sdk-v21.11.00.00/freedom-metal/src/cpu.c:17
#ifdef __riscv
    int mhartid;
    __asm__ volatile("csrr %0, mhartid" : "=r"(mhartid));
201057be:	f14027f3          	csrr	a5,mhartid
201057c2:	fef42623          	sw	a5,-20(s0)
C:/VSD/FreedomStudio-3-1-1-x86_64-w64-mingw32/FreedomStudio-3-1-1/SiFive/freedom-e-sdk-v21.11.00.00/freedom-metal/src/cpu.c:18
    return mhartid;
201057c6:	fec42783          	lw	a5,-20(s0)
C:/VSD/FreedomStudio-3-1-1-x86_64-w64-mingw32/FreedomStudio-3-1-1/SiFive/freedom-e-sdk-v21.11.00.00/freedom-metal/src/cpu.c:20
#endif
}
201057ca:	853e                	mv	a0,a5
201057cc:	4472                	lw	s0,28(sp)
201057ce:	6105                	add	sp,sp,32
201057d0:	8082                	ret

201057d2 <metal_shutdown>:
metal_shutdown():
C:/VSD/FreedomStudio-3-1-1-x86_64-w64-mingw32/FreedomStudio-3-1-1/SiFive/freedom-e-sdk-v21.11.00.00/freedom-metal/src/shutdown.c:17
    __metal_shutdown_exit(__METAL_DT_SHUTDOWN_HANDLE, code);
}
#else
#pragma message(                                                               \
    "There is no defined shutdown mechanism, metal_shutdown() will spin.")
void metal_shutdown(int code) {
201057d2:	1101                	add	sp,sp,-32
201057d4:	ce22                	sw	s0,28(sp)
201057d6:	1000                	add	s0,sp,32
201057d8:	fea42623          	sw	a0,-20(s0)
C:/VSD/FreedomStudio-3-1-1-x86_64-w64-mingw32/FreedomStudio-3-1-1/SiFive/freedom-e-sdk-v21.11.00.00/freedom-metal/src/shutdown.c:19 (discriminator 1)
    while (1) {
        __asm__ volatile("nop");
201057dc:	0001                	nop
C:/VSD/FreedomStudio-3-1-1-x86_64-w64-mingw32/FreedomStudio-3-1-1/SiFive/freedom-e-sdk-v21.11.00.00/freedom-metal/src/shutdown.c:19
201057de:	bffd                	j	201057dc <metal_shutdown+0xa>

201057e0 <metal_uart_init>:
metal_uart_init():
C:/VSD/FreedomStudio-3-1-1-x86_64-w64-mingw32/FreedomStudio-3-1-1/SiFive/freedom-e-sdk-v21.11.00.00/freedom-metal/metal/uart.h:59
 more than once.
 *
 * @param uart The UART device handle
 * @param baud_rate the baud rate to set the UART to
 */
__inline__ void metal_uart_init(struct metal_uart *uart, int baud_rate) {
201057e0:	1101                	add	sp,sp,-32
201057e2:	ce06                	sw	ra,28(sp)
201057e4:	cc22                	sw	s0,24(sp)
201057e6:	1000                	add	s0,sp,32
201057e8:	fea42623          	sw	a0,-20(s0)
201057ec:	feb42423          	sw	a1,-24(s0)
C:/VSD/FreedomStudio-3-1-1-x86_64-w64-mingw32/FreedomStudio-3-1-1/SiFive/freedom-e-sdk-v21.11.00.00/freedom-metal/metal/uart.h:60
    uart->vtable->init(uart, baud_rate);
201057f0:	fec42783          	lw	a5,-20(s0)
201057f4:	439c                	lw	a5,0(a5)
201057f6:	439c                	lw	a5,0(a5)
201057f8:	fe842583          	lw	a1,-24(s0)
201057fc:	fec42503          	lw	a0,-20(s0)
20105800:	9782                	jalr	a5
C:/VSD/FreedomStudio-3-1-1-x86_64-w64-mingw32/FreedomStudio-3-1-1/SiFive/freedom-e-sdk-v21.11.00.00/freedom-metal/metal/uart.h:61
}
20105802:	0001                	nop
20105804:	40f2                	lw	ra,28(sp)
20105806:	4462                	lw	s0,24(sp)
20105808:	6105                	add	sp,sp,32
2010580a:	8082                	ret

2010580c <metal_uart_set_baud_rate>:
metal_uart_set_baud_rate():
C:/VSD/FreedomStudio-3-1-1-x86_64-w64-mingw32/FreedomStudio-3-1-1/SiFive/freedom-e-sdk-v21.11.00.00/freedom-metal/metal/uart.h:111
 * @param uart The UART device handle
 * @param baud_rate The baud rate to configure
 * @return the new baud rate of the UART
 */
__inline__ int metal_uart_set_baud_rate(struct metal_uart *uart,
                                        int baud_rate) {
2010580c:	1101                	add	sp,sp,-32
2010580e:	ce06                	sw	ra,28(sp)
20105810:	cc22                	sw	s0,24(sp)
20105812:	1000                	add	s0,sp,32
20105814:	fea42623          	sw	a0,-20(s0)
20105818:	feb42423          	sw	a1,-24(s0)
C:/VSD/FreedomStudio-3-1-1-x86_64-w64-mingw32/FreedomStudio-3-1-1/SiFive/freedom-e-sdk-v21.11.00.00/freedom-metal/metal/uart.h:112
    return uart->vtable->set_baud_rate(uart, baud_rate);
2010581c:	fec42783          	lw	a5,-20(s0)
20105820:	439c                	lw	a5,0(a5)
20105822:	4bdc                	lw	a5,20(a5)
20105824:	fe842583          	lw	a1,-24(s0)
20105828:	fec42503          	lw	a0,-20(s0)
2010582c:	9782                	jalr	a5
2010582e:	87aa                	mv	a5,a0
C:/VSD/FreedomStudio-3-1-1-x86_64-w64-mingw32/FreedomStudio-3-1-1/SiFive/freedom-e-sdk-v21.11.00.00/freedom-metal/metal/uart.h:113
}
20105830:	853e                	mv	a0,a5
20105832:	40f2                	lw	ra,28(sp)
20105834:	4462                	lw	s0,24(sp)
20105836:	6105                	add	sp,sp,32
20105838:	8082                	ret
	...

20105880 <__metal_vector_table>:
IRQ_0():
C:/VSD/FreedomStudio-3-1-1-x86_64-w64-mingw32/FreedomStudio-3-1-1/SiFive/freedom-e-sdk-v21.11.00.00/freedom-metal/src/vector.S:76
#endif
.option norvc
.global __metal_vector_table
__metal_vector_table:
IRQ_0:
        j metal_interrupt_vector_handler
20105880:	c9efc06f          	j	20101d1e <metal_interrupt_vector_handler>

20105884 <IRQ_1>:
IRQ_1():
C:/VSD/FreedomStudio-3-1-1-x86_64-w64-mingw32/FreedomStudio-3-1-1/SiFive/freedom-e-sdk-v21.11.00.00/freedom-metal/src/vector.S:78
IRQ_1:
        j metal_interrupt_vector_handler
20105884:	c9afc06f          	j	20101d1e <metal_interrupt_vector_handler>

20105888 <IRQ_2>:
IRQ_2():
C:/VSD/FreedomStudio-3-1-1-x86_64-w64-mingw32/FreedomStudio-3-1-1/SiFive/freedom-e-sdk-v21.11.00.00/freedom-metal/src/vector.S:80
IRQ_2:
        j metal_interrupt_vector_handler
20105888:	c96fc06f          	j	20101d1e <metal_interrupt_vector_handler>

2010588c <IRQ_3>:
IRQ_3():
C:/VSD/FreedomStudio-3-1-1-x86_64-w64-mingw32/FreedomStudio-3-1-1/SiFive/freedom-e-sdk-v21.11.00.00/freedom-metal/src/vector.S:82
IRQ_3:
        j metal_software_interrupt_vector_handler
2010588c:	cc0fc06f          	j	20101d4c <metal_software_interrupt_vector_handler>

20105890 <IRQ_4>:
IRQ_4():
C:/VSD/FreedomStudio-3-1-1-x86_64-w64-mingw32/FreedomStudio-3-1-1/SiFive/freedom-e-sdk-v21.11.00.00/freedom-metal/src/vector.S:84
IRQ_4:
        j metal_interrupt_vector_handler
20105890:	c8efc06f          	j	20101d1e <metal_interrupt_vector_handler>

20105894 <IRQ_5>:
IRQ_5():
C:/VSD/FreedomStudio-3-1-1-x86_64-w64-mingw32/FreedomStudio-3-1-1/SiFive/freedom-e-sdk-v21.11.00.00/freedom-metal/src/vector.S:86
IRQ_5:
        j metal_interrupt_vector_handler
20105894:	c8afc06f          	j	20101d1e <metal_interrupt_vector_handler>

20105898 <IRQ_6>:
IRQ_6():
C:/VSD/FreedomStudio-3-1-1-x86_64-w64-mingw32/FreedomStudio-3-1-1/SiFive/freedom-e-sdk-v21.11.00.00/freedom-metal/src/vector.S:88
IRQ_6:
        j metal_interrupt_vector_handler
20105898:	c86fc06f          	j	20101d1e <metal_interrupt_vector_handler>

2010589c <IRQ_7>:
IRQ_7():
C:/VSD/FreedomStudio-3-1-1-x86_64-w64-mingw32/FreedomStudio-3-1-1/SiFive/freedom-e-sdk-v21.11.00.00/freedom-metal/src/vector.S:90
IRQ_7:
        j metal_timer_interrupt_vector_handler
2010589c:	daafc06f          	j	20101e46 <metal_timer_interrupt_vector_handler>

201058a0 <IRQ_8>:
IRQ_8():
C:/VSD/FreedomStudio-3-1-1-x86_64-w64-mingw32/FreedomStudio-3-1-1/SiFive/freedom-e-sdk-v21.11.00.00/freedom-metal/src/vector.S:92
IRQ_8:
        j metal_interrupt_vector_handler
201058a0:	c7efc06f          	j	20101d1e <metal_interrupt_vector_handler>

201058a4 <IRQ_9>:
IRQ_9():
C:/VSD/FreedomStudio-3-1-1-x86_64-w64-mingw32/FreedomStudio-3-1-1/SiFive/freedom-e-sdk-v21.11.00.00/freedom-metal/src/vector.S:94
IRQ_9:
        j metal_interrupt_vector_handler
201058a4:	c7afc06f          	j	20101d1e <metal_interrupt_vector_handler>

201058a8 <IRQ_10>:
IRQ_10():
C:/VSD/FreedomStudio-3-1-1-x86_64-w64-mingw32/FreedomStudio-3-1-1/SiFive/freedom-e-sdk-v21.11.00.00/freedom-metal/src/vector.S:96
IRQ_10:
        j metal_interrupt_vector_handler
201058a8:	c76fc06f          	j	20101d1e <metal_interrupt_vector_handler>

201058ac <IRQ_11>:
IRQ_11():
C:/VSD/FreedomStudio-3-1-1-x86_64-w64-mingw32/FreedomStudio-3-1-1/SiFive/freedom-e-sdk-v21.11.00.00/freedom-metal/src/vector.S:98
IRQ_11:
        j metal_interrupt_vector_handler
201058ac:	c72fc06f          	j	20101d1e <metal_interrupt_vector_handler>

201058b0 <IRQ_12>:
IRQ_12():
C:/VSD/FreedomStudio-3-1-1-x86_64-w64-mingw32/FreedomStudio-3-1-1/SiFive/freedom-e-sdk-v21.11.00.00/freedom-metal/src/vector.S:100
IRQ_12:
        j metal_interrupt_vector_handler
201058b0:	c6efc06f          	j	20101d1e <metal_interrupt_vector_handler>

201058b4 <IRQ_13>:
IRQ_13():
C:/VSD/FreedomStudio-3-1-1-x86_64-w64-mingw32/FreedomStudio-3-1-1/SiFive/freedom-e-sdk-v21.11.00.00/freedom-metal/src/vector.S:102
IRQ_13:
        j metal_interrupt_vector_handler
201058b4:	c6afc06f          	j	20101d1e <metal_interrupt_vector_handler>

201058b8 <IRQ_14>:
IRQ_14():
C:/VSD/FreedomStudio-3-1-1-x86_64-w64-mingw32/FreedomStudio-3-1-1/SiFive/freedom-e-sdk-v21.11.00.00/freedom-metal/src/vector.S:104
IRQ_14:
        j metal_interrupt_vector_handler
201058b8:	c66fc06f          	j	20101d1e <metal_interrupt_vector_handler>

201058bc <IRQ_15>:
IRQ_15():
C:/VSD/FreedomStudio-3-1-1-x86_64-w64-mingw32/FreedomStudio-3-1-1/SiFive/freedom-e-sdk-v21.11.00.00/freedom-metal/src/vector.S:106
IRQ_15:
        j metal_interrupt_vector_handler
201058bc:	c62fc06f          	j	20101d1e <metal_interrupt_vector_handler>

201058c0 <IRQ_LC0>:
IRQ_LC0():
C:/VSD/FreedomStudio-3-1-1-x86_64-w64-mingw32/FreedomStudio-3-1-1/SiFive/freedom-e-sdk-v21.11.00.00/freedom-metal/src/vector.S:108
IRQ_LC0:
        j metal_lc0_interrupt_vector_handler
201058c0:	8b7fc06f          	j	20102176 <metal_lc0_interrupt_vector_handler>

201058c4 <IRQ_LC1>:
IRQ_LC1():
C:/VSD/FreedomStudio-3-1-1-x86_64-w64-mingw32/FreedomStudio-3-1-1/SiFive/freedom-e-sdk-v21.11.00.00/freedom-metal/src/vector.S:110
IRQ_LC1:
        j metal_lc1_interrupt_vector_handler
201058c4:	947fc06f          	j	2010220a <metal_lc1_interrupt_vector_handler>

201058c8 <IRQ_LC2>:
IRQ_LC2():
C:/VSD/FreedomStudio-3-1-1-x86_64-w64-mingw32/FreedomStudio-3-1-1/SiFive/freedom-e-sdk-v21.11.00.00/freedom-metal/src/vector.S:112
IRQ_LC2:
        j metal_lc2_interrupt_vector_handler
201058c8:	9d9fc06f          	j	201022a0 <metal_lc2_interrupt_vector_handler>

201058cc <IRQ_LC3>:
IRQ_LC3():
C:/VSD/FreedomStudio-3-1-1-x86_64-w64-mingw32/FreedomStudio-3-1-1/SiFive/freedom-e-sdk-v21.11.00.00/freedom-metal/src/vector.S:114
IRQ_LC3:
        j metal_lc3_interrupt_vector_handler
201058cc:	a6bfc06f          	j	20102336 <metal_lc3_interrupt_vector_handler>

201058d0 <IRQ_LC4>:
IRQ_LC4():
C:/VSD/FreedomStudio-3-1-1-x86_64-w64-mingw32/FreedomStudio-3-1-1/SiFive/freedom-e-sdk-v21.11.00.00/freedom-metal/src/vector.S:116
IRQ_LC4:
        j metal_lc4_interrupt_vector_handler
201058d0:	afdfc06f          	j	201023cc <metal_lc4_interrupt_vector_handler>

201058d4 <IRQ_LC5>:
IRQ_LC5():
C:/VSD/FreedomStudio-3-1-1-x86_64-w64-mingw32/FreedomStudio-3-1-1/SiFive/freedom-e-sdk-v21.11.00.00/freedom-metal/src/vector.S:118
IRQ_LC5:
        j metal_lc5_interrupt_vector_handler
201058d4:	b8ffc06f          	j	20102462 <metal_lc5_interrupt_vector_handler>

201058d8 <IRQ_LC6>:
IRQ_LC6():
C:/VSD/FreedomStudio-3-1-1-x86_64-w64-mingw32/FreedomStudio-3-1-1/SiFive/freedom-e-sdk-v21.11.00.00/freedom-metal/src/vector.S:120
IRQ_LC6:
        j metal_lc6_interrupt_vector_handler
201058d8:	c21fc06f          	j	201024f8 <metal_lc6_interrupt_vector_handler>

201058dc <IRQ_LC7>:
IRQ_LC7():
C:/VSD/FreedomStudio-3-1-1-x86_64-w64-mingw32/FreedomStudio-3-1-1/SiFive/freedom-e-sdk-v21.11.00.00/freedom-metal/src/vector.S:122
IRQ_LC7:
        j metal_lc7_interrupt_vector_handler
201058dc:	cb3fc06f          	j	2010258e <metal_lc7_interrupt_vector_handler>

201058e0 <IRQ_LC8>:
IRQ_LC8():
C:/VSD/FreedomStudio-3-1-1-x86_64-w64-mingw32/FreedomStudio-3-1-1/SiFive/freedom-e-sdk-v21.11.00.00/freedom-metal/src/vector.S:124
IRQ_LC8:
        j metal_lc8_interrupt_vector_handler
201058e0:	d45fc06f          	j	20102624 <metal_lc8_interrupt_vector_handler>

201058e4 <IRQ_LC9>:
IRQ_LC9():
C:/VSD/FreedomStudio-3-1-1-x86_64-w64-mingw32/FreedomStudio-3-1-1/SiFive/freedom-e-sdk-v21.11.00.00/freedom-metal/src/vector.S:126
IRQ_LC9:
        j metal_lc9_interrupt_vector_handler
201058e4:	dd7fc06f          	j	201026ba <metal_lc9_interrupt_vector_handler>

201058e8 <IRQ_LC10>:
IRQ_LC10():
C:/VSD/FreedomStudio-3-1-1-x86_64-w64-mingw32/FreedomStudio-3-1-1/SiFive/freedom-e-sdk-v21.11.00.00/freedom-metal/src/vector.S:128
IRQ_LC10:
        j metal_lc10_interrupt_vector_handler
201058e8:	e69fc06f          	j	20102750 <metal_lc10_interrupt_vector_handler>

201058ec <IRQ_LC11>:
IRQ_LC11():
C:/VSD/FreedomStudio-3-1-1-x86_64-w64-mingw32/FreedomStudio-3-1-1/SiFive/freedom-e-sdk-v21.11.00.00/freedom-metal/src/vector.S:130
IRQ_LC11:
        j metal_lc11_interrupt_vector_handler
201058ec:	efbfc06f          	j	201027e6 <metal_lc11_interrupt_vector_handler>

201058f0 <IRQ_LC12>:
IRQ_LC12():
C:/VSD/FreedomStudio-3-1-1-x86_64-w64-mingw32/FreedomStudio-3-1-1/SiFive/freedom-e-sdk-v21.11.00.00/freedom-metal/src/vector.S:132
IRQ_LC12:
        j metal_lc12_interrupt_vector_handler
201058f0:	f8dfc06f          	j	2010287c <metal_lc12_interrupt_vector_handler>

201058f4 <IRQ_LC13>:
IRQ_LC13():
C:/VSD/FreedomStudio-3-1-1-x86_64-w64-mingw32/FreedomStudio-3-1-1/SiFive/freedom-e-sdk-v21.11.00.00/freedom-metal/src/vector.S:134
IRQ_LC13:
        j metal_lc13_interrupt_vector_handler
201058f4:	81efd06f          	j	20102912 <metal_lc13_interrupt_vector_handler>

201058f8 <IRQ_LC14>:
IRQ_LC14():
C:/VSD/FreedomStudio-3-1-1-x86_64-w64-mingw32/FreedomStudio-3-1-1/SiFive/freedom-e-sdk-v21.11.00.00/freedom-metal/src/vector.S:136
IRQ_LC14:
        j metal_lc14_interrupt_vector_handler
201058f8:	8b0fd06f          	j	201029a8 <metal_lc14_interrupt_vector_handler>

201058fc <IRQ_LC15>:
IRQ_LC15():
C:/VSD/FreedomStudio-3-1-1-x86_64-w64-mingw32/FreedomStudio-3-1-1/SiFive/freedom-e-sdk-v21.11.00.00/freedom-metal/src/vector.S:138
IRQ_LC15:
        j metal_lc15_interrupt_vector_handler
201058fc:	942fd06f          	j	20102a3e <metal_lc15_interrupt_vector_handler>

20105900 <__metal_driver_fixed_clock_rate>:
__metal_driver_fixed_clock_rate():
C:\VSD\FreedomStudio-3-1-1-x86_64-w64-mingw32\FreedomStudio-3-1-1\SiFive\freedom-e-sdk-v21.11.00.00\bsp\sifive-hifive1\build\debug/./metal/machine.h:186
{
20105900:	1101                	add	sp,sp,-32
20105902:	ce22                	sw	s0,28(sp)
20105904:	1000                	add	s0,sp,32
20105906:	fea42623          	sw	a0,-20(s0)
C:\VSD\FreedomStudio-3-1-1-x86_64-w64-mingw32\FreedomStudio-3-1-1\SiFive\freedom-e-sdk-v21.11.00.00\bsp\sifive-hifive1\build\debug/./metal/machine.h:187
	if ((uintptr_t)clock == (uintptr_t)&__metal_dt_clock_0) {
2010590a:	fec42703          	lw	a4,-20(s0)
2010590e:	800007b7          	lui	a5,0x80000
20105912:	00078793          	mv	a5,a5
20105916:	00f71763          	bne	a4,a5,20105924 <__metal_driver_fixed_clock_rate+0x24>
C:\VSD\FreedomStudio-3-1-1-x86_64-w64-mingw32\FreedomStudio-3-1-1\SiFive\freedom-e-sdk-v21.11.00.00\bsp\sifive-hifive1\build\debug/./metal/machine.h:188
		return METAL_FIXED_CLOCK_0_CLOCK_0_CLOCK_FREQUENCY;
2010591a:	00f427b7          	lui	a5,0xf42
2010591e:	40078793          	add	a5,a5,1024 # f42400 <__heap_size+0xf41c00>
20105922:	a825                	j	2010595a <__metal_driver_fixed_clock_rate+0x5a>
C:\VSD\FreedomStudio-3-1-1-x86_64-w64-mingw32\FreedomStudio-3-1-1\SiFive\freedom-e-sdk-v21.11.00.00\bsp\sifive-hifive1\build\debug/./metal/machine.h:190
	else if ((uintptr_t)clock == (uintptr_t)&__metal_dt_clock_2) {
20105924:	fec42703          	lw	a4,-20(s0)
20105928:	800007b7          	lui	a5,0x80000
2010592c:	00c78793          	add	a5,a5,12 # 8000000c <__metal_dt_clock_2>
20105930:	00f71763          	bne	a4,a5,2010593e <__metal_driver_fixed_clock_rate+0x3e>
C:\VSD\FreedomStudio-3-1-1-x86_64-w64-mingw32\FreedomStudio-3-1-1\SiFive\freedom-e-sdk-v21.11.00.00\bsp\sifive-hifive1\build\debug/./metal/machine.h:191
		return METAL_FIXED_CLOCK_2_CLOCK_2_CLOCK_FREQUENCY;
20105934:	044aa7b7          	lui	a5,0x44aa
20105938:	20078793          	add	a5,a5,512 # 44aa200 <__heap_size+0x44a9a00>
2010593c:	a839                	j	2010595a <__metal_driver_fixed_clock_rate+0x5a>
C:\VSD\FreedomStudio-3-1-1-x86_64-w64-mingw32\FreedomStudio-3-1-1\SiFive\freedom-e-sdk-v21.11.00.00\bsp\sifive-hifive1\build\debug/./metal/machine.h:193
	else if ((uintptr_t)clock == (uintptr_t)&__metal_dt_clock_5) {
2010593e:	fec42703          	lw	a4,-20(s0)
20105942:	800007b7          	lui	a5,0x80000
20105946:	01878793          	add	a5,a5,24 # 80000018 <__metal_dt_clock_5>
2010594a:	00f71763          	bne	a4,a5,20105958 <__metal_driver_fixed_clock_rate+0x58>
C:\VSD\FreedomStudio-3-1-1-x86_64-w64-mingw32\FreedomStudio-3-1-1\SiFive\freedom-e-sdk-v21.11.00.00\bsp\sifive-hifive1\build\debug/./metal/machine.h:194
		return METAL_FIXED_CLOCK_5_CLOCK_5_CLOCK_FREQUENCY;
2010594e:	01e857b7          	lui	a5,0x1e85
20105952:	80078793          	add	a5,a5,-2048 # 1e84800 <__heap_size+0x1e84000>
20105956:	a011                	j	2010595a <__metal_driver_fixed_clock_rate+0x5a>
C:\VSD\FreedomStudio-3-1-1-x86_64-w64-mingw32\FreedomStudio-3-1-1\SiFive\freedom-e-sdk-v21.11.00.00\bsp\sifive-hifive1\build\debug/./metal/machine.h:197
		return 0;
20105958:	4781                	li	a5,0
C:\VSD\FreedomStudio-3-1-1-x86_64-w64-mingw32\FreedomStudio-3-1-1\SiFive\freedom-e-sdk-v21.11.00.00\bsp\sifive-hifive1\build\debug/./metal/machine.h:199
}
2010595a:	853e                	mv	a0,a5
2010595c:	4472                	lw	s0,28(sp)
2010595e:	6105                	add	sp,sp,32
20105960:	8082                	ret

20105962 <__metal_driver_fixed_clock_get_rate_hz>:
__metal_driver_fixed_clock_get_rate_hz():
C:/VSD/FreedomStudio-3-1-1-x86_64-w64-mingw32/FreedomStudio-3-1-1/SiFive/freedom-e-sdk-v21.11.00.00/freedom-metal/src/drivers/fixed-clock.c:12

#include <metal/drivers/fixed-clock.h>
#include <metal/machine.h>
#include <stddef.h>

long __metal_driver_fixed_clock_get_rate_hz(const struct metal_clock *gclk) {
20105962:	1101                	add	sp,sp,-32
20105964:	ce06                	sw	ra,28(sp)
20105966:	cc22                	sw	s0,24(sp)
20105968:	1000                	add	s0,sp,32
2010596a:	fea42623          	sw	a0,-20(s0)
C:/VSD/FreedomStudio-3-1-1-x86_64-w64-mingw32/FreedomStudio-3-1-1/SiFive/freedom-e-sdk-v21.11.00.00/freedom-metal/src/drivers/fixed-clock.c:13
    return __metal_driver_fixed_clock_rate(gclk);
2010596e:	fec42503          	lw	a0,-20(s0)
20105972:	3779                	jal	20105900 <__metal_driver_fixed_clock_rate>
20105974:	87aa                	mv	a5,a0
C:/VSD/FreedomStudio-3-1-1-x86_64-w64-mingw32/FreedomStudio-3-1-1/SiFive/freedom-e-sdk-v21.11.00.00/freedom-metal/src/drivers/fixed-clock.c:14
}
20105976:	853e                	mv	a0,a5
20105978:	40f2                	lw	ra,28(sp)
2010597a:	4462                	lw	s0,24(sp)
2010597c:	6105                	add	sp,sp,32
2010597e:	8082                	ret

20105980 <__metal_driver_fixed_clock_set_rate_hz>:
__metal_driver_fixed_clock_set_rate_hz():
C:/VSD/FreedomStudio-3-1-1-x86_64-w64-mingw32/FreedomStudio-3-1-1/SiFive/freedom-e-sdk-v21.11.00.00/freedom-metal/src/drivers/fixed-clock.c:17

long __metal_driver_fixed_clock_set_rate_hz(struct metal_clock *gclk,
                                            long target_hz) {
20105980:	1101                	add	sp,sp,-32
20105982:	ce06                	sw	ra,28(sp)
20105984:	cc22                	sw	s0,24(sp)
20105986:	1000                	add	s0,sp,32
20105988:	fea42623          	sw	a0,-20(s0)
2010598c:	feb42423          	sw	a1,-24(s0)
C:/VSD/FreedomStudio-3-1-1-x86_64-w64-mingw32/FreedomStudio-3-1-1/SiFive/freedom-e-sdk-v21.11.00.00/freedom-metal/src/drivers/fixed-clock.c:18
    return __metal_driver_fixed_clock_get_rate_hz(gclk);
20105990:	fec42503          	lw	a0,-20(s0)
20105994:	37f9                	jal	20105962 <__metal_driver_fixed_clock_get_rate_hz>
20105996:	87aa                	mv	a5,a0
C:/VSD/FreedomStudio-3-1-1-x86_64-w64-mingw32/FreedomStudio-3-1-1/SiFive/freedom-e-sdk-v21.11.00.00/freedom-metal/src/drivers/fixed-clock.c:19
}
20105998:	853e                	mv	a0,a5
2010599a:	40f2                	lw	ra,28(sp)
2010599c:	4462                	lw	s0,24(sp)
2010599e:	6105                	add	sp,sp,32
201059a0:	8082                	ret

201059a2 <_exit>:
_exit():
C:/VSD/FreedomStudio-3-1-1-x86_64-w64-mingw32/FreedomStudio-3-1-1/SiFive/freedom-e-sdk-v21.11.00.00/freedom-metal/gloss/sys_exit.c:3
#include <metal/shutdown.h>

void _exit(int exit_status) {
201059a2:	1101                	add	sp,sp,-32
201059a4:	ce06                	sw	ra,28(sp)
201059a6:	cc22                	sw	s0,24(sp)
201059a8:	1000                	add	s0,sp,32
201059aa:	fea42623          	sw	a0,-20(s0)
C:/VSD/FreedomStudio-3-1-1-x86_64-w64-mingw32/FreedomStudio-3-1-1/SiFive/freedom-e-sdk-v21.11.00.00/freedom-metal/gloss/sys_exit.c:4
    metal_shutdown(exit_status);
201059ae:	fec42503          	lw	a0,-20(s0)
201059b2:	3505                	jal	201057d2 <metal_shutdown>
